Archive member included to satisfy reference by file (symbol)

/joengine/Compiler/COMMON/SGL_302j/LIB_ELF/SEGA_SYS.A(sys_exit.o)
                              /work/jo_engine/core.o (symbol from plugin) (SYS_Exit)
/joengine/Compiler/COMMON/SGL_302j/LIB_ELF/SEGA_SYS.A(sys_sub.o)
                              /joengine/Compiler/COMMON/SGL_302j/LIB_ELF/SEGA_SYS.A(sys_exit.o) (SYSUB_SetStackptr)
/joengine/Compiler/COMMON/SGL_302j/LIB_ELF/LIBCD.A(CDC_CMN.O)
                              /joengine/Compiler/COMMON/SGL_302j/LIB_ELF/SEGA_SYS.A(sys_exit.o) (CDC_GetCurStat)
/joengine/Compiler/COMMON/SGL_302j/LIB_ELF/LIBCD.A(CDC_DRV.O)
                              pcmsys.o (symbol from plugin) (CDC_CdPlay)
/joengine/Compiler/COMMON/SGL_302j/LIB_ELF/LIBCD.A(CDC_CFS.O)
                              /joengine/Compiler/COMMON/SGL_302j/LIB_ELF/SEGA_SYS.A(sys_exit.o) (CDC_ChgDir)
/joengine/Compiler/COMMON/SGL_302j/LIB_ELF/LIBCD.A(CDC_REG.O)
                              /joengine/Compiler/COMMON/SGL_302j/LIB_ELF/SEGA_SYS.A(sys_exit.o) (CDC_GetHirqReq)
/joengine/Compiler/COMMON/SGL_302j/LIB_ELF/LIBCD.A(CDC_SUB.O)
                              /joengine/Compiler/COMMON/SGL_302j/LIB_ELF/LIBCD.A(CDC_CMN.O) (CDSUB_UpdStatus)
/joengine/Compiler/COMMON/SGL_302j/LIB_ELF/LIBCD.A(GFS.O)
                              pcmsys.o (symbol from plugin) (GFS_Init)
/joengine/Compiler/COMMON/SGL_302j/LIB_ELF/LIBCD.A(GFS_BUF.O)
                              /joengine/Compiler/COMMON/SGL_302j/LIB_ELF/LIBCD.A(GFS.O) (GFBF_GetNumData)
/joengine/Compiler/COMMON/SGL_302j/LIB_ELF/LIBCD.A(GFS_CDB.O)
                              /joengine/Compiler/COMMON/SGL_302j/LIB_ELF/LIBCD.A(GFS.O) (GFCB_Close)
/joengine/Compiler/COMMON/SGL_302j/LIB_ELF/LIBCD.A(GFS_CDC.O)
                              /joengine/Compiler/COMMON/SGL_302j/LIB_ELF/LIBCD.A(GFS.O) (GFCD_SetCdbfs)
/joengine/Compiler/COMMON/SGL_302j/LIB_ELF/LIBCD.A(GFS_CDF.O)
                              /joengine/Compiler/COMMON/SGL_302j/LIB_ELF/LIBCD.A(GFS.O) (GFCF_Init)
/joengine/Compiler/COMMON/SGL_302j/LIB_ELF/LIBCD.A(GFS_DIR.O)
                              /joengine/Compiler/COMMON/SGL_302j/LIB_ELF/LIBCD.A(GFS.O) (GFDR_SetupDirTbl)
/joengine/Compiler/COMMON/SGL_302j/LIB_ELF/LIBCD.A(GFS_TRN.O)
                              /joengine/Compiler/COMMON/SGL_302j/LIB_ELF/LIBCD.A(GFS.O) (GFTR_Setup)
/joengine/Compiler/COMMON/SGL_302j/LIB_ELF/LIBCD.A(CDC_DEV.O)
                              /joengine/Compiler/COMMON/SGL_302j/LIB_ELF/LIBCD.A(GFS_CDC.O) (CDC_CdSetCon)
/joengine/Compiler/COMMON/SGL_302j/LIB_ELF/LIBCD.A(CDC_SEL.O)
                              /joengine/Compiler/COMMON/SGL_302j/LIB_ELF/LIBCD.A(GFS_CDC.O) (CDC_SetFiltRange)
/joengine/Compiler/COMMON/SGL_302j/LIB_ELF/LIBCD.A(CDC_BIF.O)
                              /joengine/Compiler/COMMON/SGL_302j/LIB_ELF/LIBCD.A(GFS_CDC.O) (CDC_GetBufSiz)
/joengine/Compiler/COMMON/SGL_302j/LIB_ELF/LIBCD.A(CDC_BIO.O)
                              /joengine/Compiler/COMMON/SGL_302j/LIB_ELF/LIBCD.A(GFS_CDC.O) (CDC_SetSctLen)
/joengine/Compiler/COMMON/SGL_302j/LIB_ELF/LIBSGL.A(sglA01.o)
                              /work/jo_engine/math.o (symbol from plugin) (slSin)
/joengine/Compiler/COMMON/SGL_302j/LIB_ELF/LIBSGL.A(sglA15.o)
                              /work/jo_engine/slave.o (symbol from plugin) (slSlaveFunc)
/joengine/Compiler/COMMON/SGL_302j/LIB_ELF/LIBSGL.A(sglA16.o)
                              main.o (symbol from plugin) (slLookAt)
/joengine/Compiler/COMMON/SGL_302j/LIB_ELF/LIBSGL.A(sglA17.o)
                              /joengine/Compiler/COMMON/SGL_302j/LIB_ELF/LIBSGL.A(sglA16.o) (slRotZ)
/joengine/Compiler/COMMON/SGL_302j/LIB_ELF/LIBSGL.A(sglA18.o)
                              main.o (symbol from plugin) (slRotY)
/joengine/Compiler/COMMON/SGL_302j/LIB_ELF/LIBSGL.A(sglA19.o)
                              main.o (symbol from plugin) (slRotX)
/joengine/Compiler/COMMON/SGL_302j/LIB_ELF/LIBSGL.A(sglA20.o)
                              main.o (symbol from plugin) (slUnitMatrix)
/joengine/Compiler/COMMON/SGL_302j/LIB_ELF/LIBSGL.A(sglA21.o)
                              main.o (symbol from plugin) (slPushMatrix)
/joengine/Compiler/COMMON/SGL_302j/LIB_ELF/LIBSGL.A(sglA27.o)
                              /joengine/Compiler/COMMON/SGL_302j/LIB_ELF/LIBSGL.A(sglA16.o) (slTranslate)
/joengine/Compiler/COMMON/SGL_302j/LIB_ELF/LIBSGL.A(sglA28.o)
                              main.o (symbol from plugin) (slScale)
/joengine/Compiler/COMMON/SGL_302j/LIB_ELF/LIBSGL.A(sglA40.o)
                              main.o (symbol from plugin) (slCalcVector)
/joengine/Compiler/COMMON/SGL_302j/LIB_ELF/LIBSGL.A(sglB001.o)
                              main.o (symbol from plugin) (slTVOn)
/joengine/Compiler/COMMON/SGL_302j/LIB_ELF/LIBSGL.A(sglB011.o)
                              /work/jo_engine/vdp2.o (symbol from plugin) (slBitMapNbg1)
/joengine/Compiler/COMMON/SGL_302j/LIB_ELF/LIBSGL.A(sglB014.o)
                              /work/jo_engine/vdp2.o (symbol from plugin) (slScrTransparent)
/joengine/Compiler/COMMON/SGL_302j/LIB_ELF/LIBSGL.A(sglB015.o)
                              /work/jo_engine/vdp2.o (symbol from plugin) (slScrAutoDisp)
/joengine/Compiler/COMMON/SGL_302j/LIB_ELF/LIBSGL.A(sglB016.o)
                              /work/jo_engine/vdp2.o (symbol from plugin) (slBack1ColSet)
/joengine/Compiler/COMMON/SGL_302j/LIB_ELF/LIBSGL.A(sglB020.o)
                              /work/jo_engine/vdp2.o (symbol from plugin) (slColorCalc)
/joengine/Compiler/COMMON/SGL_302j/LIB_ELF/LIBSGL.A(sglB021.o)
                              /work/jo_engine/vdp2.o (symbol from plugin) (slColorCalcOn)
/joengine/Compiler/COMMON/SGL_302j/LIB_ELF/LIBSGL.A(sglB023.o)
                              /work/jo_engine/vdp2.o (symbol from plugin) (slColRate)
/joengine/Compiler/COMMON/SGL_302j/LIB_ELF/LIBSGL.A(sglB031.o)
                              /work/jo_engine/vdp2.o (symbol from plugin) (slMapNbg0)
/joengine/Compiler/COMMON/SGL_302j/LIB_ELF/LIBSGL.A(sglB032.o)
                              /work/jo_engine/vdp2.o (symbol from plugin) (slMapNbg1)
/joengine/Compiler/COMMON/SGL_302j/LIB_ELF/LIBSGL.A(sglB033.o)
                              /work/jo_engine/vdp2.o (symbol from plugin) (slMapNbg2)
/joengine/Compiler/COMMON/SGL_302j/LIB_ELF/LIBSGL.A(sglB034.o)
                              /work/jo_engine/vdp2.o (symbol from plugin) (slMapNbg3)
/joengine/Compiler/COMMON/SGL_302j/LIB_ELF/LIBSGL.A(sglB035.o)
                              /work/jo_engine/vdp2.o (symbol from plugin) (sl1MapRA)
/joengine/Compiler/COMMON/SGL_302j/LIB_ELF/LIBSGL.A(sglB036.o)
                              /work/jo_engine/vdp2.o (symbol from plugin) (sl1MapRB)
/joengine/Compiler/COMMON/SGL_302j/LIB_ELF/LIBSGL.A(sglB038.o)
                              /work/jo_engine/vdp2.o (symbol from plugin) (slRparaInitSet)
/joengine/Compiler/COMMON/SGL_302j/LIB_ELF/LIBSGL.A(sglB039.o)
                              /work/jo_engine/vdp2.o (symbol from plugin) (slMakeKtable)
/joengine/Compiler/COMMON/SGL_302j/LIB_ELF/LIBSGL.A(sglB040.o)
                              /work/jo_engine/vdp2.o (symbol from plugin) (slKtableRA)
/joengine/Compiler/COMMON/SGL_302j/LIB_ELF/LIBSGL.A(sglB041.o)
                              /work/jo_engine/vdp2.o (symbol from plugin) (slKtableRB)
/joengine/Compiler/COMMON/SGL_302j/LIB_ELF/LIBSGL.A(sglB042.o)
                              main.o (symbol from plugin) (slCurRpara)
/joengine/Compiler/COMMON/SGL_302j/LIB_ELF/LIBSGL.A(sglB043.o)
                              /work/jo_engine/vdp2.o (symbol from plugin) (slRparaMode)
/joengine/Compiler/COMMON/SGL_302j/LIB_ELF/LIBSGL.A(sglB044.o)
                              main.o (symbol from plugin) (slScrMatSet)
/joengine/Compiler/COMMON/SGL_302j/LIB_ELF/LIBSGL.A(sglB045.o)
                              main.o (symbol from plugin) (slScrMatConv)
/joengine/Compiler/COMMON/SGL_302j/LIB_ELF/LIBSGL.A(sglB047.o)
                              /work/jo_engine/vdp2.o (symbol from plugin) (slOverRA)
/joengine/Compiler/COMMON/SGL_302j/LIB_ELF/LIBSGL.A(sglB048.o)
                              /work/jo_engine/vdp2.o (symbol from plugin) (slOverRB)
/joengine/Compiler/COMMON/SGL_302j/LIB_ELF/LIBSGL.A(sglB055.o)
                              /work/jo_engine/vdp2.o (symbol from plugin) (slPlaneNbg0)
/joengine/Compiler/COMMON/SGL_302j/LIB_ELF/LIBSGL.A(sglB056.o)
                              /work/jo_engine/vdp2.o (symbol from plugin) (slPlaneNbg1)
/joengine/Compiler/COMMON/SGL_302j/LIB_ELF/LIBSGL.A(sglB057.o)
                              /work/jo_engine/vdp2.o (symbol from plugin) (slPlaneNbg2)
/joengine/Compiler/COMMON/SGL_302j/LIB_ELF/LIBSGL.A(sglB058.o)
                              /work/jo_engine/vdp2.o (symbol from plugin) (slPlaneNbg3)
/joengine/Compiler/COMMON/SGL_302j/LIB_ELF/LIBSGL.A(sglB059.o)
                              /work/jo_engine/vdp2.o (symbol from plugin) (slPlaneRA)
/joengine/Compiler/COMMON/SGL_302j/LIB_ELF/LIBSGL.A(sglB060.o)
                              /work/jo_engine/vdp2.o (symbol from plugin) (slPlaneRB)
/joengine/Compiler/COMMON/SGL_302j/LIB_ELF/LIBSGL.A(sglB063.o)
                              /work/jo_engine/core.o (symbol from plugin) (slPriority)
/joengine/Compiler/COMMON/SGL_302j/LIB_ELF/LIBSGL.A(sglB087.o)
                              /work/jo_engine/vdp2.o (symbol from plugin) (slLineScrollTable0)
/joengine/Compiler/COMMON/SGL_302j/LIB_ELF/LIBSGL.A(sglB088.o)
                              /work/jo_engine/vdp2.o (symbol from plugin) (slLineScrollTable1)
/joengine/Compiler/COMMON/SGL_302j/LIB_ELF/LIBSGL.A(sglB090.o)
                              /work/jo_engine/vdp2.o (symbol from plugin) (slLineScrollMode)
/joengine/Compiler/COMMON/SGL_302j/LIB_ELF/LIBSGL.A(sglB200.o)
                              /work/jo_engine/vdp2.o (symbol from plugin) (slCharNbg0)
/joengine/Compiler/COMMON/SGL_302j/LIB_ELF/LIBSGL.A(sglC01.o)
                              main.o (symbol from plugin) (slPerspective)
/joengine/Compiler/COMMON/SGL_302j/LIB_ELF/LIBSGL.A(sglC03.o)
                              main.o (symbol from plugin) (slWindow)
/joengine/Compiler/COMMON/SGL_302j/LIB_ELF/LIBSGL.A(sglC04.o)
                              main.o (symbol from plugin) (slZdspLevel)
/joengine/Compiler/COMMON/SGL_302j/LIB_ELF/LIBSGL.A(sglC05.o)
                              /work/jo_engine/sprites.o (symbol from plugin) (slSetSprite)
/joengine/Compiler/COMMON/SGL_302j/LIB_ELF/LIBSGL.A(sglC06.o)
                              /work/jo_engine/sprites.o (symbol from plugin) (slDispSprite)
/joengine/Compiler/COMMON/SGL_302j/LIB_ELF/LIBSGL.A(sglC07.o)
                              main.o (symbol from plugin) (slPutSprite)
/joengine/Compiler/COMMON/SGL_302j/LIB_ELF/LIBSGL.A(sglC08.o)
                              main.o (symbol from plugin) (slPutPolygon)
/joengine/Compiler/COMMON/SGL_302j/LIB_ELF/LIBSGL.A(sglC14.o)
                              main.o (symbol from plugin) (slCurWindow)
/joengine/Compiler/COMMON/SGL_302j/LIB_ELF/LIBSGL.A(sglC16.o)
                              main.o (symbol from plugin) (slDynamicFrame)
/joengine/Compiler/COMMON/SGL_302j/LIB_ELF/LIBSGL.A(sglC17.o)
                              /work/jo_engine/sprites.o (symbol from plugin) (slDispSpriteHV)
/joengine/Compiler/COMMON/SGL_302j/LIB_ELF/LIBSGL.A(sglC19.o)
                              /work/jo_engine/sprites.o (symbol from plugin) (slDispSprite4P)
/joengine/Compiler/COMMON/SGL_302j/LIB_ELF/LIBSGL.A(sglC20.o)
                              /joengine/Compiler/COMMON/SGL_302j/LIB_ELF/LIBSGL.A(sglC05.o) (SpriteEntry)
/joengine/Compiler/COMMON/SGL_302j/LIB_ELF/LIBSGL.A(sglC21.o)
                              /joengine/Compiler/COMMON/SGL_302j/LIB_ELF/LIBSGL.A(sglC17.o) (RotSprite)
/joengine/Compiler/COMMON/SGL_302j/LIB_ELF/LIBSGL.A(sglD00.o)
                              main.o (symbol from plugin) (slDMACopy)
/joengine/Compiler/COMMON/SGL_302j/LIB_ELF/LIBSGL.A(sglD01.o)
                              /joengine/Compiler/COMMON/SGL_302j/LIB_ELF/LIBCD.A(GFS_TRN.O) (slDMAXCopy)
/joengine/Compiler/COMMON/SGL_302j/LIB_ELF/LIBSGL.A(sglD02.o)
                              pcmsys.o (symbol from plugin) (slDMAWait)
/joengine/Compiler/COMMON/SGL_302j/LIB_ELF/LIBSGL.A(sglD03.o)
                              /joengine/Compiler/COMMON/SGL_302j/LIB_ELF/LIBCD.A(GFS_TRN.O) (slDMAStatus)
/joengine/Compiler/COMMON/SGL_302j/LIB_ELF/LIBSGL.A(sglD15.o)
                              /joengine/Compiler/COMMON/SGL_302j/LIB_ELF/LIBCD.A(GFS_TRN.O) (CSH_Purge)
/joengine/Compiler/COMMON/SGL_302j/LIB_ELF/LIBSGL.A(sglD16.o)
                              /joengine/Compiler/COMMON/SGL_302j/LIB_ELF/LIBCD.A(GFS_TRN.O) (DMA_ScuSetPrm)
/joengine/Compiler/COMMON/SGL_302j/LIB_ELF/LIBSGL.A(sglD17.o)
                              /joengine/Compiler/COMMON/SGL_302j/LIB_ELF/LIBCD.A(GFS_TRN.O) (DMA_ScuStart)
/joengine/Compiler/COMMON/SGL_302j/LIB_ELF/LIBSGL.A(sglD18.o)
                              /joengine/Compiler/COMMON/SGL_302j/LIB_ELF/LIBCD.A(GFS_TRN.O) (DMA_ScuGetStatus)
/joengine/Compiler/COMMON/SGL_302j/LIB_ELF/LIBSGL.A(sglF08.o)
                              main.o (symbol from plugin) (slDec2Hex)
/joengine/Compiler/COMMON/SGL_302j/LIB_ELF/LIBSGL.A(sglH00.o)
                              main.o (symbol from plugin) (slRequestCommand)
/joengine/Compiler/COMMON/SGL_302j/LIB_ELF/LIBSGL.A(sglH01.o)
                              /work/jo_engine/tools.o (symbol from plugin) (slGetLanguage)
/joengine/Compiler/COMMON/SGL_302j/LIB_ELF/LIBSGL.A(sglH02.o)
                              /joengine/Compiler/COMMON/SGL_302j/LIB_ELF/LIBSGL.A(sglH00.o) (smpc_pfr_tbl)
/joengine/Compiler/COMMON/SGL_302j/LIB_ELF/LIBSGL.A(sglH04.o)
                              /joengine/Compiler/COMMON/SGL_302j/LIB_ELF/LIBSGL.A(sglH00.o) (slComPrmIntBack)
/joengine/Compiler/COMMON/SGL_302j/LIB_ELF/LIBSGL.A(sglI01.o)
                              main.o (symbol from plugin) (slSynch)
/joengine/Compiler/COMMON/SGL_302j/LIB_ELF/LIBSGL.A(sglI04.o)
                              main.o (symbol from plugin) (slIntFunction)
/joengine/Compiler/COMMON/SGL_302j/LIB_ELF/LIBSGL.A(sglIc0.o)
                              /work/jo_engine/core.o (symbol from plugin) (slInitSystem)
/joengine/Compiler/COMMON/SGL_302j/LIB_ELF/LIBSGL.A(sglJ00.o)
                              /joengine/Compiler/COMMON/SGL_302j/LIB_ELF/LIBSGL.A(sglIc0.o) (InitSlaveSH)
/joengine/Compiler/COMMON/SGL_302j/LIB_ELF/LIBSGL.A(sglJ01.o)
                              /joengine/Compiler/COMMON/SGL_302j/LIB_ELF/LIBSGL.A(sglIc0.o) (SlaveControl)
/joengine/Compiler/COMMON/SGL_302j/LIB_ELF/LIBSGL.A(sglJ02.o)
                              /joengine/Compiler/COMMON/SGL_302j/LIB_ELF/LIBSGL.A(sglJ01.o) (sbMakePolygon)
/joengine/Compiler/COMMON/SGL_302j/LIB_ELF/LIBSGL.A(sglJ03.o)
                              /joengine/Compiler/COMMON/SGL_302j/LIB_ELF/LIBSGL.A(sglJ01.o) (sbMakeDMATable)
/joengine/Compiler/COMMON/SGL_302j/LIB_ELF/LIBSGL.A(sglJ04.o)
                              /joengine/Compiler/COMMON/SGL_302j/LIB_ELF/LIBSGL.A(sglJ01.o) (sbMakeSprite)
/joengine/Compiler/COMMON/SGL_302j/LIB_ELF/LIBSGL.A(sglJ05.o)
                              /joengine/Compiler/COMMON/SGL_302j/LIB_ELF/LIBSGL.A(sglJ01.o) (sbSortEntry)
/joengine/Compiler/COMMON/SGL_302j/LIB_ELF/LIBSGL.A(sglK01.o)
                              main.o (symbol from plugin) (SynchConst)
/joengine/Compiler/COMMON/SGL_302j/LIB_ELF/LIBSGL.A(sglM00.o)
                              main.o (symbol from plugin) (slInitGouraud)
/joengine/Compiler/COMMON/SGL_302j/LIB_ELF/LIBSGL.A(sglM01.o)
                              main.o (symbol from plugin) (slSetDepthLimit)
/joengine/Compiler/COMMON/SGL_302j/LIB_ELF/LIBSGL.A(sglA00.o)
                              /joengine/Compiler/COMMON/SGL_302j/LIB_ELF/LIBSGL.A(sglIc0.o) (_builtin_set_imask)
/joengine/Compiler/COMMON/SGL_302j/LIB_ELF/LIBSGL.A(sglA03.o)
                              /joengine/Compiler/COMMON/SGL_302j/LIB_ELF/LIBSGL.A(sglC01.o) (slTan)
/joengine/Compiler/COMMON/SGL_302j/LIB_ELF/LIBSGL.A(sglA10.o)
                              /joengine/Compiler/COMMON/SGL_302j/LIB_ELF/LIBSGL.A(sglA16.o) (slSquartDbl)
/joengine/Compiler/COMMON/SGL_302j/LIB_ELF/LIBSGL.A(sglA24.o)
                              /joengine/Compiler/COMMON/SGL_302j/LIB_ELF/LIBSGL.A(sglB045.o) (slInversMatrix)
/joengine/Compiler/COMMON/SGL_302j/LIB_ELF/LIBSGL.A(sglA25.o)
                              /joengine/Compiler/COMMON/SGL_302j/LIB_ELF/LIBSGL.A(sglM00.o) (slTransposeMatrix)
/joengine/Compiler/COMMON/SGL_302j/LIB_ELF/LIBSGL.A(sglB000.o)
                              /joengine/Compiler/COMMON/SGL_302j/LIB_ELF/LIBSGL.A(sglIc0.o) (slInitScroll)
/joengine/Compiler/COMMON/SGL_302j/LIB_ELF/LIBSGL.A(sglC00.o)
                              /joengine/Compiler/COMMON/SGL_302j/LIB_ELF/LIBSGL.A(sglIc0.o) (slInitSprite)
/joengine/Compiler/COMMON/SGL_302j/LIB_ELF/LIBSGL.A(sglC13.o)
                              /joengine/Compiler/COMMON/SGL_302j/LIB_ELF/LIBSGL.A(sglM00.o) (slPutPolygonS)
/joengine/Compiler/COMMON/SGL_302j/LIB_ELF/LIBSGL.A(sglD19.o)
                              /joengine/Compiler/COMMON/SGL_302j/LIB_ELF/LIBSGL.A(sglM00.o) (DMA_ScuMemCopy)
/joengine/Compiler/COMMON/SGL_302j/LIB_ELF/LIBSGL.A(sglI00.o)
                              /joengine/Compiler/COMMON/SGL_302j/LIB_ELF/LIBSGL.A(sglIc0.o) (slInitInterrupt)
/joengine/Compiler/COMMON/SGL_302j/LIB_ELF/LIBSGL.A(sglH03.o)
                              /joengine/Compiler/COMMON/SGL_302j/LIB_ELF/LIBSGL.A(sglI00.o) (slSmpcIntBack)
/joengine/Compiler/LINUX/bin/../lib/gcc/sh-none-elf/8.2.0/libgcc.a(_ashiftrt.o)
                              /joengine/Compiler/COMMON/SGL_302j/LIB_ELF/LIBCD.A(GFS.O) (__ashiftrt_r4_11)
/joengine/Compiler/LINUX/bin/../lib/gcc/sh-none-elf/8.2.0/libgcc.a(_sdivsi3.o)
                              /joengine/Compiler/COMMON/SGL_302j/LIB_ELF/LIBCD.A(GFS.O) (__sdivsi3)
/joengine/Compiler/LINUX/bin/../lib/gcc/sh-none-elf/8.2.0/libgcc.a(_udivsi3.o)
                              /joengine/Compiler/COMMON/SGL_302j/LIB_ELF/LIBCD.A(GFS.O) (__udivsi3)
/joengine/Compiler/LINUX/bin/../lib/gcc/sh-none-elf/8.2.0/../../../../sh-none-elf/lib/libc.a(lib_a-impure.o)
                              net/mmm_net.o (symbol from plugin) (_impure_ptr)
/joengine/Compiler/LINUX/bin/../lib/gcc/sh-none-elf/8.2.0/../../../../sh-none-elf/lib/libc.a(lib_a-memcmp.o)
                              /joengine/Compiler/COMMON/SGL_302j/LIB_ELF/LIBCD.A(GFS.O) (memcmp)
/joengine/Compiler/LINUX/bin/../lib/gcc/sh-none-elf/8.2.0/../../../../sh-none-elf/lib/libc.a(lib_a-memcpy.o)
                              /joengine/Compiler/COMMON/SGL_302j/LIB_ELF/LIBCD.A(GFS_DIR.O) (memcpy)
/joengine/Compiler/LINUX/bin/../lib/gcc/sh-none-elf/8.2.0/../../../../sh-none-elf/lib/libc.a(lib_a-memset.o)
                              /joengine/Compiler/COMMON/SGL_302j/LIB_ELF/LIBCD.A(GFS_DIR.O) (memset)
/joengine/Compiler/LINUX/bin/../lib/gcc/sh-none-elf/8.2.0/../../../../sh-none-elf/lib/libc.a(lib_a-rand.o)
                              main.o (symbol from plugin) (srand)
/joengine/Compiler/LINUX/bin/../lib/gcc/sh-none-elf/8.2.0/../../../../sh-none-elf/lib/libc.a(lib_a-rget.o)
                              net/mmm_net.o (symbol from plugin) (__srget_r)
/joengine/Compiler/LINUX/bin/../lib/gcc/sh-none-elf/8.2.0/../../../../sh-none-elf/lib/libc.a(lib_a-sprintf.o)
                              main.o (symbol from plugin) (sprintf)
/joengine/Compiler/LINUX/bin/../lib/gcc/sh-none-elf/8.2.0/../../../../sh-none-elf/lib/libc.a(lib_a-strcat.o)
                              main.o (symbol from plugin) (strcat)
/joengine/Compiler/LINUX/bin/../lib/gcc/sh-none-elf/8.2.0/../../../../sh-none-elf/lib/libc.a(lib_a-strcmp.o)
                              main.o (symbol from plugin) (strcmp)
/joengine/Compiler/LINUX/bin/../lib/gcc/sh-none-elf/8.2.0/../../../../sh-none-elf/lib/libc.a(lib_a-strcpy.o)
                              main.o (symbol from plugin) (strcpy)
/joengine/Compiler/LINUX/bin/../lib/gcc/sh-none-elf/8.2.0/../../../../sh-none-elf/lib/libc.a(lib_a-strlen.o)
                              main.o (symbol from plugin) (strlen)
/joengine/Compiler/LINUX/bin/../lib/gcc/sh-none-elf/8.2.0/../../../../sh-none-elf/lib/libc.a(lib_a-strncmp.o)
                              /joengine/Compiler/COMMON/SGL_302j/LIB_ELF/LIBCD.A(GFS_DIR.O) (strncmp)
/joengine/Compiler/LINUX/bin/../lib/gcc/sh-none-elf/8.2.0/../../../../sh-none-elf/lib/libc.a(lib_a-strncpy.o)
                              /joengine/Compiler/COMMON/SGL_302j/LIB_ELF/LIBCD.A(GFS_DIR.O) (strncpy)
/joengine/Compiler/LINUX/bin/../lib/gcc/sh-none-elf/8.2.0/../../../../sh-none-elf/lib/libc.a(lib_a-strstr.o)
                              main.o (symbol from plugin) (strstr)
/joengine/Compiler/LINUX/bin/../lib/gcc/sh-none-elf/8.2.0/../../../../sh-none-elf/lib/libc.a(lib_a-svfprintf.o)
                              /joengine/Compiler/LINUX/bin/../lib/gcc/sh-none-elf/8.2.0/../../../../sh-none-elf/lib/libc.a(lib_a-sprintf.o) (_svfprintf_r)
/joengine/Compiler/LINUX/bin/../lib/gcc/sh-none-elf/8.2.0/../../../../sh-none-elf/lib/libc.a(lib_a-wbuf.o)
                              net/mmm_net.o (symbol from plugin) (__swbuf_r)
/joengine/Compiler/LINUX/bin/../lib/gcc/sh-none-elf/8.2.0/../../../../sh-none-elf/lib/libc.a(lib_a-wsetup.o)
                              /joengine/Compiler/LINUX/bin/../lib/gcc/sh-none-elf/8.2.0/../../../../sh-none-elf/lib/libc.a(lib_a-wbuf.o) (__swsetup_r)
/joengine/Compiler/LINUX/bin/../lib/gcc/sh-none-elf/8.2.0/../../../../sh-none-elf/lib/libc.a(lib_a-dtoa.o)
                              /joengine/Compiler/LINUX/bin/../lib/gcc/sh-none-elf/8.2.0/../../../../sh-none-elf/lib/libc.a(lib_a-svfprintf.o) (_dtoa_r)
/joengine/Compiler/LINUX/bin/../lib/gcc/sh-none-elf/8.2.0/../../../../sh-none-elf/lib/libc.a(lib_a-fflush.o)
                              /joengine/Compiler/LINUX/bin/../lib/gcc/sh-none-elf/8.2.0/../../../../sh-none-elf/lib/libc.a(lib_a-wbuf.o) (_fflush_r)
/joengine/Compiler/LINUX/bin/../lib/gcc/sh-none-elf/8.2.0/../../../../sh-none-elf/lib/libc.a(lib_a-findfp.o)
                              /joengine/Compiler/LINUX/bin/../lib/gcc/sh-none-elf/8.2.0/../../../../sh-none-elf/lib/libc.a(lib_a-rget.o) (__sinit)
/joengine/Compiler/LINUX/bin/../lib/gcc/sh-none-elf/8.2.0/../../../../sh-none-elf/lib/libc.a(lib_a-fwalk.o)
                              /joengine/Compiler/LINUX/bin/../lib/gcc/sh-none-elf/8.2.0/../../../../sh-none-elf/lib/libc.a(lib_a-findfp.o) (_fwalk)
/joengine/Compiler/LINUX/bin/../lib/gcc/sh-none-elf/8.2.0/../../../../sh-none-elf/lib/libc.a(lib_a-localeconv.o)
                              /joengine/Compiler/LINUX/bin/../lib/gcc/sh-none-elf/8.2.0/../../../../sh-none-elf/lib/libc.a(lib_a-svfprintf.o) (_localeconv_r)
/joengine/Compiler/LINUX/bin/../lib/gcc/sh-none-elf/8.2.0/../../../../sh-none-elf/lib/libc.a(lib_a-locale.o)
                              /joengine/Compiler/LINUX/bin/../lib/gcc/sh-none-elf/8.2.0/../../../../sh-none-elf/lib/libc.a(lib_a-localeconv.o) (__global_locale)
/joengine/Compiler/LINUX/bin/../lib/gcc/sh-none-elf/8.2.0/../../../../sh-none-elf/lib/libc.a(lib_a-makebuf.o)
                              /joengine/Compiler/LINUX/bin/../lib/gcc/sh-none-elf/8.2.0/../../../../sh-none-elf/lib/libc.a(lib_a-wsetup.o) (__smakebuf_r)
/joengine/Compiler/LINUX/bin/../lib/gcc/sh-none-elf/8.2.0/../../../../sh-none-elf/lib/libc.a(lib_a-mbtowc_r.o)
                              /joengine/Compiler/LINUX/bin/../lib/gcc/sh-none-elf/8.2.0/../../../../sh-none-elf/lib/libc.a(lib_a-locale.o) (__ascii_mbtowc)
/joengine/Compiler/LINUX/bin/../lib/gcc/sh-none-elf/8.2.0/../../../../sh-none-elf/lib/libc.a(lib_a-memchr.o)
                              /joengine/Compiler/LINUX/bin/../lib/gcc/sh-none-elf/8.2.0/../../../../sh-none-elf/lib/libc.a(lib_a-svfprintf.o) (memchr)
/joengine/Compiler/LINUX/bin/../lib/gcc/sh-none-elf/8.2.0/../../../../sh-none-elf/lib/libc.a(lib_a-mprec.o)
                              /joengine/Compiler/LINUX/bin/../lib/gcc/sh-none-elf/8.2.0/../../../../sh-none-elf/lib/libc.a(lib_a-dtoa.o) (_Balloc)
/joengine/Compiler/LINUX/bin/../lib/gcc/sh-none-elf/8.2.0/../../../../sh-none-elf/lib/libc.a(lib_a-refill.o)
                              /joengine/Compiler/LINUX/bin/../lib/gcc/sh-none-elf/8.2.0/../../../../sh-none-elf/lib/libc.a(lib_a-rget.o) (__srefill_r)
/joengine/Compiler/LINUX/bin/../lib/gcc/sh-none-elf/8.2.0/../../../../sh-none-elf/lib/libc.a(lib_a-stdio.o)
                              /joengine/Compiler/LINUX/bin/../lib/gcc/sh-none-elf/8.2.0/../../../../sh-none-elf/lib/libc.a(lib_a-findfp.o) (__sread)
/joengine/Compiler/LINUX/bin/../lib/gcc/sh-none-elf/8.2.0/../../../../sh-none-elf/lib/libc.a(lib_a-svfiprintf.o)
                              /joengine/Compiler/LINUX/bin/../lib/gcc/sh-none-elf/8.2.0/../../../../sh-none-elf/lib/libc.a(lib_a-svfprintf.o) (__ssprint_r)
/joengine/Compiler/LINUX/bin/../lib/gcc/sh-none-elf/8.2.0/../../../../sh-none-elf/lib/libc.a(lib_a-wctomb_r.o)
                              /joengine/Compiler/LINUX/bin/../lib/gcc/sh-none-elf/8.2.0/../../../../sh-none-elf/lib/libc.a(lib_a-locale.o) (__ascii_wctomb)
/joengine/Compiler/LINUX/bin/../lib/gcc/sh-none-elf/8.2.0/../../../../sh-none-elf/lib/libc.a(lib_a-writer.o)
                              /joengine/Compiler/LINUX/bin/../lib/gcc/sh-none-elf/8.2.0/../../../../sh-none-elf/lib/libc.a(lib_a-stdio.o) (_write_r)
/joengine/Compiler/LINUX/bin/../lib/gcc/sh-none-elf/8.2.0/../../../../sh-none-elf/lib/libc.a(lib_a-closer.o)
                              /joengine/Compiler/LINUX/bin/../lib/gcc/sh-none-elf/8.2.0/../../../../sh-none-elf/lib/libc.a(lib_a-stdio.o) (_close_r)
/joengine/Compiler/LINUX/bin/../lib/gcc/sh-none-elf/8.2.0/../../../../sh-none-elf/lib/libc.a(lib_a-ctype_.o)
                              /joengine/Compiler/LINUX/bin/../lib/gcc/sh-none-elf/8.2.0/../../../../sh-none-elf/lib/libc.a(lib_a-locale.o) (_ctype_b)
/joengine/Compiler/LINUX/bin/../lib/gcc/sh-none-elf/8.2.0/../../../../sh-none-elf/lib/libc.a(lib_a-fclose.o)
                              /joengine/Compiler/LINUX/bin/../lib/gcc/sh-none-elf/8.2.0/../../../../sh-none-elf/lib/libc.a(lib_a-findfp.o) (_fclose_r)
/joengine/Compiler/LINUX/bin/../lib/gcc/sh-none-elf/8.2.0/../../../../sh-none-elf/lib/libc.a(lib_a-fstatr.o)
                              /joengine/Compiler/LINUX/bin/../lib/gcc/sh-none-elf/8.2.0/../../../../sh-none-elf/lib/libc.a(lib_a-makebuf.o) (_fstat_r)
/joengine/Compiler/LINUX/bin/../lib/gcc/sh-none-elf/8.2.0/../../../../sh-none-elf/lib/libc.a(lib_a-isattyr.o)
                              /joengine/Compiler/LINUX/bin/../lib/gcc/sh-none-elf/8.2.0/../../../../sh-none-elf/lib/libc.a(lib_a-makebuf.o) (_isatty_r)
/joengine/Compiler/LINUX/bin/../lib/gcc/sh-none-elf/8.2.0/../../../../sh-none-elf/lib/libc.a(lib_a-lseekr.o)
                              /joengine/Compiler/LINUX/bin/../lib/gcc/sh-none-elf/8.2.0/../../../../sh-none-elf/lib/libc.a(lib_a-stdio.o) (_lseek_r)
/joengine/Compiler/LINUX/bin/../lib/gcc/sh-none-elf/8.2.0/../../../../sh-none-elf/lib/libc.a(lib_a-memmove.o)
                              /joengine/Compiler/LINUX/bin/../lib/gcc/sh-none-elf/8.2.0/../../../../sh-none-elf/lib/libc.a(lib_a-svfiprintf.o) (memmove)
/joengine/Compiler/LINUX/bin/../lib/gcc/sh-none-elf/8.2.0/../../../../sh-none-elf/lib/libc.a(lib_a-readr.o)
                              /joengine/Compiler/LINUX/bin/../lib/gcc/sh-none-elf/8.2.0/../../../../sh-none-elf/lib/libc.a(lib_a-stdio.o) (_read_r)
/joengine/Compiler/LINUX/bin/../lib/gcc/sh-none-elf/8.2.0/../../../../sh-none-elf/lib/libc.a(lib_a-reent.o)
                              /joengine/Compiler/LINUX/bin/../lib/gcc/sh-none-elf/8.2.0/../../../../sh-none-elf/lib/libc.a(lib_a-writer.o) (errno)
/joengine/Compiler/LINUX/bin/../lib/gcc/sh-none-elf/8.2.0/libgcc.a(_ashiftrt_n.o)
                              /joengine/Compiler/LINUX/bin/../lib/gcc/sh-none-elf/8.2.0/../../../../sh-none-elf/lib/libc.a(lib_a-mprec.o) (__ashrsi3)
/joengine/Compiler/LINUX/bin/../lib/gcc/sh-none-elf/8.2.0/libgcc.a(_ashiftlt.o)
                              /joengine/Compiler/LINUX/bin/../lib/gcc/sh-none-elf/8.2.0/../../../../sh-none-elf/lib/libc.a(lib_a-dtoa.o) (__ashlsi3_r0)
/joengine/Compiler/LINUX/bin/../lib/gcc/sh-none-elf/8.2.0/libgcc.a(_lshiftrt.o)
                              /joengine/Compiler/LINUX/bin/../lib/gcc/sh-none-elf/8.2.0/../../../../sh-none-elf/lib/libc.a(lib_a-dtoa.o) (__lshrsi3_r0)
/joengine/Compiler/LINUX/bin/../lib/gcc/sh-none-elf/8.2.0/libgcc.a(_udivdi3.o)
                              /joengine/Compiler/LINUX/bin/../lib/gcc/sh-none-elf/8.2.0/../../../../sh-none-elf/lib/libc.a(lib_a-svfprintf.o) (__udivdi3)
/joengine/Compiler/LINUX/bin/../lib/gcc/sh-none-elf/8.2.0/libgcc.a(_umoddi3.o)
                              /joengine/Compiler/LINUX/bin/../lib/gcc/sh-none-elf/8.2.0/../../../../sh-none-elf/lib/libc.a(lib_a-svfprintf.o) (__umoddi3)
/joengine/Compiler/LINUX/bin/../lib/gcc/sh-none-elf/8.2.0/libgcc.a(_addsub_df.o)
                              /joengine/Compiler/LINUX/bin/../lib/gcc/sh-none-elf/8.2.0/../../../../sh-none-elf/lib/libc.a(lib_a-dtoa.o) (__adddf3)
/joengine/Compiler/LINUX/bin/../lib/gcc/sh-none-elf/8.2.0/libgcc.a(_mul_df.o)
                              /joengine/Compiler/LINUX/bin/../lib/gcc/sh-none-elf/8.2.0/../../../../sh-none-elf/lib/libc.a(lib_a-dtoa.o) (__muldf3)
/joengine/Compiler/LINUX/bin/../lib/gcc/sh-none-elf/8.2.0/libgcc.a(_div_df.o)
                              /joengine/Compiler/LINUX/bin/../lib/gcc/sh-none-elf/8.2.0/../../../../sh-none-elf/lib/libc.a(lib_a-dtoa.o) (__divdf3)
/joengine/Compiler/LINUX/bin/../lib/gcc/sh-none-elf/8.2.0/libgcc.a(_eq_df.o)
                              /joengine/Compiler/LINUX/bin/../lib/gcc/sh-none-elf/8.2.0/../../../../sh-none-elf/lib/libc.a(lib_a-svfprintf.o) (__eqdf2)
/joengine/Compiler/LINUX/bin/../lib/gcc/sh-none-elf/8.2.0/libgcc.a(_ne_df.o)
                              /joengine/Compiler/LINUX/bin/../lib/gcc/sh-none-elf/8.2.0/../../../../sh-none-elf/lib/libc.a(lib_a-svfprintf.o) (__nedf2)
/joengine/Compiler/LINUX/bin/../lib/gcc/sh-none-elf/8.2.0/libgcc.a(_gt_df.o)
                              /joengine/Compiler/LINUX/bin/../lib/gcc/sh-none-elf/8.2.0/../../../../sh-none-elf/lib/libc.a(lib_a-dtoa.o) (__gtdf2)
/joengine/Compiler/LINUX/bin/../lib/gcc/sh-none-elf/8.2.0/libgcc.a(_ge_df.o)
                              /joengine/Compiler/LINUX/bin/../lib/gcc/sh-none-elf/8.2.0/../../../../sh-none-elf/lib/libc.a(lib_a-dtoa.o) (__gedf2)
/joengine/Compiler/LINUX/bin/../lib/gcc/sh-none-elf/8.2.0/libgcc.a(_lt_df.o)
                              /joengine/Compiler/LINUX/bin/../lib/gcc/sh-none-elf/8.2.0/../../../../sh-none-elf/lib/libc.a(lib_a-svfprintf.o) (__ltdf2)
/joengine/Compiler/LINUX/bin/../lib/gcc/sh-none-elf/8.2.0/libgcc.a(_le_df.o)
                              /joengine/Compiler/LINUX/bin/../lib/gcc/sh-none-elf/8.2.0/../../../../sh-none-elf/lib/libc.a(lib_a-svfprintf.o) (__ledf2)
/joengine/Compiler/LINUX/bin/../lib/gcc/sh-none-elf/8.2.0/libgcc.a(_unord_df.o)
                              /joengine/Compiler/LINUX/bin/../lib/gcc/sh-none-elf/8.2.0/../../../../sh-none-elf/lib/libc.a(lib_a-svfprintf.o) (__unorddf2)
/joengine/Compiler/LINUX/bin/../lib/gcc/sh-none-elf/8.2.0/libgcc.a(_si_to_df.o)
                              /joengine/Compiler/LINUX/bin/../lib/gcc/sh-none-elf/8.2.0/../../../../sh-none-elf/lib/libc.a(lib_a-dtoa.o) (__floatsidf)
/joengine/Compiler/LINUX/bin/../lib/gcc/sh-none-elf/8.2.0/libgcc.a(_df_to_si.o)
                              /joengine/Compiler/LINUX/bin/../lib/gcc/sh-none-elf/8.2.0/../../../../sh-none-elf/lib/libc.a(lib_a-dtoa.o) (__fixdfsi)
/joengine/Compiler/LINUX/bin/../lib/gcc/sh-none-elf/8.2.0/libgcc.a(_thenan_df.o)
                              /joengine/Compiler/LINUX/bin/../lib/gcc/sh-none-elf/8.2.0/libgcc.a(_addsub_df.o) (__thenan_df)
/joengine/Compiler/LINUX/bin/../lib/gcc/sh-none-elf/8.2.0/libgcc.a(_usi_to_df.o)
                              /joengine/Compiler/LINUX/bin/../lib/gcc/sh-none-elf/8.2.0/../../../../sh-none-elf/lib/libc.a(lib_a-dtoa.o) (__floatunsidf)
/joengine/Compiler/LINUX/bin/../lib/gcc/sh-none-elf/8.2.0/libgcc.a(_udiv_qrnnd_16.o)
                              /joengine/Compiler/LINUX/bin/../lib/gcc/sh-none-elf/8.2.0/libgcc.a(_udivdi3.o) (__udiv_qrnnd_16)
/joengine/Compiler/LINUX/bin/../lib/gcc/sh-none-elf/8.2.0/libgcc.a(_clz.o)
                              /joengine/Compiler/LINUX/bin/../lib/gcc/sh-none-elf/8.2.0/libgcc.a(_udivdi3.o) (__clz_tab)
/joengine/Compiler/LINUX/bin/../lib/gcc/sh-none-elf/8.2.0/libgcc.a(_clzsi2.o)
                              /joengine/Compiler/LINUX/bin/../lib/gcc/sh-none-elf/8.2.0/libgcc.a(_si_to_df.o) (__clzsi2)
/joengine/Compiler/LINUX/bin/../lib/gcc/sh-none-elf/8.2.0/libgcc.a(_pack_df.o)
                              /joengine/Compiler/LINUX/bin/../lib/gcc/sh-none-elf/8.2.0/libgcc.a(_addsub_df.o) (__pack_d)
/joengine/Compiler/LINUX/bin/../lib/gcc/sh-none-elf/8.2.0/libgcc.a(_unpack_df.o)
                              /joengine/Compiler/LINUX/bin/../lib/gcc/sh-none-elf/8.2.0/libgcc.a(_addsub_df.o) (__unpack_d)
/joengine/Compiler/LINUX/bin/../lib/gcc/sh-none-elf/8.2.0/libgcc.a(_fpcmp_parts_df.o)
                              /joengine/Compiler/LINUX/bin/../lib/gcc/sh-none-elf/8.2.0/libgcc.a(_eq_df.o) (__fpcmp_parts_d)
/joengine/Compiler/LINUX/bin/../lib/gcc/sh-none-elf/8.2.0/libgcc.a(_movmem.o)
                              /tmp/ccDKVNpG.ltrans1.ltrans.o (__movmemSI12)
/joengine/Compiler/LINUX/bin/../lib/gcc/sh-none-elf/8.2.0/libgcc.a(_addsub_sf.o)
                              /tmp/ccDKVNpG.ltrans0.ltrans.o (__addsf3)
/joengine/Compiler/LINUX/bin/../lib/gcc/sh-none-elf/8.2.0/libgcc.a(_mul_sf.o)
                              /tmp/ccDKVNpG.ltrans0.ltrans.o (__mulsf3)
/joengine/Compiler/LINUX/bin/../lib/gcc/sh-none-elf/8.2.0/libgcc.a(_div_sf.o)
                              /tmp/ccDKVNpG.ltrans0.ltrans.o (__divsf3)
/joengine/Compiler/LINUX/bin/../lib/gcc/sh-none-elf/8.2.0/libgcc.a(_eq_sf.o)
                              /tmp/ccDKVNpG.ltrans1.ltrans.o (__eqsf2)
/joengine/Compiler/LINUX/bin/../lib/gcc/sh-none-elf/8.2.0/libgcc.a(_ne_sf.o)
                              /tmp/ccDKVNpG.ltrans0.ltrans.o (__nesf2)
/joengine/Compiler/LINUX/bin/../lib/gcc/sh-none-elf/8.2.0/libgcc.a(_gt_sf.o)
                              /tmp/ccDKVNpG.ltrans0.ltrans.o (__gtsf2)
/joengine/Compiler/LINUX/bin/../lib/gcc/sh-none-elf/8.2.0/libgcc.a(_ge_sf.o)
                              /tmp/ccDKVNpG.ltrans0.ltrans.o (__gesf2)
/joengine/Compiler/LINUX/bin/../lib/gcc/sh-none-elf/8.2.0/libgcc.a(_lt_sf.o)
                              /tmp/ccDKVNpG.ltrans0.ltrans.o (__ltsf2)
/joengine/Compiler/LINUX/bin/../lib/gcc/sh-none-elf/8.2.0/libgcc.a(_le_sf.o)
                              /tmp/ccDKVNpG.ltrans0.ltrans.o (__lesf2)
/joengine/Compiler/LINUX/bin/../lib/gcc/sh-none-elf/8.2.0/libgcc.a(_si_to_sf.o)
                              /tmp/ccDKVNpG.ltrans0.ltrans.o (__floatsisf)
/joengine/Compiler/LINUX/bin/../lib/gcc/sh-none-elf/8.2.0/libgcc.a(_sf_to_si.o)
                              /tmp/ccDKVNpG.ltrans0.ltrans.o (__fixsfsi)
/joengine/Compiler/LINUX/bin/../lib/gcc/sh-none-elf/8.2.0/libgcc.a(_sf_to_df.o)
                              /tmp/ccDKVNpG.ltrans0.ltrans.o (__extendsfdf2)
/joengine/Compiler/LINUX/bin/../lib/gcc/sh-none-elf/8.2.0/libgcc.a(_thenan_sf.o)
                              /joengine/Compiler/LINUX/bin/../lib/gcc/sh-none-elf/8.2.0/libgcc.a(_addsub_sf.o) (__thenan_sf)
/joengine/Compiler/LINUX/bin/../lib/gcc/sh-none-elf/8.2.0/libgcc.a(_usi_to_sf.o)
                              /tmp/ccDKVNpG.ltrans0.ltrans.o (__floatunsisf)
/joengine/Compiler/LINUX/bin/../lib/gcc/sh-none-elf/8.2.0/libgcc.a(_make_df.o)
                              /joengine/Compiler/LINUX/bin/../lib/gcc/sh-none-elf/8.2.0/libgcc.a(_sf_to_df.o) (__make_dp)
/joengine/Compiler/LINUX/bin/../lib/gcc/sh-none-elf/8.2.0/libgcc.a(_df_to_sf.o)
                              /tmp/ccDKVNpG.ltrans0.ltrans.o (__truncdfsf2)
/joengine/Compiler/LINUX/bin/../lib/gcc/sh-none-elf/8.2.0/libgcc.a(_pack_sf.o)
                              /joengine/Compiler/LINUX/bin/../lib/gcc/sh-none-elf/8.2.0/libgcc.a(_addsub_sf.o) (__pack_f)
/joengine/Compiler/LINUX/bin/../lib/gcc/sh-none-elf/8.2.0/libgcc.a(_unpack_sf.o)
                              /joengine/Compiler/LINUX/bin/../lib/gcc/sh-none-elf/8.2.0/libgcc.a(_addsub_sf.o) (__unpack_f)
/joengine/Compiler/LINUX/bin/../lib/gcc/sh-none-elf/8.2.0/libgcc.a(_fpcmp_parts_sf.o)
                              /joengine/Compiler/LINUX/bin/../lib/gcc/sh-none-elf/8.2.0/libgcc.a(_eq_sf.o) (__fpcmp_parts_f)
/joengine/Compiler/LINUX/bin/../lib/gcc/sh-none-elf/8.2.0/libgcc.a(_make_sf.o)
                              /joengine/Compiler/LINUX/bin/../lib/gcc/sh-none-elf/8.2.0/libgcc.a(_df_to_sf.o) (__make_fp)

Allocating common symbols
Common symbol       size              file

GFMC_base           0x4               /joengine/Compiler/COMMON/SGL_302j/LIB_ELF/LIBCD.A(GFS.O)
gfs_mng_ptr         0x4               /joengine/Compiler/COMMON/SGL_302j/LIB_ELF/LIBCD.A(GFS.O)
gfcf_fad            0x4               /joengine/Compiler/COMMON/SGL_302j/LIB_ELF/LIBCD.A(GFS_CDF.O)
gfcd_fatal_err      0x4               /joengine/Compiler/COMMON/SGL_302j/LIB_ELF/LIBCD.A(GFS_CDC.O)
gfs_use_scudma      0x4               /joengine/Compiler/COMMON/SGL_302j/LIB_ELF/LIBCD.A(GFS.O)
errno               0x4               /joengine/Compiler/LINUX/bin/../lib/gcc/sh-none-elf/8.2.0/../../../../sh-none-elf/lib/libc.a(lib_a-reent.o)
gfcd_work           0x4               /joengine/Compiler/COMMON/SGL_302j/LIB_ELF/LIBCD.A(GFS_CDC.O)
gfcf_stat           0x4               /joengine/Compiler/COMMON/SGL_302j/LIB_ELF/LIBCD.A(GFS_CDF.O)
gfcd_playflag       0x4               /joengine/Compiler/COMMON/SGL_302j/LIB_ELF/LIBCD.A(GFS_CDC.O)

Memory Configuration

Name             Origin             Length             Attributes
*default*        0x0000000000000000 0xffffffffffffffff

Linker script and memory map


SLSTART         0x0000000006004000       0x30
                0x0000000006004000                ___Start = .
 *(SLSTART)
 SLSTART        0x0000000006004000       0x28 /joengine/Compiler/COMMON/SGL_302j/LIB_ELF/LIBSGL.A(sglI00.o)
                0x0000000006004000                SGL_Start
                0x0000000006004002                slStartSGL

.text           0x0000000006004040    0x203c0
 *(.text)
 .text          0x0000000006004040        0x0 /joengine/Compiler/COMMON/SGL_302j/LIB_ELF/SGLAREA.O
 .text          0x0000000006004040     0x9dd4 /tmp/ccDKVNpG.ltrans0.ltrans.o
                0x0000000006004858                jo_sprite_draw.constprop.53
                0x0000000006004964                jo_nbg2_print.constprop.38
                0x00000000060049c8                render_CLUT_sprite_MESH.constprop.37
                0x0000000006004a14                __jo_core_set_screens_order.constprop.36
                0x0000000006004acc                CDDAPlaySingle.constprop.31
                0x0000000006004b08                jo_vdp2_clear_bitmap_nbg1.constprop.23
                0x0000000006004b74                jo_vdp2_malloc
                0x0000000006004cb8                jo_vdp2_free
                0x0000000006004e04                jo_vdp2_disable_rbg0
                0x0000000006004e60                __jo_create_map.lto_priv.626
                0x0000000006004ec0                jo_img_to_vdp2_cells
                0x0000000006004f3a                jo_set_default_background_color
                0x00000000060051a6                jo_free
                0x0000000006005890                jo_sprite_free_from
                0x000000000600594c                load_textures.constprop.25
                0x0000000006006290                jo_random
                0x0000000006006308                jo_atan2f_rad
                0x00000000060064a4                jo_fixed_cos
                0x0000000006006500                jo_fixed_sin
                0x00000000060067f8                __jo_tga_any_loader
                0x0000000006006934                jo_sprite_add_tga.constprop.24
                0x0000000006006a10                _lseek
                0x0000000006006a14                _isatty
                0x0000000006006a18                _fstat
                0x0000000006006a1c                _close
                0x0000000006006a20                _write
                0x0000000006006a24                _read
                0x0000000006006a28                _realloc_r
                0x0000000006006a94                _calloc_r
                0x0000000006006ac4                _free_r
                0x0000000006006ad8                _malloc_r
                0x00000000060071f4                CDDAStop
                0x0000000006007210                pcm_cease
                0x0000000006007a9c                pcm_play
                0x0000000006007af8                has_object_collision
                0x0000000006007f08                mnet_client_log
                0x0000000006007f98                load_binary.constprop.29
                0x0000000006009e74                mnet_send_remove_local_player
 .text          0x000000000600de14     0x8a14 /tmp/ccDKVNpG.ltrans1.ltrans.o
                0x000000000600e148                my_vblank
                0x000000000600e154                set_palette
                0x000000000600e16c                change_player_palette
                0x000000000600e25c                load_trackmap
                0x000000000600e298                load_preview
                0x000000000600e2d4                load_level
                0x000000000600e3a4                load_car
                0x000000000600e51c                move_camera
                0x000000000600eb38                draw_map
                0x000000000600eca4                draw_powerups
                0x000000000600eda8                create_particles
                0x000000000600ee50                computeLight
                0x000000000600eec4                create_player
                0x000000000600f0b0                set_player_position
                0x000000000600f1b4                reset_to_last_checkpoint
                0x000000000600f2ac                reset_demo
                0x000000000600f490                getSeconds
                0x000000000600f510                init_1p_display
                0x000000000600f598                init_2p_display
                0x000000000600f628                render_CLUT_sprite
                0x000000000600f678                draw_player
                0x0000000006010348                ztClearText
                0x0000000006010388                menu
                0x00000000060104fc                clear_level
                0x0000000006010624                transition_to_title_screen
                0x00000000060107f0                draw_hud
                0x0000000006011268                mmm_get_p2_port
                0x000000000601147a                saturn_uart_detect.lto_priv.542
                0x00000000060114fa                saturn_uart_reg_write.lto_priv.544.lto_priv.591
                0x0000000006011514                saturn_uart_reg_read.lto_priv.546.lto_priv.592
                0x0000000006011530                saturn_transport_rx_byte.lto_priv.555
                0x000000000601153c                saturn_uart_read_iir.lto_priv.524.lto_priv.583
                0x0000000006011548                saturn_uart_read_msr.lto_priv.526.lto_priv.584
                0x0000000006011554                saturn_uart_read_lsr.lto_priv.528.lto_priv.585
                0x0000000006011560                saturn_uart_clear_errors.lto_priv.530.lto_priv.586
                0x0000000006011580                saturn_uart_rx_error.lto_priv.532.lto_priv.587
                0x0000000006011598                saturn_uart_rx_ready.lto_priv.534.lto_priv.588
                0x00000000060115ac                saturn_transport_rx_ready.lto_priv.554
                0x00000000060115b8                saturn_uart_flush_rx.lto_priv.512.lto_priv.576
                0x00000000060115ec                modem_flush_input.lto_priv.505.lto_priv.507
                0x00000000060115f8                saturn_uart_loopback_test.lto_priv.510.lto_priv.578
                0x0000000006011684                saturn_uart_read_raw.lto_priv.514.lto_priv.579
                0x0000000006011704                saturn_uart_getc_timeout.lto_priv.518.lto_priv.580
                0x000000000601173c                modem_read_line.lto_priv.508.lto_priv.574
                0x00000000060117a8                saturn_uart_getc.lto_priv.520.lto_priv.581
                0x00000000060117d0                saturn_uart_tx_ready.lto_priv.536.lto_priv.589
                0x00000000060117e8                saturn_uart_putc.lto_priv.522.lto_priv.582
                0x0000000006011834                saturn_transport_send.lto_priv.556
                0x0000000006011878                saturn_uart_puts.lto_priv.516.lto_priv.575
                0x00000000060119fc                modem_escape_to_command.lto_priv.503.lto_priv.573
                0x0000000006011a78                saturn_uart_set_baud.lto_priv.540.lto_priv.590
                0x0000000006011ad0                saturn_uart_init.lto_priv.538.lto_priv.577
                0x0000000006011be8                saturn_smpc_command.lto_priv.552.lto_priv.594
                0x0000000006011c10                saturn_netlink_smpc_disable.lto_priv.548.lto_priv.593
                0x0000000006011c1c                saturn_netlink_smpc_enable.lto_priv.550.lto_priv.559
                0x0000000006011c6c                mnet_encode_lap_complete.lto_priv.371.lto_priv.375
                0x0000000006011c92                mnet_encode_client_log.lto_priv.376.lto_priv.566
                0x0000000006011ce4                mnet_encode_leaderboard_req.lto_priv.380.lto_priv.384
                0x0000000006011cf4                mnet_encode_remove_local_player.lto_priv.385.lto_priv.389
                0x0000000006011d04                mnet_encode_add_local_player.lto_priv.390.lto_priv.565
                0x0000000006011d48                mnet_encode_powerup_pickup.lto_priv.394.lto_priv.398
                0x0000000006011d5c                mnet_encode_player_state_p2.lto_priv.399.lto_priv.567
                0x0000000006011df4                mnet_encode_player_state.lto_priv.403.lto_priv.568
                0x0000000006011e84                mnet_encode_input_state_p2.lto_priv.407.lto_priv.411
                0x0000000006011eae                mnet_encode_input_state.lto_priv.412.lto_priv.416
                0x0000000006011ed4                mnet_encode_car_select.lto_priv.417.lto_priv.421
                0x0000000006011ee8                mnet_encode_start_game.lto_priv.422.lto_priv.426
                0x0000000006011ef8                mnet_encode_ready.lto_priv.427.lto_priv.431
                0x0000000006011f08                mnet_encode_heartbeat.lto_priv.432.lto_priv.436
                0x0000000006011f18                mnet_encode_disconnect.lto_priv.437.lto_priv.441
                0x0000000006011f28                mnet_encode_set_username.lto_priv.442.lto_priv.563
                0x0000000006011f6c                mnet_encode_connect_uuid.lto_priv.446.lto_priv.562
                0x0000000006011f8a                mnet_encode_connect.lto_priv.450.lto_priv.454
                0x0000000006011f98                mnet_read_string.lto_priv.455.lto_priv.564
                0x0000000006011fe0                mnet_rx_init.lto_priv.463.lto_priv.467
                0x0000000006011fee                net_transport_is_connected.lto_priv.472.lto_priv.570
                0x0000000006012004                net_transport_send.lto_priv.476.lto_priv.560
                0x0000000006012016                my_gamepad
                0x0000000006013518                player_collision_handling
                0x0000000006015778                mnet_send_frame.lto_priv.468.lto_priv.569
                0x00000000060157b0                net_transport_rx_byte.lto_priv.480.lto_priv.571
                0x00000000060157c2                net_transport_rx_ready.lto_priv.484.lto_priv.572
                0x00000000060157d4                mnet_rx_poll.lto_priv.459.lto_priv.561
                0x000000000601586c                get_gbr.lto_priv.54.lto_priv.82
                0x0000000006015872                set_gbr.lto_priv.83.lto_priv.111
                0x0000000006015878                get_vbr.lto_priv.112.lto_priv.140
                0x000000000601587e                set_vbr.lto_priv.141.lto_priv.169
                0x0000000006015884                set_imask.lto_priv.170.lto_priv.557
                0x0000000006015898                get_imask.lto_priv.198.lto_priv.558
                0x00000000060158a2                get_sr.lto_priv.226.lto_priv.254
                0x00000000060158a8                set_sr.lto_priv.255.lto_priv.283
                0x00000000060158ae                tas.lto_priv.284.lto_priv.312
                0x00000000060158b6                sleep.lto_priv.313.lto_priv.341
                0x00000000060158bc                nop.lto_priv.342.lto_priv.370
                0x00000000060158c2                init_3d_planes
                0x0000000006015b5c                end_level
                0x0000000006016368                mmm_online_start_race
 *fill*         0x0000000006016828        0x8 
 .text          0x0000000006016830      0x238 /joengine/Compiler/COMMON/SGL_302j/LIB_ELF/SEGA_SYS.A(sys_exit.o)
                0x0000000006016830                sys_version
                0x0000000006016850                SYS_Exit
 *fill*         0x0000000006016a68        0x8 
 .text          0x0000000006016a70        0x6 /joengine/Compiler/COMMON/SGL_302j/LIB_ELF/SEGA_SYS.A(sys_sub.o)
                0x0000000006016a70                SYSUB_SetStackptr
 *fill*         0x0000000006016a76        0xa 
 .text          0x0000000006016a80      0x3a0 /joengine/Compiler/COMMON/SGL_302j/LIB_ELF/LIBCD.A(CDC_CMN.O)
                0x0000000006016a80                CDC_GetCurStat
                0x0000000006016ad0                CDC_GetLastStat
                0x0000000006016ae8                CDC_GetPeriStat
                0x0000000006016bbc                CDC_GetHwInfo
                0x0000000006016c24                CDC_TgetToc
                0x0000000006016c74                CDC_GetSes
                0x0000000006016cb0                CDC_CdInit
                0x0000000006016d34                CDC_CdOpen
                0x0000000006016d5c                CDC_DataReady
                0x0000000006016dc8                CDC_DataEnd
 .text          0x0000000006016e20      0x130 /joengine/Compiler/COMMON/SGL_302j/LIB_ELF/LIBCD.A(CDC_DRV.O)
                0x0000000006016e20                CDC_CdPlay
                0x0000000006016eec                CDC_CdSeek
                0x0000000006016f20                CDC_CdScan
 .text          0x0000000006016f50      0x194 /joengine/Compiler/COMMON/SGL_302j/LIB_ELF/LIBCD.A(CDC_CFS.O)
                0x0000000006016f50                CDC_ChgDir
                0x0000000006016f84                CDC_ReadDir
                0x0000000006016fb8                CDC_GetFileScope
                0x0000000006017018                CDC_TgetFileInfo
                0x0000000006017074                CDC_ReadFile
                0x00000000060170a8                CDC_AbortFile
 *fill*         0x00000000060170e4        0xc 
 .text          0x00000000060170f0      0x2dc /joengine/Compiler/COMMON/SGL_302j/LIB_ELF/LIBCD.A(CDC_REG.O)
                0x00000000060170f0                CDC_GetDataPtr
                0x0000000006017100                CDC_GetHirqReq
                0x0000000006017114                CDC_ClrHirqReq
                0x0000000006017144                CDREG_ClrHirqReq
                0x0000000006017154                CDREG_InitHirqReq
                0x000000000601717c                CDREG_SetHirqFlag
                0x0000000006017190                CDC_GetHirqMsk
                0x00000000060171a4                CDC_SetHirqMsk
                0x00000000060171b4                CDC_GetMpegPtr
                0x00000000060171c4                CDREG_TgetData
                0x0000000006017220                CDREG_CmdRsp
                0x0000000006017320                CDREG_WaitHirq
                0x0000000006017390                CDREG_ReadRsp
 *fill*         0x00000000060173cc        0x4 
 .text          0x00000000060173d0      0x152 /joengine/Compiler/COMMON/SGL_302j/LIB_ELF/LIBCD.A(CDC_SUB.O)
                0x00000000060173d0                CDSUB_UpdStatus
                0x00000000060173e8                CDSUB_UpdCdstat
                0x0000000006017408                CDSUB_CdCmd
                0x0000000006017478                CDSUB_GetCdstat
                0x00000000060174b8                CDSUB_RspToCdstat
                0x0000000006017500                CDSUB_SoftTimer
 *fill*         0x0000000006017522        0xe 
 .text          0x0000000006017530     0x1adc /joengine/Compiler/COMMON/SGL_302j/LIB_ELF/LIBCD.A(GFS.O)
                0x0000000006017530                gfs_version
                0x0000000006017550                GFS_Init
                0x0000000006017638                GFS_LoadDir
                0x00000000060176e0                GFS_SetDir
                0x0000000006017748                GFS_NameToId
                0x00000000060177ac                GFS_IdToName
                0x0000000006017818                GFS_GetDirInfo
                0x0000000006017888                GFS_Reset
                0x000000000601790c                GFS_Open
                0x00000000060179c0                GFS_Close
                0x00000000060179f8                GFS_Seek
                0x0000000006017aac                GFS_Tell
                0x0000000006017afc                GFS_IsEof
                0x0000000006017b50                GFS_ByteToSct
                0x0000000006017bac                GFS_GetFileSize
                0x0000000006017c08                GFS_GetFileInfo
                0x0000000006017c7c                GFS_GetNumCdbuf
                0x0000000006017ca4                GFS_Load
                0x0000000006017d68                GFS_Fread
                0x0000000006017e04                gfs_waitRead
                0x0000000006017eac                GFS_NwFread
                0x0000000006017fb8                GFS_NwCdRead
                0x0000000006018030                GFS_NwIsComplete
                0x0000000006018068                GFS_NwStop
                0x00000000060180d4                GFS_NwGetStat
                0x0000000006018150                gfs_recovRdErr
                0x0000000006018180                GFS_NwExecOne
                0x0000000006018240                GFS_NwExecServer
                0x00000000060182bc                GFS_SetGmode
                0x0000000006018320                GFS_SetTmode
                0x000000000601838c                GFS_SetReadPara
                0x00000000060183f0                GFS_SetTransPara
                0x000000000601845c                GFS_SetTrFunc
                0x00000000060184c0                GFS_StartTrans
                0x000000000601850c                GFS_CdMovePickup
                0x0000000006018578                GFS_SetErrFunc
                0x00000000060185a4                GFS_GetErrStat
                0x00000000060185c8                GFS_ConvTno
                0x00000000060185f0                gfs_chgRoot
                0x00000000060186bc                gfs_aborttrans
                0x00000000060186c8                gfs_mngSetupFuncTbl
                0x00000000060186fc                gfs_mngInitWork
                0x00000000060187a0                gfs_mngGetNumFile
                0x0000000006018808                GFS_mngAllocGrp
                0x0000000006018850                gfs_mngFreeGrp
                0x000000000601885c                gfs_mngTermAccess
                0x00000000060188e0                gfs_mngSetErrCode
                0x0000000006018960                gfs_svrSearchHndl
                0x00000000060189a0                gfs_svrAddHndl
                0x00000000060189dc                gfs_svrRemoveHndl
                0x0000000006018a38                GFS_OpenSub
                0x0000000006018a90                gfs_loadVol
                0x0000000006018b54                gfs_getRootDir
                0x0000000006018c50                gfs_loadRootDir
                0x0000000006018cd8                gfs_flowIn
                0x0000000006018d80                gfs_transData
                0x0000000006018e24                GFS_GetFad
                0x0000000006018e7c                gfs_SetSct
                0x0000000006018ebc                gfs_GetFinfo
                0x0000000006018efc                gfs_closeSub
                0x0000000006018f38                gfs_getGmode
                0x0000000006018f44                gfs_isTaskDone
                0x0000000006018f98                gfs_convFinStat
 *fill*         0x000000000601900c        0x4 
 .text          0x0000000006019010      0x106 /joengine/Compiler/COMMON/SGL_302j/LIB_ELF/LIBCD.A(GFS_BUF.O)
                0x0000000006019040                GFBF_GetTranData
                0x0000000006019068                GFBF_GetNumData
                0x0000000006019098                GFBF_GetSrcPk
                0x00000000060190c0                GFBF_GetSctData
                0x00000000060190e4                GFBF_RtnPk
                0x000000000601910c                gfbf_getSctDt
 *fill*         0x0000000006019116        0xa 
 .text          0x0000000006019120      0x600 /joengine/Compiler/COMMON/SGL_302j/LIB_ELF/LIBCD.A(GFS_CDB.O)
                0x0000000006019120                GFCB_Setup
                0x0000000006019240                GFCB_Close
                0x0000000006019268                GFCB_GetLenData
                0x0000000006019314                GFCB_GetLenRoom
                0x0000000006019320                GFCB_SetFilt
                0x0000000006019388                GFCB_DeleteAllData
                0x00000000060193b0                GFCB_Tell
                0x00000000060193c0                gfcb_getSctNum
                0x0000000006019410                GFCB_Seek
                0x000000000601950c                GFCB_GetSrcPack
                0x00000000060195ec                GFCB_GetSctData
                0x0000000006019624                GFCB_GetDstPack
                0x0000000006019630                GFCB_RtnPk
                0x0000000006019678                GFCB_MovePickup
                0x0000000006019694                GFCB_SetCon
                0x00000000060196c8                GFCB_GetPickup
                0x00000000060196f0                GFCB_IsPuOwner
                0x0000000006019708                GFCB_UngetPickup
 .text          0x0000000006019720     0x1a10 /joengine/Compiler/COMMON/SGL_302j/LIB_ELF/LIBCD.A(GFS_CDC.O)
                0x0000000006019720                GFCD_SetCdbfs
                0x000000000601974c                GFCD_Init
                0x0000000006019950                GFCD_AllocFilt
                0x000000000601998c                GFCD_FreeFilt
                0x00000000060199bc                GFCD_AllocBuf
                0x00000000060199f0                GFCD_FreeBuf
                0x0000000006019a94                GFCD_GetBaseFad
                0x0000000006019ac8                GFCD_GetPickup
                0x0000000006019afc                GFCD_UngetPickup
                0x0000000006019b28                GFCD_IsPuOwner
                0x0000000006019b4c                GFCD_SetFilt
                0x0000000006019c10                GFCD_GetFilt
                0x0000000006019c58                GFCD_SetCon
                0x0000000006019cb0                GFCD_Play
                0x0000000006019d10                GFCD_GetLenData
                0x0000000006019d78                GFCD_ReqData
                0x0000000006019dd4                GFCD_EndData
                0x0000000006019e1c                GFCD_DelSctData
                0x0000000006019e74                GFCD_CheckDelSctData
                0x0000000006019ea4                GFCD_GetStat
                0x0000000006019f58                GFCD_MovePickup
                0x0000000006019fa4                GFCD_MoveSctData
                0x000000000601a018                GFCD_CheckMove
                0x000000000601a03c                GFCD_GetSctInfo
                0x000000000601a084                GFCD_ChgDir
                0x000000000601a0f8                GFCD_SetFiltCon
                0x000000000601a1e0                GFCD_GetFileInfo
                0x000000000601a2bc                GFCD_GetBufSiz
                0x000000000601a2f4                GFCD_ExecServer
                0x000000000601a3c8                gfcd_isIdleTask
                0x000000000601a454                gfcd_doTask
                0x000000000601a500                GFCD_SetTimer
                0x000000000601a514                GFCD_WaitServer
                0x000000000601a550                gfcd_doSetFiltTsk
                0x000000000601a714                gfcd_doSetConTsk
                0x000000000601a7a4                gfcd_doGetLenDataTsk
                0x000000000601a8f8                gfcd_doReqDataTsk
                0x000000000601a998                gfcd_doDelSctDataTsk
                0x000000000601aacc                gfcd_doMoveSctTsk
                0x000000000601ac30                gfcd_doChgDirTsk
                0x000000000601ae2c                gfcd_doSetFiltConTsk
                0x000000000601af70                gfcd_checkEflag
                0x000000000601af94                gfcd_initCdbMng
                0x000000000601b014                gfcd_setStat
                0x000000000601b040                GFCD_SetCsctFunc
                0x000000000601b05c                GFCD_ChkScdqFlag
                0x000000000601b080                GFCD_ClrScdqFlag
                0x000000000601b09c                GFCD_WaitScdqFlag
                0x000000000601b0e0                GFCD_WaitPause
 .text          0x000000000601b130      0x8d8 /joengine/Compiler/COMMON/SGL_302j/LIB_ELF/LIBCD.A(GFS_CDF.O)
                0x000000000601b130                GFCF_Init
                0x000000000601b1d0                GFCF_Setup
                0x000000000601b318                GFCF_SetSct
                0x000000000601b35c                GFCF_GetFileInfo
                0x000000000601b3d0                GFCF_FlowInBuf
                0x000000000601b524                GFCF_StopInBuf
                0x000000000601b5c4                GFCF_Recover
                0x000000000601b60c                GFCF_Tell
                0x000000000601b624                GFCF_Seek
                0x000000000601b63c                GFCF_MovePickup
                0x000000000601b6d8                GFCF_cnvIntlvOfs
                0x000000000601b72c                GFCF_GetStat
                0x000000000601b7c4                gfcf_getSctSize
                0x000000000601b800                gfcf_isCdOk
                0x000000000601b8c0                gfcf_getPlayRange
 *fill*         0x000000000601ba08        0x8 
 .text          0x000000000601ba10      0x92c /joengine/Compiler/COMMON/SGL_302j/LIB_ELF/LIBCD.A(GFS_DIR.O)
                0x000000000601ba10                GFDR_SetupDirTbl
                0x000000000601ba84                GFDR_NameToId
                0x000000000601bae4                GFDR_GetInfoDirId
                0x000000000601baf8                GFDR_GetInfoDirName
                0x000000000601bb0c                GFDR_GetAtrDirId
                0x000000000601bb24                GFDR_GetAtrDirName
                0x000000000601bb3c                GFDR_ChgRoot
                0x000000000601bb54                GFDR_ChgDir
                0x000000000601bbc8                gfdr_setupDirIdTbl
                0x000000000601bc4c                gfdr_setupDirNameTbl
                0x000000000601bcf8                gfdr_open
                0x000000000601bd20                gfdr_read
                0x000000000601bde0                gfdr_readByte
                0x000000000601be0c                gfdr_readWord
                0x000000000601be38                gfdr_readWordNB
                0x000000000601be8c                gfdr_readLongNB
                0x000000000601bed8                gfdr_readLongNM
                0x000000000601bf00                gfdr_setNextRec
                0x000000000601bf84                gfdr_readDirEnt
                0x000000000601c300                gfdr_setDirrecCd
 *fill*         0x000000000601c33c        0x4 
 .text          0x000000000601c340      0x9c6 /joengine/Compiler/COMMON/SGL_302j/LIB_ELF/LIBCD.A(GFS_TRN.O)
                0x000000000601c370                GFTR_Setup
                0x000000000601c3b4                GFTR_SetMode
                0x000000000601c3c8                GFTR_SetUnit
                0x000000000601c3d4                GFTR_SetTransPara
                0x000000000601c408                GFTR_GetTransPara
                0x000000000601c414                GFTR_GetNumTrans
                0x000000000601c420                GFTR_SetTransMax
                0x000000000601c42c                GFTR_Start
                0x000000000601c438                GFTR_Pause
                0x000000000601c444                GFTR_Stop
                0x000000000601c4fc                GFTR_Exec
                0x000000000601c580                GFTR_Idle
                0x000000000601c5f8                GFTR_ExecSvr
                0x000000000601c700                gftr_getSrcPack
                0x000000000601c788                gftr_getDstPack
                0x000000000601c7e4                gftr_reqScu
                0x000000000601c7f0                gftr_execScu
                0x000000000601c88c                gftr_remScu
                0x000000000601c8c0                gfdma_canUse
                0x000000000601c8cc                gfdma_exec
                0x000000000601c93c                gfdma_getBytecnt
                0x000000000601c974                gftr_reqDma0
                0x000000000601c98c                gftr_execSdma0
                0x000000000601c9b0                gftr_remDma0
                0x000000000601c9c8                gftr_reqDma1
                0x000000000601c9e0                gftr_execSdma1
                0x000000000601ca04                gftr_remDma1
                0x000000000601ca1c                gftr_reqCpu
                0x000000000601ca28                gftr_execCpu
                0x000000000601ca68                gftr_remCpu
                0x000000000601ca74                gftr_reqTrn
                0x000000000601cae4                gftr_execTrn
                0x000000000601cbbc                gftr_remTrn
                0x000000000601cc30                gftr_copyFrac
                0x000000000601cc58                GFTR_GetLenData
                0x000000000601cc64                GFTR_GetLenRoom
                0x000000000601cc7c                GFTR_GetDstPack
                0x000000000601ccb0                GFTR_RtnDstPk
                0x000000000601cccc                GFTR_GetData
                0x000000000601cce0                GFTR_SetData
                0x000000000601ccf4                GFTR_SetTransFunc
 *fill*         0x000000000601cd06        0xa 
 .text          0x000000000601cd10       0xa8 /joengine/Compiler/COMMON/SGL_302j/LIB_ELF/LIBCD.A(CDC_DEV.O)
                0x000000000601cd10                CDC_CdSetCon
                0x000000000601cd40                CDC_CdGetCon
                0x000000000601cd7c                CDC_CdGetLastBuf
 *fill*         0x000000000601cdb8        0x8 
 .text          0x000000000601cdc0      0x2b8 /joengine/Compiler/COMMON/SGL_302j/LIB_ELF/LIBCD.A(CDC_SEL.O)
                0x000000000601cdc0                CDC_SetFiltRange
                0x000000000601cdf4                CDC_GetFiltRange
                0x000000000601ce4c                CDC_SetFiltSubh
                0x000000000601cebc                CDC_GetFiltSubh
                0x000000000601cf38                CDC_SetFiltMode
                0x000000000601cf6c                CDC_GetFiltMode
                0x000000000601cfb0                CDC_SetFiltCon
                0x000000000601cff0                CDC_GetFiltCon
                0x000000000601d044                CDC_ResetSelector
 *fill*         0x000000000601d078        0x8 
 .text          0x000000000601d080      0x270 /joengine/Compiler/COMMON/SGL_302j/LIB_ELF/LIBCD.A(CDC_BIF.O)
                0x000000000601d080                CDC_GetBufSiz
                0x000000000601d0dc                CDC_GetSctNum
                0x000000000601d120                CDC_CalActSiz
                0x000000000601d15c                CDC_GetActSiz
                0x000000000601d1dc                CDC_GetSctInfo
                0x000000000601d25c                CDC_ExeFadSearch
                0x000000000601d294                CDC_GetFadSearch
 .text          0x000000000601d2f0      0x1e4 /joengine/Compiler/COMMON/SGL_302j/LIB_ELF/LIBCD.A(CDC_BIO.O)
                0x000000000601d2f0                CDC_SetSctLen
                0x000000000601d324                CDC_GetSctData
                0x000000000601d360                CDC_DelSctData
                0x000000000601d39c                CDC_GetdelSctData
                0x000000000601d3d8                CDC_PutSctData
                0x000000000601d410                CDC_CopySctData
                0x000000000601d454                CDC_MoveSctData
                0x000000000601d498                CDC_GetCopyErr
 *fill*         0x000000000601d4d4        0xc 
 .text          0x000000000601d4e0        0x0 /joengine/Compiler/COMMON/SGL_302j/LIB_ELF/LIBSGL.A(sglA01.o)
 .text          0x000000000601d4e0        0x0 /joengine/Compiler/COMMON/SGL_302j/LIB_ELF/LIBSGL.A(sglA15.o)
 .text          0x000000000601d4e0        0x0 /joengine/Compiler/COMMON/SGL_302j/LIB_ELF/LIBSGL.A(sglA16.o)
 .text          0x000000000601d4e0        0x0 /joengine/Compiler/COMMON/SGL_302j/LIB_ELF/LIBSGL.A(sglA17.o)
 .text          0x000000000601d4e0        0x0 /joengine/Compiler/COMMON/SGL_302j/LIB_ELF/LIBSGL.A(sglA18.o)
 .text          0x000000000601d4e0        0x0 /joengine/Compiler/COMMON/SGL_302j/LIB_ELF/LIBSGL.A(sglA19.o)
 .text          0x000000000601d4e0        0x0 /joengine/Compiler/COMMON/SGL_302j/LIB_ELF/LIBSGL.A(sglA20.o)
 .text          0x000000000601d4e0        0x0 /joengine/Compiler/COMMON/SGL_302j/LIB_ELF/LIBSGL.A(sglA21.o)
 .text          0x000000000601d4e0        0x0 /joengine/Compiler/COMMON/SGL_302j/LIB_ELF/LIBSGL.A(sglA27.o)
 .text          0x000000000601d4e0        0x0 /joengine/Compiler/COMMON/SGL_302j/LIB_ELF/LIBSGL.A(sglA28.o)
 .text          0x000000000601d4e0        0x0 /joengine/Compiler/COMMON/SGL_302j/LIB_ELF/LIBSGL.A(sglA40.o)
 .text          0x000000000601d4e0        0x0 /joengine/Compiler/COMMON/SGL_302j/LIB_ELF/LIBSGL.A(sglB001.o)
 .text          0x000000000601d4e0        0x0 /joengine/Compiler/COMMON/SGL_302j/LIB_ELF/LIBSGL.A(sglB011.o)
 .text          0x000000000601d4e0        0x0 /joengine/Compiler/COMMON/SGL_302j/LIB_ELF/LIBSGL.A(sglB014.o)
 .text          0x000000000601d4e0        0x0 /joengine/Compiler/COMMON/SGL_302j/LIB_ELF/LIBSGL.A(sglB015.o)
 .text          0x000000000601d4e0        0x0 /joengine/Compiler/COMMON/SGL_302j/LIB_ELF/LIBSGL.A(sglB016.o)
 .text          0x000000000601d4e0        0x0 /joengine/Compiler/COMMON/SGL_302j/LIB_ELF/LIBSGL.A(sglB020.o)
 .text          0x000000000601d4e0        0x0 /joengine/Compiler/COMMON/SGL_302j/LIB_ELF/LIBSGL.A(sglB021.o)
 .text          0x000000000601d4e0        0x0 /joengine/Compiler/COMMON/SGL_302j/LIB_ELF/LIBSGL.A(sglB023.o)
 .text          0x000000000601d4e0        0x0 /joengine/Compiler/COMMON/SGL_302j/LIB_ELF/LIBSGL.A(sglB031.o)
 .text          0x000000000601d4e0        0x0 /joengine/Compiler/COMMON/SGL_302j/LIB_ELF/LIBSGL.A(sglB032.o)
 .text          0x000000000601d4e0        0x0 /joengine/Compiler/COMMON/SGL_302j/LIB_ELF/LIBSGL.A(sglB033.o)
 .text          0x000000000601d4e0        0x0 /joengine/Compiler/COMMON/SGL_302j/LIB_ELF/LIBSGL.A(sglB034.o)
 .text          0x000000000601d4e0        0x0 /joengine/Compiler/COMMON/SGL_302j/LIB_ELF/LIBSGL.A(sglB035.o)
 .text          0x000000000601d4e0        0x0 /joengine/Compiler/COMMON/SGL_302j/LIB_ELF/LIBSGL.A(sglB036.o)
 .text          0x000000000601d4e0        0x0 /joengine/Compiler/COMMON/SGL_302j/LIB_ELF/LIBSGL.A(sglB038.o)
 .text          0x000000000601d4e0        0x0 /joengine/Compiler/COMMON/SGL_302j/LIB_ELF/LIBSGL.A(sglB039.o)
 .text          0x000000000601d4e0        0x0 /joengine/Compiler/COMMON/SGL_302j/LIB_ELF/LIBSGL.A(sglB040.o)
 .text          0x000000000601d4e0        0x0 /joengine/Compiler/COMMON/SGL_302j/LIB_ELF/LIBSGL.A(sglB041.o)
 .text          0x000000000601d4e0        0x0 /joengine/Compiler/COMMON/SGL_302j/LIB_ELF/LIBSGL.A(sglB042.o)
 .text          0x000000000601d4e0        0x0 /joengine/Compiler/COMMON/SGL_302j/LIB_ELF/LIBSGL.A(sglB043.o)
 .text          0x000000000601d4e0        0x0 /joengine/Compiler/COMMON/SGL_302j/LIB_ELF/LIBSGL.A(sglB044.o)
 .text          0x000000000601d4e0        0x0 /joengine/Compiler/COMMON/SGL_302j/LIB_ELF/LIBSGL.A(sglB045.o)
 .text          0x000000000601d4e0        0x0 /joengine/Compiler/COMMON/SGL_302j/LIB_ELF/LIBSGL.A(sglB047.o)
 .text          0x000000000601d4e0        0x0 /joengine/Compiler/COMMON/SGL_302j/LIB_ELF/LIBSGL.A(sglB048.o)
 .text          0x000000000601d4e0        0x0 /joengine/Compiler/COMMON/SGL_302j/LIB_ELF/LIBSGL.A(sglB055.o)
 .text          0x000000000601d4e0        0x0 /joengine/Compiler/COMMON/SGL_302j/LIB_ELF/LIBSGL.A(sglB056.o)
 .text          0x000000000601d4e0        0x0 /joengine/Compiler/COMMON/SGL_302j/LIB_ELF/LIBSGL.A(sglB057.o)
 .text          0x000000000601d4e0        0x0 /joengine/Compiler/COMMON/SGL_302j/LIB_ELF/LIBSGL.A(sglB058.o)
 .text          0x000000000601d4e0        0x0 /joengine/Compiler/COMMON/SGL_302j/LIB_ELF/LIBSGL.A(sglB059.o)
 .text          0x000000000601d4e0        0x0 /joengine/Compiler/COMMON/SGL_302j/LIB_ELF/LIBSGL.A(sglB060.o)
 .text          0x000000000601d4e0        0x0 /joengine/Compiler/COMMON/SGL_302j/LIB_ELF/LIBSGL.A(sglB063.o)
 .text          0x000000000601d4e0        0x0 /joengine/Compiler/COMMON/SGL_302j/LIB_ELF/LIBSGL.A(sglB087.o)
 .text          0x000000000601d4e0        0x0 /joengine/Compiler/COMMON/SGL_302j/LIB_ELF/LIBSGL.A(sglB088.o)
 .text          0x000000000601d4e0        0x0 /joengine/Compiler/COMMON/SGL_302j/LIB_ELF/LIBSGL.A(sglB090.o)
 .text          0x000000000601d4e0        0x0 /joengine/Compiler/COMMON/SGL_302j/LIB_ELF/LIBSGL.A(sglB200.o)
 .text          0x000000000601d4e0        0x0 /joengine/Compiler/COMMON/SGL_302j/LIB_ELF/LIBSGL.A(sglC01.o)
 .text          0x000000000601d4e0        0x0 /joengine/Compiler/COMMON/SGL_302j/LIB_ELF/LIBSGL.A(sglC03.o)
 .text          0x000000000601d4e0        0x0 /joengine/Compiler/COMMON/SGL_302j/LIB_ELF/LIBSGL.A(sglC04.o)
 .text          0x000000000601d4e0        0x0 /joengine/Compiler/COMMON/SGL_302j/LIB_ELF/LIBSGL.A(sglC05.o)
 .text          0x000000000601d4e0        0x0 /joengine/Compiler/COMMON/SGL_302j/LIB_ELF/LIBSGL.A(sglC06.o)
 .text          0x000000000601d4e0        0x0 /joengine/Compiler/COMMON/SGL_302j/LIB_ELF/LIBSGL.A(sglC07.o)
 .text          0x000000000601d4e0        0x0 /joengine/Compiler/COMMON/SGL_302j/LIB_ELF/LIBSGL.A(sglC08.o)
 .text          0x000000000601d4e0        0x0 /joengine/Compiler/COMMON/SGL_302j/LIB_ELF/LIBSGL.A(sglC14.o)
 .text          0x000000000601d4e0        0x0 /joengine/Compiler/COMMON/SGL_302j/LIB_ELF/LIBSGL.A(sglC16.o)
 .text          0x000000000601d4e0        0x0 /joengine/Compiler/COMMON/SGL_302j/LIB_ELF/LIBSGL.A(sglC17.o)
 .text          0x000000000601d4e0        0x0 /joengine/Compiler/COMMON/SGL_302j/LIB_ELF/LIBSGL.A(sglC19.o)
 .text          0x000000000601d4e0        0x0 /joengine/Compiler/COMMON/SGL_302j/LIB_ELF/LIBSGL.A(sglC20.o)
 .text          0x000000000601d4e0        0x0 /joengine/Compiler/COMMON/SGL_302j/LIB_ELF/LIBSGL.A(sglC21.o)
 .text          0x000000000601d4e0        0x0 /joengine/Compiler/COMMON/SGL_302j/LIB_ELF/LIBSGL.A(sglD00.o)
 .text          0x000000000601d4e0        0x0 /joengine/Compiler/COMMON/SGL_302j/LIB_ELF/LIBSGL.A(sglD01.o)
 .text          0x000000000601d4e0        0x0 /joengine/Compiler/COMMON/SGL_302j/LIB_ELF/LIBSGL.A(sglD02.o)
 .text          0x000000000601d4e0        0x0 /joengine/Compiler/COMMON/SGL_302j/LIB_ELF/LIBSGL.A(sglD03.o)
 .text          0x000000000601d4e0        0x0 /joengine/Compiler/COMMON/SGL_302j/LIB_ELF/LIBSGL.A(sglD15.o)
 .text          0x000000000601d4e0        0x0 /joengine/Compiler/COMMON/SGL_302j/LIB_ELF/LIBSGL.A(sglD16.o)
 .text          0x000000000601d4e0        0x0 /joengine/Compiler/COMMON/SGL_302j/LIB_ELF/LIBSGL.A(sglD17.o)
 .text          0x000000000601d4e0        0x0 /joengine/Compiler/COMMON/SGL_302j/LIB_ELF/LIBSGL.A(sglD18.o)
 .text          0x000000000601d4e0        0x0 /joengine/Compiler/COMMON/SGL_302j/LIB_ELF/LIBSGL.A(sglF08.o)
 .text          0x000000000601d4e0        0x0 /joengine/Compiler/COMMON/SGL_302j/LIB_ELF/LIBSGL.A(sglH00.o)
 .text          0x000000000601d4e0        0x0 /joengine/Compiler/COMMON/SGL_302j/LIB_ELF/LIBSGL.A(sglH01.o)
 .text          0x000000000601d4e0        0x0 /joengine/Compiler/COMMON/SGL_302j/LIB_ELF/LIBSGL.A(sglH02.o)
 .text          0x000000000601d4e0        0x0 /joengine/Compiler/COMMON/SGL_302j/LIB_ELF/LIBSGL.A(sglH04.o)
 .text          0x000000000601d4e0        0x0 /joengine/Compiler/COMMON/SGL_302j/LIB_ELF/LIBSGL.A(sglI01.o)
 .text          0x000000000601d4e0        0x0 /joengine/Compiler/COMMON/SGL_302j/LIB_ELF/LIBSGL.A(sglI04.o)
 .text          0x000000000601d4e0      0x128 /joengine/Compiler/COMMON/SGL_302j/LIB_ELF/LIBSGL.A(sglIc0.o)
                0x000000000601d4e0                slInitSystem
 *fill*         0x000000000601d608        0x8 
 .text          0x000000000601d610        0x0 /joengine/Compiler/COMMON/SGL_302j/LIB_ELF/LIBSGL.A(sglJ00.o)
 .text          0x000000000601d610        0x0 /joengine/Compiler/COMMON/SGL_302j/LIB_ELF/LIBSGL.A(sglJ01.o)
 .text          0x000000000601d610        0x0 /joengine/Compiler/COMMON/SGL_302j/LIB_ELF/LIBSGL.A(sglJ02.o)
 .text          0x000000000601d610        0x0 /joengine/Compiler/COMMON/SGL_302j/LIB_ELF/LIBSGL.A(sglJ03.o)
 .text          0x000000000601d610        0x0 /joengine/Compiler/COMMON/SGL_302j/LIB_ELF/LIBSGL.A(sglJ04.o)
 .text          0x000000000601d610        0x0 /joengine/Compiler/COMMON/SGL_302j/LIB_ELF/LIBSGL.A(sglJ05.o)
 .text          0x000000000601d610        0x0 /joengine/Compiler/COMMON/SGL_302j/LIB_ELF/LIBSGL.A(sglK01.o)
 .text          0x000000000601d610        0x0 /joengine/Compiler/COMMON/SGL_302j/LIB_ELF/LIBSGL.A(sglM00.o)
 .text          0x000000000601d610        0x0 /joengine/Compiler/COMMON/SGL_302j/LIB_ELF/LIBSGL.A(sglM01.o)
 .text          0x000000000601d610        0x0 /joengine/Compiler/COMMON/SGL_302j/LIB_ELF/LIBSGL.A(sglA00.o)
 .text          0x000000000601d610        0x0 /joengine/Compiler/COMMON/SGL_302j/LIB_ELF/LIBSGL.A(sglA03.o)
 .text          0x000000000601d610        0x0 /joengine/Compiler/COMMON/SGL_302j/LIB_ELF/LIBSGL.A(sglA10.o)
 .text          0x000000000601d610        0x0 /joengine/Compiler/COMMON/SGL_302j/LIB_ELF/LIBSGL.A(sglA24.o)
 .text          0x000000000601d610        0x0 /joengine/Compiler/COMMON/SGL_302j/LIB_ELF/LIBSGL.A(sglA25.o)
 .text          0x000000000601d610        0x0 /joengine/Compiler/COMMON/SGL_302j/LIB_ELF/LIBSGL.A(sglB000.o)
 .text          0x000000000601d610        0x0 /joengine/Compiler/COMMON/SGL_302j/LIB_ELF/LIBSGL.A(sglC00.o)
 .text          0x000000000601d610        0x0 /joengine/Compiler/COMMON/SGL_302j/LIB_ELF/LIBSGL.A(sglC13.o)
 .text          0x000000000601d610        0x0 /joengine/Compiler/COMMON/SGL_302j/LIB_ELF/LIBSGL.A(sglD19.o)
 .text          0x000000000601d610        0x0 /joengine/Compiler/COMMON/SGL_302j/LIB_ELF/LIBSGL.A(sglI00.o)
 .text          0x000000000601d610        0x0 /joengine/Compiler/COMMON/SGL_302j/LIB_ELF/LIBSGL.A(sglH03.o)
 .text          0x000000000601d610       0x52 /joengine/Compiler/LINUX/bin/../lib/gcc/sh-none-elf/8.2.0/libgcc.a(_ashiftrt.o)
                0x000000000601d610                __ashiftrt_r4_31
                0x000000000601d610                __ashiftrt_r4_32
                0x000000000601d616                __ashiftrt_r4_30
                0x000000000601d618                __ashiftrt_r4_29
                0x000000000601d61a                __ashiftrt_r4_28
                0x000000000601d61c                __ashiftrt_r4_27
                0x000000000601d61e                __ashiftrt_r4_26
                0x000000000601d620                __ashiftrt_r4_25
                0x000000000601d622                __ashiftrt_r4_24
                0x000000000601d62a                __ashiftrt_r4_23
                0x000000000601d62c                __ashiftrt_r4_22
                0x000000000601d62e                __ashiftrt_r4_21
                0x000000000601d630                __ashiftrt_r4_20
                0x000000000601d632                __ashiftrt_r4_19
                0x000000000601d634                __ashiftrt_r4_18
                0x000000000601d636                __ashiftrt_r4_17
                0x000000000601d638                __ashiftrt_r4_16
                0x000000000601d63e                __ashiftrt_r4_15
                0x000000000601d640                __ashiftrt_r4_14
                0x000000000601d642                __ashiftrt_r4_13
                0x000000000601d644                __ashiftrt_r4_12
                0x000000000601d646                __ashiftrt_r4_11
                0x000000000601d648                __ashiftrt_r4_10
                0x000000000601d64a                __ashiftrt_r4_9
                0x000000000601d64c                __ashiftrt_r4_8
                0x000000000601d64e                __ashiftrt_r4_7
                0x000000000601d650                __ashiftrt_r4_6
                0x000000000601d652                __ashiftrt_r4_5
                0x000000000601d654                __ashiftrt_r4_4
                0x000000000601d656                __ashiftrt_r4_3
                0x000000000601d658                __ashiftrt_r4_2
                0x000000000601d65a                __ashiftrt_r4_1
                0x000000000601d65e                __ashiftrt_r4_0
 *fill*         0x000000000601d662        0x2 
 .text          0x000000000601d664       0xa0 /joengine/Compiler/LINUX/bin/../lib/gcc/sh-none-elf/8.2.0/libgcc.a(_sdivsi3.o)
                0x000000000601d664                __sdivsi3
 .text          0x000000000601d704       0x6c /joengine/Compiler/LINUX/bin/../lib/gcc/sh-none-elf/8.2.0/libgcc.a(_udivsi3.o)
                0x000000000601d726                __udivsi3
 .text          0x000000000601d770       0x78 /joengine/Compiler/LINUX/bin/../lib/gcc/sh-none-elf/8.2.0/libgcc.a(_movmem.o)
                0x000000000601d770                __movstr
                0x000000000601d770                __movmem
                0x000000000601d7a4                __movmemSI64
                0x000000000601d7a4                __movstrSI64
                0x000000000601d7a8                __movstrSI60
                0x000000000601d7a8                __movmemSI60
                0x000000000601d7ac                __movmemSI56
                0x000000000601d7ac                __movstrSI56
                0x000000000601d7b0                __movstrSI52
                0x000000000601d7b0                __movmemSI52
                0x000000000601d7b4                __movstrSI48
                0x000000000601d7b4                __movmemSI48
                0x000000000601d7b8                __movstrSI44
                0x000000000601d7b8                __movmemSI44
                0x000000000601d7bc                __movstrSI40
                0x000000000601d7bc                __movmemSI40
                0x000000000601d7c0                __movstrSI36
                0x000000000601d7c0                __movmemSI36
                0x000000000601d7c4                __movmemSI32
                0x000000000601d7c4                __movstrSI32
                0x000000000601d7c8                __movmemSI28
                0x000000000601d7c8                __movstrSI28
                0x000000000601d7cc                __movstrSI24
                0x000000000601d7cc                __movmemSI24
                0x000000000601d7d0                __movmemSI20
                0x000000000601d7d0                __movstrSI20
                0x000000000601d7d4                __movstrSI16
                0x000000000601d7d4                __movmemSI16
                0x000000000601d7d8                __movmemSI12
                0x000000000601d7d8                __movstrSI12
                0x000000000601d7dc                __movmemSI8
                0x000000000601d7dc                __movstrSI8
                0x000000000601d7e0                __movmemSI4
                0x000000000601d7e0                __movstrSI4
 .text          0x000000000601d7e8      0x210 /joengine/Compiler/LINUX/bin/../lib/gcc/sh-none-elf/8.2.0/libgcc.a(_addsub_sf.o)
                0x000000000601d95c                __addsf3
                0x000000000601d9a8                __subsf3
 .text          0x000000000601d9f8      0x134 /joengine/Compiler/LINUX/bin/../lib/gcc/sh-none-elf/8.2.0/libgcc.a(_mul_sf.o)
                0x000000000601d9f8                __mulsf3
 .text          0x000000000601db2c       0xdc /joengine/Compiler/LINUX/bin/../lib/gcc/sh-none-elf/8.2.0/libgcc.a(_div_sf.o)
                0x000000000601db2c                __divsf3
 .text          0x000000000601dc08       0x54 /joengine/Compiler/LINUX/bin/../lib/gcc/sh-none-elf/8.2.0/libgcc.a(_eq_sf.o)
                0x000000000601dc08                __eqsf2
 .text          0x000000000601dc5c       0x54 /joengine/Compiler/LINUX/bin/../lib/gcc/sh-none-elf/8.2.0/libgcc.a(_ne_sf.o)
                0x000000000601dc5c                __nesf2
 .text          0x000000000601dcb0       0x4c /joengine/Compiler/LINUX/bin/../lib/gcc/sh-none-elf/8.2.0/libgcc.a(_gt_sf.o)
                0x000000000601dcb0                __gtsf2
 .text          0x000000000601dcfc       0x4c /joengine/Compiler/LINUX/bin/../lib/gcc/sh-none-elf/8.2.0/libgcc.a(_ge_sf.o)
                0x000000000601dcfc                __gesf2
 .text          0x000000000601dd48       0x54 /joengine/Compiler/LINUX/bin/../lib/gcc/sh-none-elf/8.2.0/libgcc.a(_lt_sf.o)
                0x000000000601dd48                __ltsf2
 .text          0x000000000601dd9c       0x54 /joengine/Compiler/LINUX/bin/../lib/gcc/sh-none-elf/8.2.0/libgcc.a(_le_sf.o)
                0x000000000601dd9c                __lesf2
 .text          0x000000000601ddf0       0x84 /joengine/Compiler/LINUX/bin/../lib/gcc/sh-none-elf/8.2.0/libgcc.a(_si_to_sf.o)
                0x000000000601ddf0                __floatsisf
 .text          0x000000000601de74       0x7c /joengine/Compiler/LINUX/bin/../lib/gcc/sh-none-elf/8.2.0/libgcc.a(_sf_to_si.o)
                0x000000000601de74                __fixsfsi
 .text          0x000000000601def0       0x3c /joengine/Compiler/LINUX/bin/../lib/gcc/sh-none-elf/8.2.0/libgcc.a(_sf_to_df.o)
                0x000000000601def0                __extendsfdf2
 .text          0x000000000601df2c        0x0 /joengine/Compiler/LINUX/bin/../lib/gcc/sh-none-elf/8.2.0/libgcc.a(_thenan_sf.o)
 .text          0x000000000601df2c       0x94 /joengine/Compiler/LINUX/bin/../lib/gcc/sh-none-elf/8.2.0/libgcc.a(_usi_to_sf.o)
                0x000000000601df2c                __floatunsisf
 .text          0x000000000601dfc0       0x28 /joengine/Compiler/LINUX/bin/../lib/gcc/sh-none-elf/8.2.0/libgcc.a(_make_df.o)
                0x000000000601dfc0                __make_dp
 .text          0x000000000601dfe8       0x4c /joengine/Compiler/LINUX/bin/../lib/gcc/sh-none-elf/8.2.0/libgcc.a(_df_to_sf.o)
                0x000000000601dfe8                __truncdfsf2
 .text          0x000000000601e034      0x114 /joengine/Compiler/LINUX/bin/../lib/gcc/sh-none-elf/8.2.0/libgcc.a(_pack_sf.o)
                0x000000000601e034                __pack_f
 .text          0x000000000601e148       0xa0 /joengine/Compiler/LINUX/bin/../lib/gcc/sh-none-elf/8.2.0/libgcc.a(_unpack_sf.o)
                0x000000000601e148                __unpack_f
 .text          0x000000000601e1e8       0xa8 /joengine/Compiler/LINUX/bin/../lib/gcc/sh-none-elf/8.2.0/libgcc.a(_fpcmp_parts_sf.o)
                0x000000000601e1e8                __fpcmp_parts_f
 .text          0x000000000601e290       0x20 /joengine/Compiler/LINUX/bin/../lib/gcc/sh-none-elf/8.2.0/libgcc.a(_make_sf.o)
                0x000000000601e290                __make_fp
 .text          0x000000000601e2b0        0x0 /joengine/Compiler/LINUX/bin/../lib/gcc/sh-none-elf/8.2.0/../../../../sh-none-elf/lib/libc.a(lib_a-impure.o)
 .text          0x000000000601e2b0       0x1e /joengine/Compiler/LINUX/bin/../lib/gcc/sh-none-elf/8.2.0/../../../../sh-none-elf/lib/libc.a(lib_a-memcmp.o)
                0x000000000601e2b0                memcmp
 *fill*         0x000000000601e2ce        0x2 
 .text          0x000000000601e2d0       0x94 /joengine/Compiler/LINUX/bin/../lib/gcc/sh-none-elf/8.2.0/../../../../sh-none-elf/lib/libc.a(lib_a-memcpy.o)
                0x000000000601e2d0                memcpy
 .text          0x000000000601e364       0x40 /joengine/Compiler/LINUX/bin/../lib/gcc/sh-none-elf/8.2.0/../../../../sh-none-elf/lib/libc.a(lib_a-memset.o)
                0x000000000601e364                memset
 .text          0x000000000601e3a4       0x58 /joengine/Compiler/LINUX/bin/../lib/gcc/sh-none-elf/8.2.0/../../../../sh-none-elf/lib/libc.a(lib_a-rand.o)
                0x000000000601e3a4                srand
                0x000000000601e3b8                rand
 .text          0x000000000601e3fc       0x60 /joengine/Compiler/LINUX/bin/../lib/gcc/sh-none-elf/8.2.0/../../../../sh-none-elf/lib/libc.a(lib_a-rget.o)
                0x000000000601e3fc                __srget_r
                0x000000000601e448                __srget
 .text          0x000000000601e45c       0x8c /joengine/Compiler/LINUX/bin/../lib/gcc/sh-none-elf/8.2.0/../../../../sh-none-elf/lib/libc.a(lib_a-sprintf.o)
                0x000000000601e45c                _sprintf_r
                0x000000000601e49c                sprintf
 .text          0x000000000601e4e8       0x22 /joengine/Compiler/LINUX/bin/../lib/gcc/sh-none-elf/8.2.0/../../../../sh-none-elf/lib/libc.a(lib_a-strcat.o)
                0x000000000601e4e8                strcat
 *fill*         0x000000000601e50a        0x2 
 .text          0x000000000601e50c       0x38 /joengine/Compiler/LINUX/bin/../lib/gcc/sh-none-elf/8.2.0/../../../../sh-none-elf/lib/libc.a(lib_a-strcmp.o)
                0x000000000601e50c                strcmp
 .text          0x000000000601e544       0x3c /joengine/Compiler/LINUX/bin/../lib/gcc/sh-none-elf/8.2.0/../../../../sh-none-elf/lib/libc.a(lib_a-strcpy.o)
                0x000000000601e544                strcpy
 .text          0x000000000601e580       0x20 /joengine/Compiler/LINUX/bin/../lib/gcc/sh-none-elf/8.2.0/../../../../sh-none-elf/lib/libc.a(lib_a-strlen.o)
                0x000000000601e580                strlen
 .text          0x000000000601e5a0       0x2a /joengine/Compiler/LINUX/bin/../lib/gcc/sh-none-elf/8.2.0/../../../../sh-none-elf/lib/libc.a(lib_a-strncmp.o)
                0x000000000601e5a0                strncmp
 .text          0x000000000601e5ca       0x32 /joengine/Compiler/LINUX/bin/../lib/gcc/sh-none-elf/8.2.0/../../../../sh-none-elf/lib/libc.a(lib_a-strncpy.o)
                0x000000000601e5ca                strncpy
 .text          0x000000000601e5fc       0x36 /joengine/Compiler/LINUX/bin/../lib/gcc/sh-none-elf/8.2.0/../../../../sh-none-elf/lib/libc.a(lib_a-strstr.o)
                0x000000000601e5fc                strstr
 *fill*         0x000000000601e632        0x2 
 .text          0x000000000601e634     0x1378 /joengine/Compiler/LINUX/bin/../lib/gcc/sh-none-elf/8.2.0/../../../../sh-none-elf/lib/libc.a(lib_a-svfprintf.o)
                0x000000000601e634                _svfprintf_r
 .text          0x000000000601f9ac       0xdc /joengine/Compiler/LINUX/bin/../lib/gcc/sh-none-elf/8.2.0/../../../../sh-none-elf/lib/libc.a(lib_a-wbuf.o)
                0x000000000601f9ac                __swbuf_r
                0x000000000601fa74                __swbuf
 .text          0x000000000601fa88       0xcc /joengine/Compiler/LINUX/bin/../lib/gcc/sh-none-elf/8.2.0/../../../../sh-none-elf/lib/libc.a(lib_a-wsetup.o)
                0x000000000601fa88                __swsetup_r
 .text          0x000000000601fb54      0xef4 /joengine/Compiler/LINUX/bin/../lib/gcc/sh-none-elf/8.2.0/../../../../sh-none-elf/lib/libc.a(lib_a-dtoa.o)
                0x000000000601fc88                _dtoa_r
 .text          0x0000000006020a48      0x1a8 /joengine/Compiler/LINUX/bin/../lib/gcc/sh-none-elf/8.2.0/../../../../sh-none-elf/lib/libc.a(lib_a-fflush.o)
                0x0000000006020a48                __sflush_r
                0x0000000006020b88                _fflush_r
                0x0000000006020bc8                fflush
 .text          0x0000000006020bf0      0x218 /joengine/Compiler/LINUX/bin/../lib/gcc/sh-none-elf/8.2.0/../../../../sh-none-elf/lib/libc.a(lib_a-findfp.o)
                0x0000000006020c4c                _cleanup_r
                0x0000000006020c60                __sfmoreglue
                0x0000000006020cac                _cleanup
                0x0000000006020cc0                __sinit
                0x0000000006020d14                __sfp
                0x0000000006020dc8                __sfp_lock_acquire
                0x0000000006020dcc                __sfp_lock_release
                0x0000000006020dd0                __sinit_lock_acquire
                0x0000000006020dd4                __sinit_lock_release
                0x0000000006020dd8                __fp_lock_all
                0x0000000006020df0                __fp_unlock_all
 .text          0x0000000006020e08       0xb4 /joengine/Compiler/LINUX/bin/../lib/gcc/sh-none-elf/8.2.0/../../../../sh-none-elf/lib/libc.a(lib_a-fwalk.o)
                0x0000000006020e08                _fwalk
                0x0000000006020e5e                _fwalk_reent
 .text          0x0000000006020ebc       0x40 /joengine/Compiler/LINUX/bin/../lib/gcc/sh-none-elf/8.2.0/../../../../sh-none-elf/lib/libc.a(lib_a-localeconv.o)
                0x0000000006020ebc                __localeconv_l
                0x0000000006020ec4                _localeconv_r
                0x0000000006020ee0                localeconv
 .text          0x0000000006020efc       0xa8 /joengine/Compiler/LINUX/bin/../lib/gcc/sh-none-elf/8.2.0/../../../../sh-none-elf/lib/libc.a(lib_a-locale.o)
                0x0000000006020efc                _setlocale_r
                0x0000000006020f48                __locale_mb_cur_max
                0x0000000006020f68                __locale_ctype_ptr_l
                0x0000000006020f72                __locale_ctype_ptr
                0x0000000006020f90                setlocale
 .text          0x0000000006020fa4      0x110 /joengine/Compiler/LINUX/bin/../lib/gcc/sh-none-elf/8.2.0/../../../../sh-none-elf/lib/libc.a(lib_a-makebuf.o)
                0x0000000006020fa4                __swhatbuf_r
                0x0000000006021008                __smakebuf_r
 .text          0x00000000060210b4       0x4c /joengine/Compiler/LINUX/bin/../lib/gcc/sh-none-elf/8.2.0/../../../../sh-none-elf/lib/libc.a(lib_a-mbtowc_r.o)
                0x00000000060210b4                _mbtowc_r
                0x00000000060210d8                __ascii_mbtowc
 .text          0x0000000006021100       0x1c /joengine/Compiler/LINUX/bin/../lib/gcc/sh-none-elf/8.2.0/../../../../sh-none-elf/lib/libc.a(lib_a-memchr.o)
                0x0000000006021100                memchr
 .text          0x000000000602111c      0xa9c /joengine/Compiler/LINUX/bin/../lib/gcc/sh-none-elf/8.2.0/../../../../sh-none-elf/lib/libc.a(lib_a-mprec.o)
                0x000000000602111c                _Balloc
                0x0000000006021190                _Bfree
                0x00000000060211a8                __multadd
                0x0000000006021250                __s2b
                0x0000000006021310                __hi0bits
                0x0000000006021364                __lo0bits
                0x00000000060213c8                __i2b
                0x00000000060213e4                __multiply
                0x0000000006021528                __pow5mult
                0x00000000060215e4                __lshift
                0x00000000060216d8                __mcmp
                0x0000000006021710                __mdiff
                0x00000000060217ec                __ulp
                0x0000000006021858                __b2d
                0x0000000006021940                __d2b
                0x0000000006021a2c                __ratio
                0x0000000006021ab0                _mprec_log10
                0x0000000006021b08                __copybits
                0x0000000006021b4c                __any_on
 .text          0x0000000006021bb8      0x14c /joengine/Compiler/LINUX/bin/../lib/gcc/sh-none-elf/8.2.0/../../../../sh-none-elf/lib/libc.a(lib_a-refill.o)
                0x0000000006021bd0                __srefill_r
 .text          0x0000000006021d04       0xe0 /joengine/Compiler/LINUX/bin/../lib/gcc/sh-none-elf/8.2.0/../../../../sh-none-elf/lib/libc.a(lib_a-stdio.o)
                0x0000000006021d04                __sread
                0x0000000006021d40                __seofread
                0x0000000006021d44                __swrite
                0x0000000006021d94                __sseek
                0x0000000006021dd4                __sclose
 .text          0x0000000006021de4      0xa60 /joengine/Compiler/LINUX/bin/../lib/gcc/sh-none-elf/8.2.0/../../../../sh-none-elf/lib/libc.a(lib_a-svfiprintf.o)
                0x0000000006021de4                __ssprint_r
                0x0000000006021f18                _svfiprintf_r
 .text          0x0000000006022844       0x40 /joengine/Compiler/LINUX/bin/../lib/gcc/sh-none-elf/8.2.0/../../../../sh-none-elf/lib/libc.a(lib_a-wctomb_r.o)
                0x0000000006022844                _wctomb_r
                0x0000000006022864                __ascii_wctomb
 .text          0x0000000006022884       0x34 /joengine/Compiler/LINUX/bin/../lib/gcc/sh-none-elf/8.2.0/../../../../sh-none-elf/lib/libc.a(lib_a-writer.o)
                0x0000000006022884                _write_r
 .text          0x00000000060228b8       0x30 /joengine/Compiler/LINUX/bin/../lib/gcc/sh-none-elf/8.2.0/../../../../sh-none-elf/lib/libc.a(lib_a-closer.o)
                0x00000000060228b8                _close_r
 .text          0x00000000060228e8        0x0 /joengine/Compiler/LINUX/bin/../lib/gcc/sh-none-elf/8.2.0/../../../../sh-none-elf/lib/libc.a(lib_a-ctype_.o)
 .text          0x00000000060228e8       0xc8 /joengine/Compiler/LINUX/bin/../lib/gcc/sh-none-elf/8.2.0/../../../../sh-none-elf/lib/libc.a(lib_a-fclose.o)
                0x00000000060228e8                _fclose_r
                0x000000000602299c                fclose
 .text          0x00000000060229b0       0x34 /joengine/Compiler/LINUX/bin/../lib/gcc/sh-none-elf/8.2.0/../../../../sh-none-elf/lib/libc.a(lib_a-fstatr.o)
                0x00000000060229b0                _fstat_r
 .text          0x00000000060229e4       0x30 /joengine/Compiler/LINUX/bin/../lib/gcc/sh-none-elf/8.2.0/../../../../sh-none-elf/lib/libc.a(lib_a-isattyr.o)
                0x00000000060229e4                _isatty_r
 .text          0x0000000006022a14       0x34 /joengine/Compiler/LINUX/bin/../lib/gcc/sh-none-elf/8.2.0/../../../../sh-none-elf/lib/libc.a(lib_a-lseekr.o)
                0x0000000006022a14                _lseek_r
 .text          0x0000000006022a48       0x3c /joengine/Compiler/LINUX/bin/../lib/gcc/sh-none-elf/8.2.0/../../../../sh-none-elf/lib/libc.a(lib_a-memmove.o)
                0x0000000006022a48                memmove
 .text          0x0000000006022a84       0x34 /joengine/Compiler/LINUX/bin/../lib/gcc/sh-none-elf/8.2.0/../../../../sh-none-elf/lib/libc.a(lib_a-readr.o)
                0x0000000006022a84                _read_r
 .text          0x0000000006022ab8      0x100 /joengine/Compiler/LINUX/bin/../lib/gcc/sh-none-elf/8.2.0/../../../../sh-none-elf/lib/libc.a(lib_a-reent.o)
                0x0000000006022ab8                cleanup_glue
                0x0000000006022ae4                _reclaim_reent
 .text          0x0000000006022bb8       0x80 /joengine/Compiler/LINUX/bin/../lib/gcc/sh-none-elf/8.2.0/libgcc.a(_ashiftrt_n.o)
                0x0000000006022bb8                __ashrsi3
 .text          0x0000000006022c38       0xbc /joengine/Compiler/LINUX/bin/../lib/gcc/sh-none-elf/8.2.0/libgcc.a(_ashiftlt.o)
                0x0000000006022c38                __ashlsi3
                0x0000000006022c3c                __ashlsi3_r0
 .text          0x0000000006022cf4       0xbc /joengine/Compiler/LINUX/bin/../lib/gcc/sh-none-elf/8.2.0/libgcc.a(_lshiftrt.o)
                0x0000000006022cf4                __lshrsi3
                0x0000000006022cf8                __lshrsi3_r0
 .text          0x0000000006022db0      0x258 /joengine/Compiler/LINUX/bin/../lib/gcc/sh-none-elf/8.2.0/libgcc.a(_udivdi3.o)
                0x0000000006022db0                __udivdi3
 .text          0x0000000006023008      0x2bc /joengine/Compiler/LINUX/bin/../lib/gcc/sh-none-elf/8.2.0/libgcc.a(_umoddi3.o)
                0x0000000006023008                __umoddi3
 .text          0x00000000060232c4      0x3b4 /joengine/Compiler/LINUX/bin/../lib/gcc/sh-none-elf/8.2.0/libgcc.a(_addsub_df.o)
                0x00000000060235d4                __adddf3
                0x0000000006023624                __subdf3
 .text          0x0000000006023678      0x208 /joengine/Compiler/LINUX/bin/../lib/gcc/sh-none-elf/8.2.0/libgcc.a(_mul_df.o)
                0x0000000006023678                __muldf3
 .text          0x0000000006023880      0x130 /joengine/Compiler/LINUX/bin/../lib/gcc/sh-none-elf/8.2.0/libgcc.a(_div_df.o)
                0x0000000006023880                __divdf3
 .text          0x00000000060239b0       0x58 /joengine/Compiler/LINUX/bin/../lib/gcc/sh-none-elf/8.2.0/libgcc.a(_eq_df.o)
                0x00000000060239b0                __eqdf2
 .text          0x0000000006023a08       0x58 /joengine/Compiler/LINUX/bin/../lib/gcc/sh-none-elf/8.2.0/libgcc.a(_ne_df.o)
                0x0000000006023a08                __nedf2
 .text          0x0000000006023a60       0x50 /joengine/Compiler/LINUX/bin/../lib/gcc/sh-none-elf/8.2.0/libgcc.a(_gt_df.o)
                0x0000000006023a60                __gtdf2
 .text          0x0000000006023ab0       0x50 /joengine/Compiler/LINUX/bin/../lib/gcc/sh-none-elf/8.2.0/libgcc.a(_ge_df.o)
                0x0000000006023ab0                __gedf2
 .text          0x0000000006023b00       0x58 /joengine/Compiler/LINUX/bin/../lib/gcc/sh-none-elf/8.2.0/libgcc.a(_lt_df.o)
                0x0000000006023b00                __ltdf2
 .text          0x0000000006023b58       0x58 /joengine/Compiler/LINUX/bin/../lib/gcc/sh-none-elf/8.2.0/libgcc.a(_le_df.o)
                0x0000000006023b58                __ledf2
 .text          0x0000000006023bb0       0x40 /joengine/Compiler/LINUX/bin/../lib/gcc/sh-none-elf/8.2.0/libgcc.a(_unord_df.o)
                0x0000000006023bb0                __unorddf2
 .text          0x0000000006023bf0       0xa8 /joengine/Compiler/LINUX/bin/../lib/gcc/sh-none-elf/8.2.0/libgcc.a(_si_to_df.o)
                0x0000000006023bf0                __floatsidf
 .text          0x0000000006023c98       0xa4 /joengine/Compiler/LINUX/bin/../lib/gcc/sh-none-elf/8.2.0/libgcc.a(_df_to_si.o)
                0x0000000006023c98                __fixdfsi
 .text          0x0000000006023d3c        0x0 /joengine/Compiler/LINUX/bin/../lib/gcc/sh-none-elf/8.2.0/libgcc.a(_thenan_df.o)
 .text          0x0000000006023d3c       0x88 /joengine/Compiler/LINUX/bin/../lib/gcc/sh-none-elf/8.2.0/libgcc.a(_usi_to_df.o)
                0x0000000006023d3c                __floatunsidf
 *fill*         0x0000000006023dc4        0x4 
 .text          0x0000000006023dc8       0x60 /joengine/Compiler/LINUX/bin/../lib/gcc/sh-none-elf/8.2.0/libgcc.a(_udiv_qrnnd_16.o)
                0x0000000006023dc8                __udiv_qrnnd_16
 .text          0x0000000006023e28        0x0 /joengine/Compiler/LINUX/bin/../lib/gcc/sh-none-elf/8.2.0/libgcc.a(_clz.o)
 .text          0x0000000006023e28       0x58 /joengine/Compiler/LINUX/bin/../lib/gcc/sh-none-elf/8.2.0/libgcc.a(_clzsi2.o)
                0x0000000006023e28                __clzsi2
 .text          0x0000000006023e80      0x25c /joengine/Compiler/LINUX/bin/../lib/gcc/sh-none-elf/8.2.0/libgcc.a(_pack_df.o)
                0x0000000006023e80                __pack_d
 .text          0x00000000060240dc       0xcc /joengine/Compiler/LINUX/bin/../lib/gcc/sh-none-elf/8.2.0/libgcc.a(_unpack_df.o)
                0x00000000060240dc                __unpack_d
 .text          0x00000000060241a8       0xc8 /joengine/Compiler/LINUX/bin/../lib/gcc/sh-none-elf/8.2.0/libgcc.a(_fpcmp_parts_df.o)
                0x00000000060241a8                __fpcmp_parts_d
 *(.strings)
 *(SEGA_P)
 *(.eh_frame_hdr)
 *(.eh_frame)
 .eh_frame      0x0000000006024270       0xa8 /joengine/Compiler/LINUX/bin/../lib/gcc/sh-none-elf/8.2.0/libgcc.a(_udivdi3.o)
 .eh_frame      0x0000000006024318       0xdc /joengine/Compiler/LINUX/bin/../lib/gcc/sh-none-elf/8.2.0/libgcc.a(_umoddi3.o)
                0x00000000060243f4                __etext = .

.text.startup   0x0000000006024400      0xb80
 .text.startup  0x0000000006024400      0xb7c /tmp/ccDKVNpG.ltrans0.ltrans.o
                0x0000000006024400                main

SLPROG          0x0000000006024f80    0x158a0
                0x0000000006024f80                __slprog_start = .
 *(SLPROG)
 SLPROG         0x0000000006024f80     0x6540 /joengine/Compiler/COMMON/SGL_302j/LIB_ELF/SGLAREA.O
                0x0000000006024f80                MasterStack
                0x0000000006024f84                SlaveStack
                0x0000000006024f88                MaxVertices
                0x0000000006024f8a                MaxPolygons
                0x0000000006024f8c                SortList
                0x0000000006024f90                SortListSize
                0x0000000006024f94                TransList
                0x0000000006024f98                Zbuffer
                0x0000000006024f9c                SpriteBuf
                0x0000000006024fa0                SpriteBufSize
                0x0000000006024fa4                Pbuffer
                0x0000000006024fa8                CommandBuf
                0x0000000006024fac                CLOfstBuf
                0x0000000006024fb0                PCM_Work
                0x0000000006024fb4                PCM_WkSize
                0x0000000006024fb8                MaxEvents
                0x0000000006024fba                EventSize
                0x0000000006024fbc                MaxWorks
                0x0000000006024fbe                WorkSize
                0x0000000006024fc0                RemainEvent
                0x00000000060250c0                RemainWork
                0x00000000060254c0                EventBuf
                0x00000000060274c0                WorkBuf
 SLPROG         0x000000000602b4c0     0x411e /joengine/Compiler/COMMON/SGL_302j/LIB_ELF/LIBSGL.A(sglA01.o)
                0x000000000602b4c0                slSin
                0x000000000602b4e4                slCos
                0x000000000602b508                GetSinCos
                0x000000000602b59c                sin_cos_index_tbl
                0x000000000602b5dc                sin_tbl
 *fill*         0x000000000602f5de        0x2 
 SLPROG         0x000000000602f5e0       0x18 /joengine/Compiler/COMMON/SGL_302j/LIB_ELF/LIBSGL.A(sglA15.o)
                0x000000000602f5e0                slSlaveFunc
 *fill*         0x000000000602f5f8        0x8 
 SLPROG         0x000000000602f600       0xd0 /joengine/Compiler/COMMON/SGL_302j/LIB_ELF/LIBSGL.A(sglA16.o)
                0x000000000602f600                slLookAt
 SLPROG         0x000000000602f6d0       0x78 /joengine/Compiler/COMMON/SGL_302j/LIB_ELF/LIBSGL.A(sglA17.o)
                0x000000000602f6d0                slRotZ
                0x000000000602f6da                slRotZSC
 *fill*         0x000000000602f748        0x8 
 SLPROG         0x000000000602f750       0x78 /joengine/Compiler/COMMON/SGL_302j/LIB_ELF/LIBSGL.A(sglA18.o)
                0x000000000602f750                slRotY
                0x000000000602f75a                slRotYSC
 *fill*         0x000000000602f7c8        0x8 
 SLPROG         0x000000000602f7d0       0x78 /joengine/Compiler/COMMON/SGL_302j/LIB_ELF/LIBSGL.A(sglA19.o)
                0x000000000602f7d0                slRotX
                0x000000000602f7da                slRotXSC
 *fill*         0x000000000602f848        0x8 
 SLPROG         0x000000000602f850      0x42c /joengine/Compiler/COMMON/SGL_302j/LIB_ELF/LIBSGL.A(sglA20.o)
                0x000000000602f850                slInitMatrix
                0x000000000602f85a                slPushUnitMatrix
                0x000000000602f86e                slUnitMatrix
 *fill*         0x000000000602fc7c        0x4 
 SLPROG         0x000000000602fc80       0x48 /joengine/Compiler/COMMON/SGL_302j/LIB_ELF/LIBSGL.A(sglA21.o)
                0x000000000602fc80                slPushMatrix
                0x000000000602fcb4                slPopMatrix
                0x000000000602fcb4                slDecMatrixPtr
 *fill*         0x000000000602fcc8        0x8 
 SLPROG         0x000000000602fcd0       0x50 /joengine/Compiler/COMMON/SGL_302j/LIB_ELF/LIBSGL.A(sglA27.o)
                0x000000000602fcd0                slTranslate
 SLPROG         0x000000000602fd20       0x70 /joengine/Compiler/COMMON/SGL_302j/LIB_ELF/LIBSGL.A(sglA28.o)
                0x000000000602fd20                slScale
 SLPROG         0x000000000602fd90       0x22 /joengine/Compiler/COMMON/SGL_302j/LIB_ELF/LIBSGL.A(sglA40.o)
                0x000000000602fd90                slCalcVector
 *fill*         0x000000000602fdb2        0xe 
 SLPROG         0x000000000602fdc0       0x20 /joengine/Compiler/COMMON/SGL_302j/LIB_ELF/LIBSGL.A(sglB001.o)
                0x000000000602fdc0                slTVOn
                0x000000000602fdca                slTVOff
 SLPROG         0x000000000602fde0       0x24 /joengine/Compiler/COMMON/SGL_302j/LIB_ELF/LIBSGL.A(sglB011.o)
                0x000000000602fde0                slBitMapNbg1
 *fill*         0x000000000602fe04        0xc 
 SLPROG         0x000000000602fe10        0x8 /joengine/Compiler/COMMON/SGL_302j/LIB_ELF/LIBSGL.A(sglB014.o)
                0x000000000602fe10                slScrTransparent
 *fill*         0x000000000602fe18        0x8 
 SLPROG         0x000000000602fe20      0x40c /joengine/Compiler/COMMON/SGL_302j/LIB_ELF/LIBSGL.A(sglB015.o)
                0x000000000602fe20                slScrAutoDisp
 *fill*         0x000000000603022c        0x4 
 SLPROG         0x0000000006030230        0xc /joengine/Compiler/COMMON/SGL_302j/LIB_ELF/LIBSGL.A(sglB016.o)
                0x0000000006030230                slBack1ColSet
 *fill*         0x000000000603023c        0x4 
 SLPROG         0x0000000006030240       0x10 /joengine/Compiler/COMMON/SGL_302j/LIB_ELF/LIBSGL.A(sglB020.o)
                0x0000000006030240                slColorCalc
 SLPROG         0x0000000006030250        0xc /joengine/Compiler/COMMON/SGL_302j/LIB_ELF/LIBSGL.A(sglB021.o)
                0x0000000006030250                slColorCalcOn
 *fill*         0x000000000603025c        0x4 
 SLPROG         0x0000000006030260        0xc /joengine/Compiler/COMMON/SGL_302j/LIB_ELF/LIBSGL.A(sglB023.o)
                0x0000000006030260                slColRate
 *fill*         0x000000000603026c        0x4 
 SLPROG         0x0000000006030270       0xb0 /joengine/Compiler/COMMON/SGL_302j/LIB_ELF/LIBSGL.A(sglB031.o)
                0x0000000006030270                slMapNbg0
 SLPROG         0x0000000006030320       0xb4 /joengine/Compiler/COMMON/SGL_302j/LIB_ELF/LIBSGL.A(sglB032.o)
                0x0000000006030320                slMapNbg1
 *fill*         0x00000000060303d4        0xc 
 SLPROG         0x00000000060303e0       0xb0 /joengine/Compiler/COMMON/SGL_302j/LIB_ELF/LIBSGL.A(sglB033.o)
                0x00000000060303e0                slMapNbg2
 SLPROG         0x0000000006030490       0xb4 /joengine/Compiler/COMMON/SGL_302j/LIB_ELF/LIBSGL.A(sglB034.o)
                0x0000000006030490                slMapNbg3
 *fill*         0x0000000006030544        0xc 
 SLPROG         0x0000000006030550       0xd4 /joengine/Compiler/COMMON/SGL_302j/LIB_ELF/LIBSGL.A(sglB035.o)
                0x0000000006030550                sl1MapRA
                0x00000000060305e2                rbank_set
 *fill*         0x0000000006030624        0xc 
 SLPROG         0x0000000006030630       0xa0 /joengine/Compiler/COMMON/SGL_302j/LIB_ELF/LIBSGL.A(sglB036.o)
                0x0000000006030630                sl1MapRB
 SLPROG         0x00000000060306d0       0x70 /joengine/Compiler/COMMON/SGL_302j/LIB_ELF/LIBSGL.A(sglB038.o)
                0x00000000060306d0                slRparaInitSet
 SLPROG         0x0000000006030740       0x7e /joengine/Compiler/COMMON/SGL_302j/LIB_ELF/LIBSGL.A(sglB039.o)
                0x0000000006030740                slMakeKtable
 *fill*         0x00000000060307be        0x2 
 SLPROG         0x00000000060307c0       0x58 /joengine/Compiler/COMMON/SGL_302j/LIB_ELF/LIBSGL.A(sglB040.o)
                0x00000000060307c0                slKtableRA
 *fill*         0x0000000006030818        0x8 
 SLPROG         0x0000000006030820       0x5c /joengine/Compiler/COMMON/SGL_302j/LIB_ELF/LIBSGL.A(sglB041.o)
                0x0000000006030820                slKtableRB
 *fill*         0x000000000603087c        0x4 
 SLPROG         0x0000000006030880       0x10 /joengine/Compiler/COMMON/SGL_302j/LIB_ELF/LIBSGL.A(sglB042.o)
                0x0000000006030880                slCurRpara
 SLPROG         0x0000000006030890        0x8 /joengine/Compiler/COMMON/SGL_302j/LIB_ELF/LIBSGL.A(sglB043.o)
                0x0000000006030890                slRparaMode
 *fill*         0x0000000006030898        0x8 
 SLPROG         0x00000000060308a0      0x4e4 /joengine/Compiler/COMMON/SGL_302j/LIB_ELF/LIBSGL.A(sglB044.o)
                0x00000000060308a0                slScrMatSet
 *fill*         0x0000000006030d84        0xc 
 SLPROG         0x0000000006030d90       0x28 /joengine/Compiler/COMMON/SGL_302j/LIB_ELF/LIBSGL.A(sglB045.o)
                0x0000000006030d90                slScrMatConv
 *fill*         0x0000000006030db8        0x8 
 SLPROG         0x0000000006030dc0        0xc /joengine/Compiler/COMMON/SGL_302j/LIB_ELF/LIBSGL.A(sglB047.o)
                0x0000000006030dc0                slOverRA
 *fill*         0x0000000006030dcc        0x4 
 SLPROG         0x0000000006030dd0       0x10 /joengine/Compiler/COMMON/SGL_302j/LIB_ELF/LIBSGL.A(sglB048.o)
                0x0000000006030dd0                slOverRB
 SLPROG         0x0000000006030de0        0xc /joengine/Compiler/COMMON/SGL_302j/LIB_ELF/LIBSGL.A(sglB055.o)
                0x0000000006030de0                slPlaneNbg0
 *fill*         0x0000000006030dec        0x4 
 SLPROG         0x0000000006030df0        0xc /joengine/Compiler/COMMON/SGL_302j/LIB_ELF/LIBSGL.A(sglB056.o)
                0x0000000006030df0                slPlaneNbg1
 *fill*         0x0000000006030dfc        0x4 
 SLPROG         0x0000000006030e00       0x10 /joengine/Compiler/COMMON/SGL_302j/LIB_ELF/LIBSGL.A(sglB057.o)
                0x0000000006030e00                slPlaneNbg2
 SLPROG         0x0000000006030e10       0x10 /joengine/Compiler/COMMON/SGL_302j/LIB_ELF/LIBSGL.A(sglB058.o)
                0x0000000006030e10                slPlaneNbg3
 SLPROG         0x0000000006030e20        0xc /joengine/Compiler/COMMON/SGL_302j/LIB_ELF/LIBSGL.A(sglB059.o)
                0x0000000006030e20                slPlaneRA
 *fill*         0x0000000006030e2c        0x4 
 SLPROG         0x0000000006030e30       0x10 /joengine/Compiler/COMMON/SGL_302j/LIB_ELF/LIBSGL.A(sglB060.o)
                0x0000000006030e30                slPlaneRB
 SLPROG         0x0000000006030e40        0xc /joengine/Compiler/COMMON/SGL_302j/LIB_ELF/LIBSGL.A(sglB063.o)
                0x0000000006030e40                slPriority
 *fill*         0x0000000006030e4c        0x4 
 SLPROG         0x0000000006030e50       0x18 /joengine/Compiler/COMMON/SGL_302j/LIB_ELF/LIBSGL.A(sglB087.o)
                0x0000000006030e50                slLineScrollTable0
 *fill*         0x0000000006030e68        0x8 
 SLPROG         0x0000000006030e70        0x8 /joengine/Compiler/COMMON/SGL_302j/LIB_ELF/LIBSGL.A(sglB088.o)
                0x0000000006030e70                slLineScrollTable1
 *fill*         0x0000000006030e78        0x8 
 SLPROG         0x0000000006030e80        0xc /joengine/Compiler/COMMON/SGL_302j/LIB_ELF/LIBSGL.A(sglB090.o)
                0x0000000006030e80                slLineScrollMode
 *fill*         0x0000000006030e8c        0x4 
 SLPROG         0x0000000006030e90      0x114 /joengine/Compiler/COMMON/SGL_302j/LIB_ELF/LIBSGL.A(sglB200.o)
                0x0000000006030e90                slCharRbg0
                0x0000000006030e9c                slCharNbg0
                0x0000000006030ea8                slCharNbg1
                0x0000000006030eb4                slCharNbg2
                0x0000000006030eca                slCharNbg3
                0x0000000006030ee2                slPageRbg0
                0x0000000006030ef8                slPageNbg1
                0x0000000006030f00                slPageNbg2
                0x0000000006030f08                slPageNbg3
                0x0000000006030f14                slPageNbg0
 *fill*         0x0000000006030fa4        0xc 
 SLPROG         0x0000000006030fb0       0x6c /joengine/Compiler/COMMON/SGL_302j/LIB_ELF/LIBSGL.A(sglC01.o)
                0x0000000006030fb0                slPerspective
 *fill*         0x000000000603101c        0x4 
 SLPROG         0x0000000006031020       0xc4 /joengine/Compiler/COMMON/SGL_302j/LIB_ELF/LIBSGL.A(sglC03.o)
                0x0000000006031020                slWindow
 *fill*         0x00000000060310e4        0xc 
 SLPROG         0x00000000060310f0       0x2c /joengine/Compiler/COMMON/SGL_302j/LIB_ELF/LIBSGL.A(sglC04.o)
                0x00000000060310f0                slZdspLevel
 *fill*         0x000000000603111c        0x4 
 SLPROG         0x0000000006031120       0x78 /joengine/Compiler/COMMON/SGL_302j/LIB_ELF/LIBSGL.A(sglC05.o)
                0x0000000006031120                slSetSprite
 *fill*         0x0000000006031198        0x8 
 SLPROG         0x00000000060311a0       0xfa /joengine/Compiler/COMMON/SGL_302j/LIB_ELF/LIBSGL.A(sglC06.o)
                0x00000000060311a0                slDispSprite
 *fill*         0x000000000603129a        0x6 
 SLPROG         0x00000000060312a0      0x162 /joengine/Compiler/COMMON/SGL_302j/LIB_ELF/LIBSGL.A(sglC07.o)
                0x00000000060312a6                slPutSprite
 *fill*         0x0000000006031402        0xe 
 SLPROG         0x0000000006031410     0x1218 /joengine/Compiler/COMMON/SGL_302j/LIB_ELF/LIBSGL.A(sglC08.o)
                0x0000000006031410                slPutPolygon
                0x000000000603208c                MsCalcDepthFlat
 *fill*         0x0000000006032628        0x8 
 SLPROG         0x0000000006032630       0x8c /joengine/Compiler/COMMON/SGL_302j/LIB_ELF/LIBSGL.A(sglC14.o)
                0x0000000006032630                slCurWindow
 *fill*         0x00000000060326bc        0x4 
 SLPROG         0x00000000060326c0       0x54 /joengine/Compiler/COMMON/SGL_302j/LIB_ELF/LIBSGL.A(sglC16.o)
                0x00000000060326c0                slDynamicFrame
 *fill*         0x0000000006032714        0xc 
 SLPROG         0x0000000006032720       0x4c /joengine/Compiler/COMMON/SGL_302j/LIB_ELF/LIBSGL.A(sglC17.o)
                0x0000000006032720                slDispSpriteHV
 *fill*         0x000000000603276c        0x4 
 SLPROG         0x0000000006032770       0xd4 /joengine/Compiler/COMMON/SGL_302j/LIB_ELF/LIBSGL.A(sglC19.o)
                0x0000000006032770                slDispSprite4P
 *fill*         0x0000000006032844        0xc 
 SLPROG         0x0000000006032850       0x40 /joengine/Compiler/COMMON/SGL_302j/LIB_ELF/LIBSGL.A(sglC20.o)
                0x0000000006032850                SpriteEntry
 SLPROG         0x0000000006032890      0x4ae /joengine/Compiler/COMMON/SGL_302j/LIB_ELF/LIBSGL.A(sglC21.o)
                0x0000000006032918                RotSprite
                0x00000000060329a6                SetSprPosition
 *fill*         0x0000000006032d3e        0x2 
 SLPROG         0x0000000006032d40       0x84 /joengine/Compiler/COMMON/SGL_302j/LIB_ELF/LIBSGL.A(sglD00.o)
                0x0000000006032d40                slDMACopy
                0x0000000006032d40                slCpuDMACopy
                0x0000000006032d9a                slCashPurge
                0x0000000006032d9a                CSH_AllClr
 *fill*         0x0000000006032dc4        0xc 
 SLPROG         0x0000000006032dd0       0xa0 /joengine/Compiler/COMMON/SGL_302j/LIB_ELF/LIBSGL.A(sglD01.o)
                0x0000000006032dd0                slDMAXCopy
 SLPROG         0x0000000006032e70       0x10 /joengine/Compiler/COMMON/SGL_302j/LIB_ELF/LIBSGL.A(sglD02.o)
                0x0000000006032e70                slDMAWait
 SLPROG         0x0000000006032e80        0xc /joengine/Compiler/COMMON/SGL_302j/LIB_ELF/LIBSGL.A(sglD03.o)
                0x0000000006032e80                slDMAStatus
 *fill*         0x0000000006032e8c        0x4 
 SLPROG         0x0000000006032e90       0x20 /joengine/Compiler/COMMON/SGL_302j/LIB_ELF/LIBSGL.A(sglD15.o)
                0x0000000006032e90                CSH_Purge
 SLPROG         0x0000000006032eb0       0x84 /joengine/Compiler/COMMON/SGL_302j/LIB_ELF/LIBSGL.A(sglD16.o)
                0x0000000006032eb0                DMA_ScuSetPrm
                0x0000000006032ef8                DMA_SCU_PRM0
 *fill*         0x0000000006032f34        0xc 
 SLPROG         0x0000000006032f40       0x88 /joengine/Compiler/COMMON/SGL_302j/LIB_ELF/LIBSGL.A(sglD17.o)
                0x0000000006032f40                DMA_ScuStart
 *fill*         0x0000000006032fc8        0x8 
 SLPROG         0x0000000006032fd0       0x34 /joengine/Compiler/COMMON/SGL_302j/LIB_ELF/LIBSGL.A(sglD18.o)
                0x0000000006032fd0                DMA_ScuGetStatus
 *fill*         0x0000000006033004        0xc 
 SLPROG         0x0000000006033010       0x34 /joengine/Compiler/COMMON/SGL_302j/LIB_ELF/LIBSGL.A(sglF08.o)
                0x0000000006033010                slDec2Hex
 *fill*         0x0000000006033044        0xc 
 SLPROG         0x0000000006033050      0xfc8 /joengine/Compiler/COMMON/SGL_302j/LIB_ELF/LIBSGL.A(sglH00.o)
                0x0000000006033068                slGetPortDir1
                0x0000000006033070                slGetPortDir2
                0x0000000006033078                slSetPortDir1
                0x00000000060330a2                slSetPortDir2
                0x00000000060330dc                slGetPortData1
                0x00000000060330e4                slGetPortData2
                0x00000000060330ec                slSetPortData1
                0x00000000060330f6                slSetPortData2
                0x0000000006033108                slGetPortSelect1
                0x0000000006033112                slGetPortSelect2
                0x000000000603311c                slSetPortSelect1
                0x0000000006033150                slSetPortSelect2
                0x000000000603318c                slGetPortExt1
                0x0000000006033196                slGetPortExt2
                0x00000000060331a0                slSetPortExt1
                0x00000000060331d0                slSetPortExt2
                0x0000000006033344                slSmpcDirectAccess
                0x00000000060333c4                slInitPeripheral
                0x0000000006033456                slSetResultBuffer
                0x00000000060334e2                slCheckIntBackSet
                0x00000000060334ee                slIntBackCancel
                0x0000000006033518                slCheckReset
                0x0000000006033522                slClearReset
                0x00000000060336e8                slSmpcCashSend
                0x00000000060337a4                slSmpcCashBlow
                0x0000000006033880                slGetOptimize
                0x000000000603388a                slSetOptimize
                0x00000000060338b0                slGetPortMode1
                0x00000000060338bc                slGetPortMode2
                0x00000000060338ca                slSetPortMode1
                0x0000000006033908                slSetPortMode2
                0x0000000006033a94                slRequestCommand
                0x0000000006033b04                Smpc_Status
                0x0000000006033b08                Smpc_Result
                0x0000000006033b0c                Smpc_Peripheral
                0x0000000006033b12                Per_Connect1
                0x0000000006033b13                Per_Connect2
                0x0000000006033b34                SmpcStatusBuf
 *fill*         0x0000000006034018        0x8 
 SLPROG         0x0000000006034020       0xa8 /joengine/Compiler/COMMON/SGL_302j/LIB_ELF/LIBSGL.A(sglH01.o)
                0x0000000006034020                slGetLanguage
                0x000000000603402a                slSetLanguage
                0x000000000603404c                slGetSoundEffect
                0x0000000006034058                slSetSoundEffect
                0x0000000006034074                slGetSoundOutput
                0x0000000006034080                slSetSoundOutput
                0x000000000603409c                slGetHelpWindow
                0x00000000060340a8                slSetHelpWindow
 *fill*         0x00000000060340c8        0x8 
 SLPROG         0x00000000060340d0      0x470 /joengine/Compiler/COMMON/SGL_302j/LIB_ELF/LIBSGL.A(sglH02.o)
                0x00000000060344c0                smpc_pfr_tbl
                0x0000000006034500                smpc_ptf_tbl
 SLPROG         0x0000000006034540       0x60 /joengine/Compiler/COMMON/SGL_302j/LIB_ELF/LIBSGL.A(sglH04.o)
                0x0000000006034540                slComPrmIntBack
                0x0000000006034554                slComPrmSetMemory
                0x000000000603456a                slComPrmSetTime
 SLPROG         0x00000000060345a0      0x3a4 /joengine/Compiler/COMMON/SGL_302j/LIB_ELF/LIBSGL.A(sglI01.o)
                0x00000000060345a0                slInitSynch
                0x00000000060345ba                slSynch
                0x00000000060346b0                slRandom
                0x00000000060346ce                PCM_EndCheck
                0x000000000603478a                RetPCMBuf
                0x0000000006034824                PCM_Buf
                0x00000000060348c4                Sound_Buf
 *fill*         0x0000000006034944        0xc 
 SLPROG         0x0000000006034950       0x10 /joengine/Compiler/COMMON/SGL_302j/LIB_ELF/LIBSGL.A(sglI04.o)
                0x0000000006034950                slIntFunction
 SLPROG         0x0000000006034960       0x74 /joengine/Compiler/COMMON/SGL_302j/LIB_ELF/LIBSGL.A(sglJ00.o)
                0x0000000006034960                InitSlaveSH
                0x00000000060349c8                SlaveCommand
 *fill*         0x00000000060349d4        0xc 
 SLPROG         0x00000000060349e0      0x3d0 /joengine/Compiler/COMMON/SGL_302j/LIB_ELF/LIBSGL.A(sglJ01.o)
                0x00000000060349e0                SlaveControl
                0x0000000006034d9c                ErasePolygonData
 SLPROG         0x0000000006034db0     0x12b8 /joengine/Compiler/COMMON/SGL_302j/LIB_ELF/LIBSGL.A(sglJ02.o)
                0x0000000006034db0                sbMakePolygon
                0x0000000006034f98                sbCalcPolygon
                0x0000000006035cd0                SetTexture
                0x0000000006035cdc                SetPolygon
                0x0000000006035ce4                SetPosition
                0x0000000006035d1c                stvtc_4
                0x0000000006035dd4                stvtc_3
                0x0000000006035fe4                stvtc_1
                0x0000000006035ff8                stvtc_2
                0x000000000603600c                stvtc_0
 *fill*         0x0000000006036068        0x8 
 SLPROG         0x0000000006036070      0x140 /joengine/Compiler/COMMON/SGL_302j/LIB_ELF/LIBSGL.A(sglJ03.o)
                0x0000000006036070                sbMakeDMATable
 SLPROG         0x00000000060361b0      0x470 /joengine/Compiler/COMMON/SGL_302j/LIB_ELF/LIBSGL.A(sglJ04.o)
                0x000000000603620e                sbMakeSprite
                0x0000000006036274                sbMakeRotSprite
 SLPROG         0x0000000006036620       0x3c /joengine/Compiler/COMMON/SGL_302j/LIB_ELF/LIBSGL.A(sglJ05.o)
                0x0000000006036620                sbSortEntry
 *fill*         0x000000000603665c        0x4 
 SLPROG         0x0000000006036660      0x4b8 /joengine/Compiler/COMMON/SGL_302j/LIB_ELF/LIBSGL.A(sglM00.o)
                0x0000000006036660                slInitGouraud
                0x0000000006036754                slPutPolygonX
                0x000000000603679a                slGouraudTblCopy
                0x00000000060367f2                slSetGouraudTbl
                0x00000000060367f8                slSetGouraudColor
                0x0000000006036870                slSetAmbient
                0x0000000006036894                slSetFlatColor
 *fill*         0x0000000006036b18        0x8 
 SLPROG         0x0000000006036b20       0x6a /joengine/Compiler/COMMON/SGL_302j/LIB_ELF/LIBSGL.A(sglM01.o)
                0x0000000006036b20                slSetDepthLimit
                0x0000000006036b4c                slSetDepthTbl
                0x0000000006036b7c                DepthWorkArea
 *fill*         0x0000000006036b8a        0x6 
 SLPROG         0x0000000006036b90       0x20 /joengine/Compiler/COMMON/SGL_302j/LIB_ELF/LIBSGL.A(sglA00.o)
                0x0000000006036b90                set_imask
                0x0000000006036b90                _builtin_set_imask
                0x0000000006036ba4                get_imask
                0x0000000006036ba4                _builtin_get_imask
 SLPROG         0x0000000006036bb0     0x215c /joengine/Compiler/COMMON/SGL_302j/LIB_ELF/LIBSGL.A(sglA03.o)
                0x0000000006036bb0                slTan
 *fill*         0x0000000006038d0c        0x4 
 SLPROG         0x0000000006038d10       0x34 /joengine/Compiler/COMMON/SGL_302j/LIB_ELF/LIBSGL.A(sglA10.o)
                0x0000000006038d10                slSquartDbl
 *fill*         0x0000000006038d44        0xc 
 SLPROG         0x0000000006038d50      0x3c2 /joengine/Compiler/COMMON/SGL_302j/LIB_ELF/LIBSGL.A(sglA24.o)
                0x0000000006038d50                slInversMatrix
 *fill*         0x0000000006039112        0xe 
 SLPROG         0x0000000006039120       0x24 /joengine/Compiler/COMMON/SGL_302j/LIB_ELF/LIBSGL.A(sglA25.o)
                0x0000000006039120                slTransposeMatrix
 *fill*         0x0000000006039144        0xc 
 SLPROG         0x0000000006039150      0xbd0 /joengine/Compiler/COMMON/SGL_302j/LIB_ELF/LIBSGL.A(sglB000.o)
                0x0000000006039150                slInitScroll
                0x0000000006039270                setASC_1to8
                0x00000000060392a0                setASC_4to8
                0x00000000060393b0                TVSizeTbl
                0x0000000006039430                TVModeTbl
                0x0000000006039608                SGL_ASCII_CG
 SLPROG         0x0000000006039d20      0x134 /joengine/Compiler/COMMON/SGL_302j/LIB_ELF/LIBSGL.A(sglC00.o)
                0x0000000006039d20                slInitSprite
 *fill*         0x0000000006039e54        0xc 
 SLPROG         0x0000000006039e60       0xac /joengine/Compiler/COMMON/SGL_302j/LIB_ELF/LIBSGL.A(sglC13.o)
                0x0000000006039e60                slPutPolygonS
 *fill*         0x0000000006039f0c        0x4 
 SLPROG         0x0000000006039f10       0xc0 /joengine/Compiler/COMMON/SGL_302j/LIB_ELF/LIBSGL.A(sglD19.o)
                0x0000000006039f10                DMA_ScuMemCopy
 SLPROG         0x0000000006039fd0      0x75c /joengine/Compiler/COMMON/SGL_302j/LIB_ELF/LIBSGL.A(sglI00.o)
                0x000000000603a2c0                slInitInterrupt
 *fill*         0x000000000603a72c        0x4 
 SLPROG         0x000000000603a730       0xf0 /joengine/Compiler/COMMON/SGL_302j/LIB_ELF/LIBSGL.A(sglH03.o)
                0x000000000603a794                slSmpcIntBack
                0x000000000603a820                __slprog_end = .

.tors           0x000000000603a820        0x0
                0x000000000603a820                ___ctors = .
 *(.ctors)
                0x000000000603a820                ___ctors_end = .
                0x000000000603a820                ___dtors = .
 *(.dtors)
                0x000000000603a820                ___dtors_end = .

.data           0x000000000603a820     0xe530
 *(.data)
 .data          0x000000000603a820        0x0 /joengine/Compiler/COMMON/SGL_302j/LIB_ELF/SGLAREA.O
 .data          0x000000000603a820     0xc488 /tmp/ccDKVNpG.ltrans0.ltrans.o
                0x0000000006044500                xpdata_P8_CAR
                0x0000000006044518                xpdata_P7_CAR
                0x0000000006044530                xpdata_P6_CAR
                0x0000000006044548                xpdata_P5_CAR
                0x0000000006044560                xpdata_P4_CAR
                0x0000000006044578                xpdata_P3_CAR
                0x0000000006044590                xpdata_P2_CAR
                0x00000000060445a8                xpdata_P1_CAR
                0x0000000006044cc0                P4_S_PALETTE
                0x0000000006044ce0                P3_S_PALETTE
                0x0000000006044d00                P2_S_PALETTE
                0x0000000006045ab4                P1_S_PALETTE
                0x0000000006045be4                P4_FBIRD2
                0x0000000006045bf0                P4_FBIRD1
                0x0000000006045bfc                P4_FIVE
                0x0000000006045c08                P4_36
                0x0000000006045c14                P4_35
                0x0000000006045c20                P4_34
                0x0000000006045c2c                P4_33
                0x0000000006045c38                P4_32
                0x0000000006045c44                P4_25
                0x0000000006045c50                P4_24
                0x0000000006045c5c                P4_23
                0x0000000006045c68                P4_22
                0x0000000006045c74                P4_21
                0x0000000006045c80                P4_20
                0x0000000006045c8c                P4_19
                0x0000000006045c98                P4_18
                0x0000000006045ca4                P4_17
                0x0000000006045cb0                P4_16
                0x0000000006045cbc                P4_15
                0x0000000006045cc8                P4_14
                0x0000000006045cd4                P4_13
                0x0000000006045ce0                P4_12
                0x0000000006045cec                P4_11
                0x0000000006045cf8                P4_10
                0x0000000006045d04                P4_09
                0x0000000006045d10                P4_08
                0x0000000006045d1c                P4_07
                0x0000000006045d28                P4_06
                0x0000000006045d34                P4_05
                0x0000000006045d40                P4_04
                0x0000000006045d4c                P4_03
                0x0000000006045d58                P4_02
                0x0000000006045d64                P4_01
                0x0000000006045d70                P3_FBIRD2
                0x0000000006045d7c                P3_FBIRD1
                0x0000000006045d88                P3_FIVE
                0x0000000006045d94                P3_36
                0x0000000006045da0                P3_35
                0x0000000006045dac                P3_34
                0x0000000006045db8                P3_33
                0x0000000006045dc4                P3_32
                0x0000000006045dd0                P3_25
                0x0000000006045ddc                P3_24
                0x0000000006045de8                P3_23
                0x0000000006045df4                P3_22
                0x0000000006045e00                P3_21
                0x0000000006045e0c                P3_20
                0x0000000006045e18                P3_19
                0x0000000006045e24                P3_18
                0x0000000006045e30                P3_17
                0x0000000006045e3c                P3_16
                0x0000000006045e48                P3_15
                0x0000000006045e54                P3_14
                0x0000000006045e60                P3_13
                0x0000000006045e6c                P3_12
                0x0000000006045e78                P3_11
                0x0000000006045e84                P3_10
                0x0000000006045e90                P3_09
                0x0000000006045e9c                P3_08
                0x0000000006045ea8                P3_07
                0x0000000006045eb4                P3_06
                0x0000000006045ec0                P3_05
                0x0000000006045ecc                P3_04
                0x0000000006045ed8                P3_03
                0x0000000006045ee4                P3_02
                0x0000000006045ef0                P3_01
                0x0000000006045efc                P2_FBIRD2
                0x0000000006045f08                P2_FBIRD1
                0x0000000006045f14                P2_FIVE
                0x0000000006045f20                P2_36
                0x0000000006045f2c                P2_35
                0x0000000006045f38                P2_34
                0x0000000006045f44                P2_33
                0x0000000006045f50                P2_32
                0x0000000006045f5c                P2_25
                0x0000000006045f68                P2_24
                0x0000000006045f74                P2_23
                0x0000000006045f80                P2_22
                0x0000000006045f8c                P2_21
                0x0000000006045f98                P2_20
                0x0000000006045fa4                P2_19
                0x0000000006045fb0                P2_18
                0x0000000006045fbc                P2_17
                0x0000000006045fc8                P2_16
                0x0000000006045fd4                P2_15
                0x0000000006045fe0                P2_14
                0x0000000006045fec                P2_13
                0x0000000006045ff8                P2_12
                0x0000000006046004                P2_11
                0x0000000006046010                P2_10
                0x000000000604601c                P2_09
                0x0000000006046028                P2_08
                0x0000000006046034                P2_07
                0x0000000006046040                P2_06
                0x000000000604604c                P2_05
                0x0000000006046058                P2_04
                0x0000000006046064                P2_03
                0x0000000006046070                P2_02
                0x000000000604607c                P2_01
                0x0000000006046088                P1_FBIRD2
                0x0000000006046094                P1_FBIRD1
                0x00000000060460a0                P1_FIVE
                0x00000000060460ac                P1_36
                0x00000000060460b8                P1_35
                0x00000000060460c4                P1_34
                0x00000000060460d0                P1_33
                0x00000000060460dc                P1_32
                0x00000000060460e8                P1_25
                0x00000000060460f4                P1_24
                0x0000000006046100                P1_23
                0x000000000604610c                P1_22
                0x0000000006046118                P1_21
                0x0000000006046124                P1_20
                0x0000000006046130                P1_19
                0x000000000604613c                P1_18
                0x0000000006046148                P1_17
                0x0000000006046154                P1_16
                0x0000000006046160                P1_15
                0x000000000604616c                P1_14
                0x0000000006046178                P1_13
                0x0000000006046184                P1_12
                0x0000000006046190                P1_11
                0x000000000604619c                P1_10
                0x00000000060461a8                P1_09
                0x00000000060461b4                P1_08
                0x00000000060461c0                P1_07
                0x00000000060461cc                P1_06
                0x00000000060461d8                P1_05
                0x00000000060461e4                P1_04
                0x00000000060461f0                P1_03
                0x00000000060461fc                P1_02
                0x0000000006046208                P1_01
                0x00000000060463ac                s_is_local.lto_priv.611
                0x00000000060463b0                show_level_map.lto_priv.617
                0x00000000060463b1                cam_mode
                0x00000000060463e8                level_data
                0x0000000006046b94                xpdata_WHEEL_RL
                0x0000000006046bac                xpdata_WHEEL_RR
                0x0000000006046bc4                xpdata_WHEEL_FL
                0x0000000006046bdc                xpdata_WHEEL_FR
                0x0000000006046c70                __jo_sprite_id.lto_priv.625
                0x0000000006046c74                __jo_cram.lto_priv.610
                0x0000000006046c78                __jo_a0.lto_priv.609
                0x0000000006046c7c                __jo_b0.lto_priv.607
                0x0000000006046c80                __jo_b1.lto_priv.605
                0x0000000006046c84                __jo_sprite_pos
                0x0000000006046c90                __jo_sprite_attributes
 .data          0x0000000006046ca8     0x1a84 /tmp/ccDKVNpG.ltrans1.ltrans.o
 *fill*         0x000000000604872c        0x4 
 .data          0x0000000006048730        0x0 /joengine/Compiler/COMMON/SGL_302j/LIB_ELF/SEGA_SYS.A(sys_exit.o)
 .data          0x0000000006048730        0x0 /joengine/Compiler/COMMON/SGL_302j/LIB_ELF/SEGA_SYS.A(sys_sub.o)
 .data          0x0000000006048730        0x0 /joengine/Compiler/COMMON/SGL_302j/LIB_ELF/LIBCD.A(CDC_CMN.O)
 .data          0x0000000006048730        0x0 /joengine/Compiler/COMMON/SGL_302j/LIB_ELF/LIBCD.A(CDC_DRV.O)
 .data          0x0000000006048730        0x0 /joengine/Compiler/COMMON/SGL_302j/LIB_ELF/LIBCD.A(CDC_CFS.O)
 .data          0x0000000006048730        0x0 /joengine/Compiler/COMMON/SGL_302j/LIB_ELF/LIBCD.A(CDC_REG.O)
 .data          0x0000000006048730        0x0 /joengine/Compiler/COMMON/SGL_302j/LIB_ELF/LIBCD.A(CDC_SUB.O)
 .data          0x0000000006048730        0x0 /joengine/Compiler/COMMON/SGL_302j/LIB_ELF/LIBCD.A(GFS.O)
 .data          0x0000000006048730        0x0 /joengine/Compiler/COMMON/SGL_302j/LIB_ELF/LIBCD.A(GFS_BUF.O)
 .data          0x0000000006048730        0x0 /joengine/Compiler/COMMON/SGL_302j/LIB_ELF/LIBCD.A(GFS_CDB.O)
 .data          0x0000000006048730        0x0 /joengine/Compiler/COMMON/SGL_302j/LIB_ELF/LIBCD.A(GFS_CDC.O)
 .data          0x0000000006048730        0x0 /joengine/Compiler/COMMON/SGL_302j/LIB_ELF/LIBCD.A(GFS_CDF.O)
 .data          0x0000000006048730        0x0 /joengine/Compiler/COMMON/SGL_302j/LIB_ELF/LIBCD.A(GFS_DIR.O)
 .data          0x0000000006048730        0x0 /joengine/Compiler/COMMON/SGL_302j/LIB_ELF/LIBCD.A(GFS_TRN.O)
 .data          0x0000000006048730        0x0 /joengine/Compiler/COMMON/SGL_302j/LIB_ELF/LIBCD.A(CDC_DEV.O)
 .data          0x0000000006048730        0x0 /joengine/Compiler/COMMON/SGL_302j/LIB_ELF/LIBCD.A(CDC_SEL.O)
 .data          0x0000000006048730        0x0 /joengine/Compiler/COMMON/SGL_302j/LIB_ELF/LIBCD.A(CDC_BIF.O)
 .data          0x0000000006048730        0x0 /joengine/Compiler/COMMON/SGL_302j/LIB_ELF/LIBCD.A(CDC_BIO.O)
 .data          0x0000000006048730        0x0 /joengine/Compiler/COMMON/SGL_302j/LIB_ELF/LIBSGL.A(sglA01.o)
 .data          0x0000000006048730        0x0 /joengine/Compiler/COMMON/SGL_302j/LIB_ELF/LIBSGL.A(sglA15.o)
 .data          0x0000000006048730        0x0 /joengine/Compiler/COMMON/SGL_302j/LIB_ELF/LIBSGL.A(sglA16.o)
 .data          0x0000000006048730        0x0 /joengine/Compiler/COMMON/SGL_302j/LIB_ELF/LIBSGL.A(sglA17.o)
 .data          0x0000000006048730        0x0 /joengine/Compiler/COMMON/SGL_302j/LIB_ELF/LIBSGL.A(sglA18.o)
 .data          0x0000000006048730        0x0 /joengine/Compiler/COMMON/SGL_302j/LIB_ELF/LIBSGL.A(sglA19.o)
 .data          0x0000000006048730        0x0 /joengine/Compiler/COMMON/SGL_302j/LIB_ELF/LIBSGL.A(sglA20.o)
 .data          0x0000000006048730        0x0 /joengine/Compiler/COMMON/SGL_302j/LIB_ELF/LIBSGL.A(sglA21.o)
 .data          0x0000000006048730        0x0 /joengine/Compiler/COMMON/SGL_302j/LIB_ELF/LIBSGL.A(sglA27.o)
 .data          0x0000000006048730        0x0 /joengine/Compiler/COMMON/SGL_302j/LIB_ELF/LIBSGL.A(sglA28.o)
 .data          0x0000000006048730        0x0 /joengine/Compiler/COMMON/SGL_302j/LIB_ELF/LIBSGL.A(sglA40.o)
 .data          0x0000000006048730        0x0 /joengine/Compiler/COMMON/SGL_302j/LIB_ELF/LIBSGL.A(sglB001.o)
 .data          0x0000000006048730        0x0 /joengine/Compiler/COMMON/SGL_302j/LIB_ELF/LIBSGL.A(sglB011.o)
 .data          0x0000000006048730        0x0 /joengine/Compiler/COMMON/SGL_302j/LIB_ELF/LIBSGL.A(sglB014.o)
 .data          0x0000000006048730        0x0 /joengine/Compiler/COMMON/SGL_302j/LIB_ELF/LIBSGL.A(sglB015.o)
 .data          0x0000000006048730        0x0 /joengine/Compiler/COMMON/SGL_302j/LIB_ELF/LIBSGL.A(sglB016.o)
 .data          0x0000000006048730        0x0 /joengine/Compiler/COMMON/SGL_302j/LIB_ELF/LIBSGL.A(sglB020.o)
 .data          0x0000000006048730        0x0 /joengine/Compiler/COMMON/SGL_302j/LIB_ELF/LIBSGL.A(sglB021.o)
 .data          0x0000000006048730        0x0 /joengine/Compiler/COMMON/SGL_302j/LIB_ELF/LIBSGL.A(sglB023.o)
 .data          0x0000000006048730        0x0 /joengine/Compiler/COMMON/SGL_302j/LIB_ELF/LIBSGL.A(sglB031.o)
 .data          0x0000000006048730        0x0 /joengine/Compiler/COMMON/SGL_302j/LIB_ELF/LIBSGL.A(sglB032.o)
 .data          0x0000000006048730        0x0 /joengine/Compiler/COMMON/SGL_302j/LIB_ELF/LIBSGL.A(sglB033.o)
 .data          0x0000000006048730        0x0 /joengine/Compiler/COMMON/SGL_302j/LIB_ELF/LIBSGL.A(sglB034.o)
 .data          0x0000000006048730        0x0 /joengine/Compiler/COMMON/SGL_302j/LIB_ELF/LIBSGL.A(sglB035.o)
 .data          0x0000000006048730        0x0 /joengine/Compiler/COMMON/SGL_302j/LIB_ELF/LIBSGL.A(sglB036.o)
 .data          0x0000000006048730        0x0 /joengine/Compiler/COMMON/SGL_302j/LIB_ELF/LIBSGL.A(sglB038.o)
 .data          0x0000000006048730        0x0 /joengine/Compiler/COMMON/SGL_302j/LIB_ELF/LIBSGL.A(sglB039.o)
 .data          0x0000000006048730        0x0 /joengine/Compiler/COMMON/SGL_302j/LIB_ELF/LIBSGL.A(sglB040.o)
 .data          0x0000000006048730        0x0 /joengine/Compiler/COMMON/SGL_302j/LIB_ELF/LIBSGL.A(sglB041.o)
 .data          0x0000000006048730        0x0 /joengine/Compiler/COMMON/SGL_302j/LIB_ELF/LIBSGL.A(sglB042.o)
 .data          0x0000000006048730        0x0 /joengine/Compiler/COMMON/SGL_302j/LIB_ELF/LIBSGL.A(sglB043.o)
 .data          0x0000000006048730        0x0 /joengine/Compiler/COMMON/SGL_302j/LIB_ELF/LIBSGL.A(sglB044.o)
 .data          0x0000000006048730        0x0 /joengine/Compiler/COMMON/SGL_302j/LIB_ELF/LIBSGL.A(sglB045.o)
 .data          0x0000000006048730        0x0 /joengine/Compiler/COMMON/SGL_302j/LIB_ELF/LIBSGL.A(sglB047.o)
 .data          0x0000000006048730        0x0 /joengine/Compiler/COMMON/SGL_302j/LIB_ELF/LIBSGL.A(sglB048.o)
 .data          0x0000000006048730        0x0 /joengine/Compiler/COMMON/SGL_302j/LIB_ELF/LIBSGL.A(sglB055.o)
 .data          0x0000000006048730        0x0 /joengine/Compiler/COMMON/SGL_302j/LIB_ELF/LIBSGL.A(sglB056.o)
 .data          0x0000000006048730        0x0 /joengine/Compiler/COMMON/SGL_302j/LIB_ELF/LIBSGL.A(sglB057.o)
 .data          0x0000000006048730        0x0 /joengine/Compiler/COMMON/SGL_302j/LIB_ELF/LIBSGL.A(sglB058.o)
 .data          0x0000000006048730        0x0 /joengine/Compiler/COMMON/SGL_302j/LIB_ELF/LIBSGL.A(sglB059.o)
 .data          0x0000000006048730        0x0 /joengine/Compiler/COMMON/SGL_302j/LIB_ELF/LIBSGL.A(sglB060.o)
 .data          0x0000000006048730        0x0 /joengine/Compiler/COMMON/SGL_302j/LIB_ELF/LIBSGL.A(sglB063.o)
 .data          0x0000000006048730        0x0 /joengine/Compiler/COMMON/SGL_302j/LIB_ELF/LIBSGL.A(sglB087.o)
 .data          0x0000000006048730        0x0 /joengine/Compiler/COMMON/SGL_302j/LIB_ELF/LIBSGL.A(sglB088.o)
 .data          0x0000000006048730        0x0 /joengine/Compiler/COMMON/SGL_302j/LIB_ELF/LIBSGL.A(sglB090.o)
 .data          0x0000000006048730        0x0 /joengine/Compiler/COMMON/SGL_302j/LIB_ELF/LIBSGL.A(sglB200.o)
 .data          0x0000000006048730        0x0 /joengine/Compiler/COMMON/SGL_302j/LIB_ELF/LIBSGL.A(sglC01.o)
 .data          0x0000000006048730        0x0 /joengine/Compiler/COMMON/SGL_302j/LIB_ELF/LIBSGL.A(sglC03.o)
 .data          0x0000000006048730        0x0 /joengine/Compiler/COMMON/SGL_302j/LIB_ELF/LIBSGL.A(sglC04.o)
 .data          0x0000000006048730        0x0 /joengine/Compiler/COMMON/SGL_302j/LIB_ELF/LIBSGL.A(sglC05.o)
 .data          0x0000000006048730        0x0 /joengine/Compiler/COMMON/SGL_302j/LIB_ELF/LIBSGL.A(sglC06.o)
 .data          0x0000000006048730        0x0 /joengine/Compiler/COMMON/SGL_302j/LIB_ELF/LIBSGL.A(sglC07.o)
 .data          0x0000000006048730        0x0 /joengine/Compiler/COMMON/SGL_302j/LIB_ELF/LIBSGL.A(sglC08.o)
 .data          0x0000000006048730        0x0 /joengine/Compiler/COMMON/SGL_302j/LIB_ELF/LIBSGL.A(sglC14.o)
 .data          0x0000000006048730        0x0 /joengine/Compiler/COMMON/SGL_302j/LIB_ELF/LIBSGL.A(sglC16.o)
 .data          0x0000000006048730        0x0 /joengine/Compiler/COMMON/SGL_302j/LIB_ELF/LIBSGL.A(sglC17.o)
 .data          0x0000000006048730        0x0 /joengine/Compiler/COMMON/SGL_302j/LIB_ELF/LIBSGL.A(sglC19.o)
 .data          0x0000000006048730        0x0 /joengine/Compiler/COMMON/SGL_302j/LIB_ELF/LIBSGL.A(sglC20.o)
 .data          0x0000000006048730        0x0 /joengine/Compiler/COMMON/SGL_302j/LIB_ELF/LIBSGL.A(sglC21.o)
 .data          0x0000000006048730        0x0 /joengine/Compiler/COMMON/SGL_302j/LIB_ELF/LIBSGL.A(sglD00.o)
 .data          0x0000000006048730        0x0 /joengine/Compiler/COMMON/SGL_302j/LIB_ELF/LIBSGL.A(sglD01.o)
 .data          0x0000000006048730        0x0 /joengine/Compiler/COMMON/SGL_302j/LIB_ELF/LIBSGL.A(sglD02.o)
 .data          0x0000000006048730        0x0 /joengine/Compiler/COMMON/SGL_302j/LIB_ELF/LIBSGL.A(sglD03.o)
 .data          0x0000000006048730        0x0 /joengine/Compiler/COMMON/SGL_302j/LIB_ELF/LIBSGL.A(sglD15.o)
 .data          0x0000000006048730        0x0 /joengine/Compiler/COMMON/SGL_302j/LIB_ELF/LIBSGL.A(sglD16.o)
 .data          0x0000000006048730        0x0 /joengine/Compiler/COMMON/SGL_302j/LIB_ELF/LIBSGL.A(sglD17.o)
 .data          0x0000000006048730        0x0 /joengine/Compiler/COMMON/SGL_302j/LIB_ELF/LIBSGL.A(sglD18.o)
 .data          0x0000000006048730        0x0 /joengine/Compiler/COMMON/SGL_302j/LIB_ELF/LIBSGL.A(sglF08.o)
 .data          0x0000000006048730        0x0 /joengine/Compiler/COMMON/SGL_302j/LIB_ELF/LIBSGL.A(sglH00.o)
 .data          0x0000000006048730        0x0 /joengine/Compiler/COMMON/SGL_302j/LIB_ELF/LIBSGL.A(sglH01.o)
 .data          0x0000000006048730        0x0 /joengine/Compiler/COMMON/SGL_302j/LIB_ELF/LIBSGL.A(sglH02.o)
 .data          0x0000000006048730        0x0 /joengine/Compiler/COMMON/SGL_302j/LIB_ELF/LIBSGL.A(sglH04.o)
 .data          0x0000000006048730        0x0 /joengine/Compiler/COMMON/SGL_302j/LIB_ELF/LIBSGL.A(sglI01.o)
 .data          0x0000000006048730        0x0 /joengine/Compiler/COMMON/SGL_302j/LIB_ELF/LIBSGL.A(sglI04.o)
 .data          0x0000000006048730       0x80 /joengine/Compiler/COMMON/SGL_302j/LIB_ELF/LIBSGL.A(sglIc0.o)
                0x0000000006048730                IntPrioMask
 .data          0x00000000060487b0        0x0 /joengine/Compiler/COMMON/SGL_302j/LIB_ELF/LIBSGL.A(sglJ00.o)
 .data          0x00000000060487b0        0x0 /joengine/Compiler/COMMON/SGL_302j/LIB_ELF/LIBSGL.A(sglJ01.o)
 .data          0x00000000060487b0        0x0 /joengine/Compiler/COMMON/SGL_302j/LIB_ELF/LIBSGL.A(sglJ02.o)
 .data          0x00000000060487b0        0x0 /joengine/Compiler/COMMON/SGL_302j/LIB_ELF/LIBSGL.A(sglJ03.o)
 .data          0x00000000060487b0        0x0 /joengine/Compiler/COMMON/SGL_302j/LIB_ELF/LIBSGL.A(sglJ04.o)
 .data          0x00000000060487b0        0x0 /joengine/Compiler/COMMON/SGL_302j/LIB_ELF/LIBSGL.A(sglJ05.o)
 .data          0x00000000060487b0        0x0 /joengine/Compiler/COMMON/SGL_302j/LIB_ELF/LIBSGL.A(sglK01.o)
 .data          0x00000000060487b0        0x0 /joengine/Compiler/COMMON/SGL_302j/LIB_ELF/LIBSGL.A(sglM00.o)
 .data          0x00000000060487b0        0x0 /joengine/Compiler/COMMON/SGL_302j/LIB_ELF/LIBSGL.A(sglM01.o)
 .data          0x00000000060487b0        0x0 /joengine/Compiler/COMMON/SGL_302j/LIB_ELF/LIBSGL.A(sglA00.o)
 .data          0x00000000060487b0        0x0 /joengine/Compiler/COMMON/SGL_302j/LIB_ELF/LIBSGL.A(sglA03.o)
 .data          0x00000000060487b0        0x0 /joengine/Compiler/COMMON/SGL_302j/LIB_ELF/LIBSGL.A(sglA10.o)
 .data          0x00000000060487b0        0x0 /joengine/Compiler/COMMON/SGL_302j/LIB_ELF/LIBSGL.A(sglA24.o)
 .data          0x00000000060487b0        0x0 /joengine/Compiler/COMMON/SGL_302j/LIB_ELF/LIBSGL.A(sglA25.o)
 .data          0x00000000060487b0        0x0 /joengine/Compiler/COMMON/SGL_302j/LIB_ELF/LIBSGL.A(sglB000.o)
 .data          0x00000000060487b0        0x0 /joengine/Compiler/COMMON/SGL_302j/LIB_ELF/LIBSGL.A(sglC00.o)
 .data          0x00000000060487b0        0x0 /joengine/Compiler/COMMON/SGL_302j/LIB_ELF/LIBSGL.A(sglC13.o)
 .data          0x00000000060487b0        0x0 /joengine/Compiler/COMMON/SGL_302j/LIB_ELF/LIBSGL.A(sglD19.o)
 .data          0x00000000060487b0        0x0 /joengine/Compiler/COMMON/SGL_302j/LIB_ELF/LIBSGL.A(sglI00.o)
 .data          0x00000000060487b0        0x0 /joengine/Compiler/COMMON/SGL_302j/LIB_ELF/LIBSGL.A(sglH03.o)
 .data          0x00000000060487b0        0x0 /joengine/Compiler/LINUX/bin/../lib/gcc/sh-none-elf/8.2.0/libgcc.a(_ashiftrt.o)
 .data          0x00000000060487b0        0x0 /joengine/Compiler/LINUX/bin/../lib/gcc/sh-none-elf/8.2.0/libgcc.a(_sdivsi3.o)
 .data          0x00000000060487b0        0x0 /joengine/Compiler/LINUX/bin/../lib/gcc/sh-none-elf/8.2.0/libgcc.a(_udivsi3.o)
 .data          0x00000000060487b0        0x0 /joengine/Compiler/LINUX/bin/../lib/gcc/sh-none-elf/8.2.0/libgcc.a(_movmem.o)
 .data          0x00000000060487b0        0x0 /joengine/Compiler/LINUX/bin/../lib/gcc/sh-none-elf/8.2.0/libgcc.a(_addsub_sf.o)
 .data          0x00000000060487b0        0x0 /joengine/Compiler/LINUX/bin/../lib/gcc/sh-none-elf/8.2.0/libgcc.a(_mul_sf.o)
 .data          0x00000000060487b0        0x0 /joengine/Compiler/LINUX/bin/../lib/gcc/sh-none-elf/8.2.0/libgcc.a(_div_sf.o)
 .data          0x00000000060487b0        0x0 /joengine/Compiler/LINUX/bin/../lib/gcc/sh-none-elf/8.2.0/libgcc.a(_eq_sf.o)
 .data          0x00000000060487b0        0x0 /joengine/Compiler/LINUX/bin/../lib/gcc/sh-none-elf/8.2.0/libgcc.a(_ne_sf.o)
 .data          0x00000000060487b0        0x0 /joengine/Compiler/LINUX/bin/../lib/gcc/sh-none-elf/8.2.0/libgcc.a(_gt_sf.o)
 .data          0x00000000060487b0        0x0 /joengine/Compiler/LINUX/bin/../lib/gcc/sh-none-elf/8.2.0/libgcc.a(_ge_sf.o)
 .data          0x00000000060487b0        0x0 /joengine/Compiler/LINUX/bin/../lib/gcc/sh-none-elf/8.2.0/libgcc.a(_lt_sf.o)
 .data          0x00000000060487b0        0x0 /joengine/Compiler/LINUX/bin/../lib/gcc/sh-none-elf/8.2.0/libgcc.a(_le_sf.o)
 .data          0x00000000060487b0        0x0 /joengine/Compiler/LINUX/bin/../lib/gcc/sh-none-elf/8.2.0/libgcc.a(_si_to_sf.o)
 .data          0x00000000060487b0        0x0 /joengine/Compiler/LINUX/bin/../lib/gcc/sh-none-elf/8.2.0/libgcc.a(_sf_to_si.o)
 .data          0x00000000060487b0        0x0 /joengine/Compiler/LINUX/bin/../lib/gcc/sh-none-elf/8.2.0/libgcc.a(_sf_to_df.o)
 .data          0x00000000060487b0        0x0 /joengine/Compiler/LINUX/bin/../lib/gcc/sh-none-elf/8.2.0/libgcc.a(_thenan_sf.o)
 .data          0x00000000060487b0        0x0 /joengine/Compiler/LINUX/bin/../lib/gcc/sh-none-elf/8.2.0/libgcc.a(_usi_to_sf.o)
 .data          0x00000000060487b0        0x0 /joengine/Compiler/LINUX/bin/../lib/gcc/sh-none-elf/8.2.0/libgcc.a(_make_df.o)
 .data          0x00000000060487b0        0x0 /joengine/Compiler/LINUX/bin/../lib/gcc/sh-none-elf/8.2.0/libgcc.a(_df_to_sf.o)
 .data          0x00000000060487b0        0x0 /joengine/Compiler/LINUX/bin/../lib/gcc/sh-none-elf/8.2.0/libgcc.a(_pack_sf.o)
 .data          0x00000000060487b0        0x0 /joengine/Compiler/LINUX/bin/../lib/gcc/sh-none-elf/8.2.0/libgcc.a(_unpack_sf.o)
 .data          0x00000000060487b0        0x0 /joengine/Compiler/LINUX/bin/../lib/gcc/sh-none-elf/8.2.0/libgcc.a(_fpcmp_parts_sf.o)
 .data          0x00000000060487b0        0x0 /joengine/Compiler/LINUX/bin/../lib/gcc/sh-none-elf/8.2.0/libgcc.a(_make_sf.o)
 .data          0x00000000060487b0      0x428 /joengine/Compiler/LINUX/bin/../lib/gcc/sh-none-elf/8.2.0/../../../../sh-none-elf/lib/libc.a(lib_a-impure.o)
                0x00000000060487b0                _impure_ptr
 .data          0x0000000006048bd8        0x0 /joengine/Compiler/LINUX/bin/../lib/gcc/sh-none-elf/8.2.0/../../../../sh-none-elf/lib/libc.a(lib_a-memcmp.o)
 .data          0x0000000006048bd8        0x0 /joengine/Compiler/LINUX/bin/../lib/gcc/sh-none-elf/8.2.0/../../../../sh-none-elf/lib/libc.a(lib_a-memcpy.o)
 .data          0x0000000006048bd8        0x0 /joengine/Compiler/LINUX/bin/../lib/gcc/sh-none-elf/8.2.0/../../../../sh-none-elf/lib/libc.a(lib_a-memset.o)
 .data          0x0000000006048bd8        0x0 /joengine/Compiler/LINUX/bin/../lib/gcc/sh-none-elf/8.2.0/../../../../sh-none-elf/lib/libc.a(lib_a-rand.o)
 .data          0x0000000006048bd8        0x0 /joengine/Compiler/LINUX/bin/../lib/gcc/sh-none-elf/8.2.0/../../../../sh-none-elf/lib/libc.a(lib_a-rget.o)
 .data          0x0000000006048bd8        0x0 /joengine/Compiler/LINUX/bin/../lib/gcc/sh-none-elf/8.2.0/../../../../sh-none-elf/lib/libc.a(lib_a-sprintf.o)
 .data          0x0000000006048bd8        0x0 /joengine/Compiler/LINUX/bin/../lib/gcc/sh-none-elf/8.2.0/../../../../sh-none-elf/lib/libc.a(lib_a-strcat.o)
 .data          0x0000000006048bd8        0x0 /joengine/Compiler/LINUX/bin/../lib/gcc/sh-none-elf/8.2.0/../../../../sh-none-elf/lib/libc.a(lib_a-strcmp.o)
 .data          0x0000000006048bd8        0x0 /joengine/Compiler/LINUX/bin/../lib/gcc/sh-none-elf/8.2.0/../../../../sh-none-elf/lib/libc.a(lib_a-strcpy.o)
 .data          0x0000000006048bd8        0x0 /joengine/Compiler/LINUX/bin/../lib/gcc/sh-none-elf/8.2.0/../../../../sh-none-elf/lib/libc.a(lib_a-strlen.o)
 .data          0x0000000006048bd8        0x0 /joengine/Compiler/LINUX/bin/../lib/gcc/sh-none-elf/8.2.0/../../../../sh-none-elf/lib/libc.a(lib_a-strncmp.o)
 .data          0x0000000006048bd8        0x0 /joengine/Compiler/LINUX/bin/../lib/gcc/sh-none-elf/8.2.0/../../../../sh-none-elf/lib/libc.a(lib_a-strncpy.o)
 .data          0x0000000006048bd8        0x0 /joengine/Compiler/LINUX/bin/../lib/gcc/sh-none-elf/8.2.0/../../../../sh-none-elf/lib/libc.a(lib_a-strstr.o)
 .data          0x0000000006048bd8        0x0 /joengine/Compiler/LINUX/bin/../lib/gcc/sh-none-elf/8.2.0/../../../../sh-none-elf/lib/libc.a(lib_a-svfprintf.o)
 .data          0x0000000006048bd8        0x0 /joengine/Compiler/LINUX/bin/../lib/gcc/sh-none-elf/8.2.0/../../../../sh-none-elf/lib/libc.a(lib_a-wbuf.o)
 .data          0x0000000006048bd8        0x0 /joengine/Compiler/LINUX/bin/../lib/gcc/sh-none-elf/8.2.0/../../../../sh-none-elf/lib/libc.a(lib_a-wsetup.o)
 .data          0x0000000006048bd8        0x0 /joengine/Compiler/LINUX/bin/../lib/gcc/sh-none-elf/8.2.0/../../../../sh-none-elf/lib/libc.a(lib_a-dtoa.o)
 .data          0x0000000006048bd8        0x0 /joengine/Compiler/LINUX/bin/../lib/gcc/sh-none-elf/8.2.0/../../../../sh-none-elf/lib/libc.a(lib_a-fflush.o)
 .data          0x0000000006048bd8        0x0 /joengine/Compiler/LINUX/bin/../lib/gcc/sh-none-elf/8.2.0/../../../../sh-none-elf/lib/libc.a(lib_a-findfp.o)
 .data          0x0000000006048bd8        0x0 /joengine/Compiler/LINUX/bin/../lib/gcc/sh-none-elf/8.2.0/../../../../sh-none-elf/lib/libc.a(lib_a-fwalk.o)
 .data          0x0000000006048bd8        0x0 /joengine/Compiler/LINUX/bin/../lib/gcc/sh-none-elf/8.2.0/../../../../sh-none-elf/lib/libc.a(lib_a-localeconv.o)
 .data          0x0000000006048bd8      0x16c /joengine/Compiler/LINUX/bin/../lib/gcc/sh-none-elf/8.2.0/../../../../sh-none-elf/lib/libc.a(lib_a-locale.o)
                0x0000000006048bd8                __global_locale
 .data          0x0000000006048d44        0x0 /joengine/Compiler/LINUX/bin/../lib/gcc/sh-none-elf/8.2.0/../../../../sh-none-elf/lib/libc.a(lib_a-makebuf.o)
 .data          0x0000000006048d44        0x0 /joengine/Compiler/LINUX/bin/../lib/gcc/sh-none-elf/8.2.0/../../../../sh-none-elf/lib/libc.a(lib_a-mbtowc_r.o)
 .data          0x0000000006048d44        0x0 /joengine/Compiler/LINUX/bin/../lib/gcc/sh-none-elf/8.2.0/../../../../sh-none-elf/lib/libc.a(lib_a-memchr.o)
 .data          0x0000000006048d44        0x0 /joengine/Compiler/LINUX/bin/../lib/gcc/sh-none-elf/8.2.0/../../../../sh-none-elf/lib/libc.a(lib_a-mprec.o)
 .data          0x0000000006048d44        0x0 /joengine/Compiler/LINUX/bin/../lib/gcc/sh-none-elf/8.2.0/../../../../sh-none-elf/lib/libc.a(lib_a-refill.o)
 .data          0x0000000006048d44        0x0 /joengine/Compiler/LINUX/bin/../lib/gcc/sh-none-elf/8.2.0/../../../../sh-none-elf/lib/libc.a(lib_a-stdio.o)
 .data          0x0000000006048d44        0x0 /joengine/Compiler/LINUX/bin/../lib/gcc/sh-none-elf/8.2.0/../../../../sh-none-elf/lib/libc.a(lib_a-svfiprintf.o)
 .data          0x0000000006048d44        0x0 /joengine/Compiler/LINUX/bin/../lib/gcc/sh-none-elf/8.2.0/../../../../sh-none-elf/lib/libc.a(lib_a-wctomb_r.o)
 .data          0x0000000006048d44        0x0 /joengine/Compiler/LINUX/bin/../lib/gcc/sh-none-elf/8.2.0/../../../../sh-none-elf/lib/libc.a(lib_a-writer.o)
 .data          0x0000000006048d44        0x0 /joengine/Compiler/LINUX/bin/../lib/gcc/sh-none-elf/8.2.0/../../../../sh-none-elf/lib/libc.a(lib_a-closer.o)
 .data          0x0000000006048d44        0x0 /joengine/Compiler/LINUX/bin/../lib/gcc/sh-none-elf/8.2.0/../../../../sh-none-elf/lib/libc.a(lib_a-ctype_.o)
 .data          0x0000000006048d44        0x0 /joengine/Compiler/LINUX/bin/../lib/gcc/sh-none-elf/8.2.0/../../../../sh-none-elf/lib/libc.a(lib_a-fclose.o)
 .data          0x0000000006048d44        0x0 /joengine/Compiler/LINUX/bin/../lib/gcc/sh-none-elf/8.2.0/../../../../sh-none-elf/lib/libc.a(lib_a-fstatr.o)
 .data          0x0000000006048d44        0x0 /joengine/Compiler/LINUX/bin/../lib/gcc/sh-none-elf/8.2.0/../../../../sh-none-elf/lib/libc.a(lib_a-isattyr.o)
 .data          0x0000000006048d44        0x0 /joengine/Compiler/LINUX/bin/../lib/gcc/sh-none-elf/8.2.0/../../../../sh-none-elf/lib/libc.a(lib_a-lseekr.o)
 .data          0x0000000006048d44        0x0 /joengine/Compiler/LINUX/bin/../lib/gcc/sh-none-elf/8.2.0/../../../../sh-none-elf/lib/libc.a(lib_a-memmove.o)
 .data          0x0000000006048d44        0x0 /joengine/Compiler/LINUX/bin/../lib/gcc/sh-none-elf/8.2.0/../../../../sh-none-elf/lib/libc.a(lib_a-readr.o)
 .data          0x0000000006048d44        0x0 /joengine/Compiler/LINUX/bin/../lib/gcc/sh-none-elf/8.2.0/../../../../sh-none-elf/lib/libc.a(lib_a-reent.o)
 .data          0x0000000006048d44        0x0 /joengine/Compiler/LINUX/bin/../lib/gcc/sh-none-elf/8.2.0/libgcc.a(_ashiftrt_n.o)
 .data          0x0000000006048d44        0x0 /joengine/Compiler/LINUX/bin/../lib/gcc/sh-none-elf/8.2.0/libgcc.a(_ashiftlt.o)
 .data          0x0000000006048d44        0x0 /joengine/Compiler/LINUX/bin/../lib/gcc/sh-none-elf/8.2.0/libgcc.a(_lshiftrt.o)
 .data          0x0000000006048d44        0x0 /joengine/Compiler/LINUX/bin/../lib/gcc/sh-none-elf/8.2.0/libgcc.a(_udivdi3.o)
 .data          0x0000000006048d44        0x0 /joengine/Compiler/LINUX/bin/../lib/gcc/sh-none-elf/8.2.0/libgcc.a(_umoddi3.o)
 .data          0x0000000006048d44        0x0 /joengine/Compiler/LINUX/bin/../lib/gcc/sh-none-elf/8.2.0/libgcc.a(_addsub_df.o)
 .data          0x0000000006048d44        0x0 /joengine/Compiler/LINUX/bin/../lib/gcc/sh-none-elf/8.2.0/libgcc.a(_mul_df.o)
 .data          0x0000000006048d44        0x0 /joengine/Compiler/LINUX/bin/../lib/gcc/sh-none-elf/8.2.0/libgcc.a(_div_df.o)
 .data          0x0000000006048d44        0x0 /joengine/Compiler/LINUX/bin/../lib/gcc/sh-none-elf/8.2.0/libgcc.a(_eq_df.o)
 .data          0x0000000006048d44        0x0 /joengine/Compiler/LINUX/bin/../lib/gcc/sh-none-elf/8.2.0/libgcc.a(_ne_df.o)
 .data          0x0000000006048d44        0x0 /joengine/Compiler/LINUX/bin/../lib/gcc/sh-none-elf/8.2.0/libgcc.a(_gt_df.o)
 .data          0x0000000006048d44        0x0 /joengine/Compiler/LINUX/bin/../lib/gcc/sh-none-elf/8.2.0/libgcc.a(_ge_df.o)
 .data          0x0000000006048d44        0x0 /joengine/Compiler/LINUX/bin/../lib/gcc/sh-none-elf/8.2.0/libgcc.a(_lt_df.o)
 .data          0x0000000006048d44        0x0 /joengine/Compiler/LINUX/bin/../lib/gcc/sh-none-elf/8.2.0/libgcc.a(_le_df.o)
 .data          0x0000000006048d44        0x0 /joengine/Compiler/LINUX/bin/../lib/gcc/sh-none-elf/8.2.0/libgcc.a(_unord_df.o)
 .data          0x0000000006048d44        0x0 /joengine/Compiler/LINUX/bin/../lib/gcc/sh-none-elf/8.2.0/libgcc.a(_si_to_df.o)
 .data          0x0000000006048d44        0x0 /joengine/Compiler/LINUX/bin/../lib/gcc/sh-none-elf/8.2.0/libgcc.a(_df_to_si.o)
 .data          0x0000000006048d44        0x0 /joengine/Compiler/LINUX/bin/../lib/gcc/sh-none-elf/8.2.0/libgcc.a(_thenan_df.o)
 .data          0x0000000006048d44        0x0 /joengine/Compiler/LINUX/bin/../lib/gcc/sh-none-elf/8.2.0/libgcc.a(_usi_to_df.o)
 .data          0x0000000006048d44        0x0 /joengine/Compiler/LINUX/bin/../lib/gcc/sh-none-elf/8.2.0/libgcc.a(_udiv_qrnnd_16.o)
 .data          0x0000000006048d44        0x0 /joengine/Compiler/LINUX/bin/../lib/gcc/sh-none-elf/8.2.0/libgcc.a(_clz.o)
 .data          0x0000000006048d44        0x0 /joengine/Compiler/LINUX/bin/../lib/gcc/sh-none-elf/8.2.0/libgcc.a(_clzsi2.o)
 .data          0x0000000006048d44        0x0 /joengine/Compiler/LINUX/bin/../lib/gcc/sh-none-elf/8.2.0/libgcc.a(_pack_df.o)
 .data          0x0000000006048d44        0x0 /joengine/Compiler/LINUX/bin/../lib/gcc/sh-none-elf/8.2.0/libgcc.a(_unpack_df.o)
 .data          0x0000000006048d44        0x0 /joengine/Compiler/LINUX/bin/../lib/gcc/sh-none-elf/8.2.0/libgcc.a(_fpcmp_parts_df.o)
                0x0000000006048d44                __edata = .

.rodata         0x0000000006048d60     0x1100
 *(.rodata)
 .rodata        0x0000000006048d60      0xba8 /tmp/ccDKVNpG.ltrans0.ltrans.o
                0x0000000006048de8                survival_preview
                0x0000000006048f08                car_data
                0x0000000006048f28                use_light.lto_priv.596
                0x0000000006049364                player4_img_data
                0x00000000060493e8                player3_img_data
                0x000000000604946c                player2_img_data
                0x00000000060494f0                player1_img_data
                0x00000000060496e8                __jo_rbg0_k_table.lto_priv.603
                0x00000000060496ec                __jo_rbg0_r_table.lto_priv.602
                0x00000000060496f0                __jo_back_color.lto_priv.601
                0x0000000006049904                __jo_gouraud_shading_runtime_index
 .rodata        0x0000000006049908       0x40 /tmp/ccDKVNpG.ltrans1.ltrans.o
 .rodata        0x0000000006049948       0x10 /joengine/Compiler/LINUX/bin/../lib/gcc/sh-none-elf/8.2.0/libgcc.a(_thenan_sf.o)
                0x0000000006049948                __thenan_sf
 .rodata        0x0000000006049958        0x4 /joengine/Compiler/LINUX/bin/../lib/gcc/sh-none-elf/8.2.0/../../../../sh-none-elf/lib/libc.a(lib_a-impure.o)
                0x0000000006049958                _global_impure_ptr
 .rodata        0x000000000604995c       0x20 /joengine/Compiler/LINUX/bin/../lib/gcc/sh-none-elf/8.2.0/../../../../sh-none-elf/lib/libc.a(lib_a-svfprintf.o)
 .rodata        0x000000000604997c      0x124 /joengine/Compiler/LINUX/bin/../lib/gcc/sh-none-elf/8.2.0/../../../../sh-none-elf/lib/libc.a(lib_a-mprec.o)
                0x0000000006049988                __mprec_tinytens
                0x00000000060499b0                __mprec_bigtens
                0x00000000060499d8                __mprec_tens
 .rodata        0x0000000006049aa0       0x20 /joengine/Compiler/LINUX/bin/../lib/gcc/sh-none-elf/8.2.0/../../../../sh-none-elf/lib/libc.a(lib_a-svfiprintf.o)
 .rodata        0x0000000006049ac0      0x284 /joengine/Compiler/LINUX/bin/../lib/gcc/sh-none-elf/8.2.0/../../../../sh-none-elf/lib/libc.a(lib_a-ctype_.o)
                0x0000000006049ac0                _ctype_
                0x0000000006049bc4                _ctype_b
 .rodata        0x0000000006049d44       0x14 /joengine/Compiler/LINUX/bin/../lib/gcc/sh-none-elf/8.2.0/libgcc.a(_thenan_df.o)
                0x0000000006049d44                __thenan_df
 .rodata        0x0000000006049d58      0x100 /joengine/Compiler/LINUX/bin/../lib/gcc/sh-none-elf/8.2.0/libgcc.a(_clz.o)
                0x0000000006049d58                __clz_tab

.rodata.str1.4  0x0000000006049e60     0x1870
 .rodata.str1.4
                0x0000000006049e60      0xf51 /tmp/ccDKVNpG.ltrans0.ltrans.o
 *fill*         0x000000000604adb1        0x3 
 .rodata.str1.4
                0x000000000604adb4      0x888 /tmp/ccDKVNpG.ltrans1.ltrans.o
 .rodata.str1.4
                0x000000000604b63c       0x3a /joengine/Compiler/LINUX/bin/../lib/gcc/sh-none-elf/8.2.0/../../../../sh-none-elf/lib/libc.a(lib_a-svfprintf.o)
 *fill*         0x000000000604b676        0x2 
 .rodata.str1.4
                0x000000000604b678       0x12 /joengine/Compiler/LINUX/bin/../lib/gcc/sh-none-elf/8.2.0/../../../../sh-none-elf/lib/libc.a(lib_a-dtoa.o)
 *fill*         0x000000000604b68a        0x2 
 .rodata.str1.4
                0x000000000604b68c       0x12 /joengine/Compiler/LINUX/bin/../lib/gcc/sh-none-elf/8.2.0/../../../../sh-none-elf/lib/libc.a(lib_a-locale.o)
 *fill*         0x000000000604b69e        0x2 
 .rodata.str1.4
                0x000000000604b6a0       0x25 /joengine/Compiler/LINUX/bin/../lib/gcc/sh-none-elf/8.2.0/../../../../sh-none-elf/lib/libc.a(lib_a-svfiprintf.o)

.bss            0x000000000604b6d0    0x6e9d8
                0x000000000604b6d0                __bstart = .
 *(.bss)
 .bss           0x000000000604b6d0        0x0 /joengine/Compiler/COMMON/SGL_302j/LIB_ELF/SGLAREA.O
 .bss           0x000000000604b6d0    0x6e8a0 /tmp/ccDKVNpG.ltrans0.ltrans.o
                0x000000000604b6d0                current_players
                0x000000000604b6d1                target_player
                0x000000000604b6d2                is_cd_playing
                0x000000000604b6d3                cd_track
                0x000000000604b6d4                show_debug.lto_priv.613
                0x000000000604b6d8                trackmap_tex
                0x000000000604b6dc                preview_tex
                0x000000000604b6e0                light.lto_priv.620
                0x000000000604b6ec                cam1.lto_priv.595
                0x000000000604b708                g_local_p2_active
                0x000000000604b70c                nbg1_bitmap
                0x000000000604b710                __jo_tga_default_palette.lto_priv.597
                0x000000000604b714                explosion_sound.lto_priv.622
                0x000000000604b716                boing_sound.lto_priv.614
                0x000000000604b718                cpoint_sound.lto_priv.615
                0x000000000604b71a                pup_sound.lto_priv.612
                0x000000000604b71c                crash_sound.lto_priv.621
                0x000000000604b720                players
                0x000000000604be70                g_mnet
                0x000000000604c59c                font_pal
                0x000000000604c5a4                trackmap_pal
                0x000000000604c5ac                preview_pal
                0x000000000604c5b4                sky_pal
                0x000000000604c5bc                floor_pal
                0x000000000604c5c4                rbg0_rtable.lto_priv.598
                0x000000000604c5c8                rbg0_ktable.lto_priv.599
                0x000000000604c5cc                __jo_current_palette_id
                0x000000000604c5d0                __jo_a0_segments.lto_priv.608
                0x000000000604c618                __jo_b0_segments.lto_priv.606
                0x000000000604c660                __jo_b1_segments.lto_priv.604
                0x000000000604c6f0                screen_flags.lto_priv.600
                0x000000000604c6f4                framerate
                0x000000000604c6f8                powerups
                0x000000000604c798                powerup_total.lto_priv.623
                0x000000000604c79c                enemies
                0x000000000604c860                enemy_total.lto_priv.624
                0x000000000604c862                game
                0x000000000604c8a0                map_section
                0x000000000604cca0                total_sections
                0x000000000604cca2                waypoints
                0x000000000604cfc2                checkpoints
                0x000000000604cfec                xpdata_.lto_priv.616
                0x000000000604d06c                model_total
                0x000000000604d06e                g_online_mode
                0x000000000604d06f                total_waypoints
                0x000000000604d070                __jo_sprintf_buf
                0x000000000604d0b0                __jo_sprite_pic
                0x000000000604d8a8                __jo_sprite_def
 .bss           0x00000000060b9f70       0xc2 /tmp/ccDKVNpG.ltrans1.ltrans.o
 *fill*         0x00000000060ba032        0xe 
 .bss           0x00000000060ba040        0x4 /joengine/Compiler/COMMON/SGL_302j/LIB_ELF/SEGA_SYS.A(sys_exit.o)
 *fill*         0x00000000060ba044        0xc 
 .bss           0x00000000060ba050        0x0 /joengine/Compiler/COMMON/SGL_302j/LIB_ELF/SEGA_SYS.A(sys_sub.o)
 .bss           0x00000000060ba050        0x0 /joengine/Compiler/COMMON/SGL_302j/LIB_ELF/LIBCD.A(CDC_CMN.O)
 .bss           0x00000000060ba050        0x0 /joengine/Compiler/COMMON/SGL_302j/LIB_ELF/LIBCD.A(CDC_DRV.O)
 .bss           0x00000000060ba050        0x0 /joengine/Compiler/COMMON/SGL_302j/LIB_ELF/LIBCD.A(CDC_CFS.O)
 .bss           0x00000000060ba050        0x2 /joengine/Compiler/COMMON/SGL_302j/LIB_ELF/LIBCD.A(CDC_REG.O)
 *fill*         0x00000000060ba052        0xe 
 .bss           0x00000000060ba060        0xc /joengine/Compiler/COMMON/SGL_302j/LIB_ELF/LIBCD.A(CDC_SUB.O)
 *fill*         0x00000000060ba06c        0x4 
 .bss           0x00000000060ba070        0x0 /joengine/Compiler/COMMON/SGL_302j/LIB_ELF/LIBCD.A(GFS.O)
 .bss           0x00000000060ba070        0x0 /joengine/Compiler/COMMON/SGL_302j/LIB_ELF/LIBCD.A(GFS_BUF.O)
 .bss           0x00000000060ba070        0x0 /joengine/Compiler/COMMON/SGL_302j/LIB_ELF/LIBCD.A(GFS_CDB.O)
 .bss           0x00000000060ba070        0x0 /joengine/Compiler/COMMON/SGL_302j/LIB_ELF/LIBCD.A(GFS_CDC.O)
 .bss           0x00000000060ba070        0x0 /joengine/Compiler/COMMON/SGL_302j/LIB_ELF/LIBCD.A(GFS_CDF.O)
 .bss           0x00000000060ba070        0x0 /joengine/Compiler/COMMON/SGL_302j/LIB_ELF/LIBCD.A(GFS_DIR.O)
 .bss           0x00000000060ba070        0xc /joengine/Compiler/COMMON/SGL_302j/LIB_ELF/LIBCD.A(GFS_TRN.O)
 *fill*         0x00000000060ba07c        0x4 
 .bss           0x00000000060ba080        0x0 /joengine/Compiler/COMMON/SGL_302j/LIB_ELF/LIBCD.A(CDC_DEV.O)
 .bss           0x00000000060ba080        0x0 /joengine/Compiler/COMMON/SGL_302j/LIB_ELF/LIBCD.A(CDC_SEL.O)
 .bss           0x00000000060ba080        0x0 /joengine/Compiler/COMMON/SGL_302j/LIB_ELF/LIBCD.A(CDC_BIF.O)
 .bss           0x00000000060ba080        0x0 /joengine/Compiler/COMMON/SGL_302j/LIB_ELF/LIBCD.A(CDC_BIO.O)
 .bss           0x00000000060ba080        0x0 /joengine/Compiler/COMMON/SGL_302j/LIB_ELF/LIBSGL.A(sglA01.o)
 .bss           0x00000000060ba080        0x0 /joengine/Compiler/COMMON/SGL_302j/LIB_ELF/LIBSGL.A(sglA15.o)
 .bss           0x00000000060ba080        0x0 /joengine/Compiler/COMMON/SGL_302j/LIB_ELF/LIBSGL.A(sglA16.o)
 .bss           0x00000000060ba080        0x0 /joengine/Compiler/COMMON/SGL_302j/LIB_ELF/LIBSGL.A(sglA17.o)
 .bss           0x00000000060ba080        0x0 /joengine/Compiler/COMMON/SGL_302j/LIB_ELF/LIBSGL.A(sglA18.o)
 .bss           0x00000000060ba080        0x0 /joengine/Compiler/COMMON/SGL_302j/LIB_ELF/LIBSGL.A(sglA19.o)
 .bss           0x00000000060ba080        0x0 /joengine/Compiler/COMMON/SGL_302j/LIB_ELF/LIBSGL.A(sglA20.o)
 .bss           0x00000000060ba080        0x0 /joengine/Compiler/COMMON/SGL_302j/LIB_ELF/LIBSGL.A(sglA21.o)
 .bss           0x00000000060ba080        0x0 /joengine/Compiler/COMMON/SGL_302j/LIB_ELF/LIBSGL.A(sglA27.o)
 .bss           0x00000000060ba080        0x0 /joengine/Compiler/COMMON/SGL_302j/LIB_ELF/LIBSGL.A(sglA28.o)
 .bss           0x00000000060ba080        0x0 /joengine/Compiler/COMMON/SGL_302j/LIB_ELF/LIBSGL.A(sglA40.o)
 .bss           0x00000000060ba080        0x0 /joengine/Compiler/COMMON/SGL_302j/LIB_ELF/LIBSGL.A(sglB001.o)
 .bss           0x00000000060ba080        0x0 /joengine/Compiler/COMMON/SGL_302j/LIB_ELF/LIBSGL.A(sglB011.o)
 .bss           0x00000000060ba080        0x0 /joengine/Compiler/COMMON/SGL_302j/LIB_ELF/LIBSGL.A(sglB014.o)
 .bss           0x00000000060ba080        0x0 /joengine/Compiler/COMMON/SGL_302j/LIB_ELF/LIBSGL.A(sglB015.o)
 .bss           0x00000000060ba080        0x0 /joengine/Compiler/COMMON/SGL_302j/LIB_ELF/LIBSGL.A(sglB016.o)
 .bss           0x00000000060ba080        0x0 /joengine/Compiler/COMMON/SGL_302j/LIB_ELF/LIBSGL.A(sglB020.o)
 .bss           0x00000000060ba080        0x0 /joengine/Compiler/COMMON/SGL_302j/LIB_ELF/LIBSGL.A(sglB021.o)
 .bss           0x00000000060ba080        0x0 /joengine/Compiler/COMMON/SGL_302j/LIB_ELF/LIBSGL.A(sglB023.o)
 .bss           0x00000000060ba080        0x0 /joengine/Compiler/COMMON/SGL_302j/LIB_ELF/LIBSGL.A(sglB031.o)
 .bss           0x00000000060ba080        0x0 /joengine/Compiler/COMMON/SGL_302j/LIB_ELF/LIBSGL.A(sglB032.o)
 .bss           0x00000000060ba080        0x0 /joengine/Compiler/COMMON/SGL_302j/LIB_ELF/LIBSGL.A(sglB033.o)
 .bss           0x00000000060ba080        0x0 /joengine/Compiler/COMMON/SGL_302j/LIB_ELF/LIBSGL.A(sglB034.o)
 .bss           0x00000000060ba080        0x0 /joengine/Compiler/COMMON/SGL_302j/LIB_ELF/LIBSGL.A(sglB035.o)
 .bss           0x00000000060ba080        0x0 /joengine/Compiler/COMMON/SGL_302j/LIB_ELF/LIBSGL.A(sglB036.o)
 .bss           0x00000000060ba080        0x0 /joengine/Compiler/COMMON/SGL_302j/LIB_ELF/LIBSGL.A(sglB038.o)
 .bss           0x00000000060ba080        0x0 /joengine/Compiler/COMMON/SGL_302j/LIB_ELF/LIBSGL.A(sglB039.o)
 .bss           0x00000000060ba080        0x0 /joengine/Compiler/COMMON/SGL_302j/LIB_ELF/LIBSGL.A(sglB040.o)
 .bss           0x00000000060ba080        0x0 /joengine/Compiler/COMMON/SGL_302j/LIB_ELF/LIBSGL.A(sglB041.o)
 .bss           0x00000000060ba080        0x0 /joengine/Compiler/COMMON/SGL_302j/LIB_ELF/LIBSGL.A(sglB042.o)
 .bss           0x00000000060ba080        0x0 /joengine/Compiler/COMMON/SGL_302j/LIB_ELF/LIBSGL.A(sglB043.o)
 .bss           0x00000000060ba080        0x0 /joengine/Compiler/COMMON/SGL_302j/LIB_ELF/LIBSGL.A(sglB044.o)
 .bss           0x00000000060ba080        0x0 /joengine/Compiler/COMMON/SGL_302j/LIB_ELF/LIBSGL.A(sglB045.o)
 .bss           0x00000000060ba080        0x0 /joengine/Compiler/COMMON/SGL_302j/LIB_ELF/LIBSGL.A(sglB047.o)
 .bss           0x00000000060ba080        0x0 /joengine/Compiler/COMMON/SGL_302j/LIB_ELF/LIBSGL.A(sglB048.o)
 .bss           0x00000000060ba080        0x0 /joengine/Compiler/COMMON/SGL_302j/LIB_ELF/LIBSGL.A(sglB055.o)
 .bss           0x00000000060ba080        0x0 /joengine/Compiler/COMMON/SGL_302j/LIB_ELF/LIBSGL.A(sglB056.o)
 .bss           0x00000000060ba080        0x0 /joengine/Compiler/COMMON/SGL_302j/LIB_ELF/LIBSGL.A(sglB057.o)
 .bss           0x00000000060ba080        0x0 /joengine/Compiler/COMMON/SGL_302j/LIB_ELF/LIBSGL.A(sglB058.o)
 .bss           0x00000000060ba080        0x0 /joengine/Compiler/COMMON/SGL_302j/LIB_ELF/LIBSGL.A(sglB059.o)
 .bss           0x00000000060ba080        0x0 /joengine/Compiler/COMMON/SGL_302j/LIB_ELF/LIBSGL.A(sglB060.o)
 .bss           0x00000000060ba080        0x0 /joengine/Compiler/COMMON/SGL_302j/LIB_ELF/LIBSGL.A(sglB063.o)
 .bss           0x00000000060ba080        0x0 /joengine/Compiler/COMMON/SGL_302j/LIB_ELF/LIBSGL.A(sglB087.o)
 .bss           0x00000000060ba080        0x0 /joengine/Compiler/COMMON/SGL_302j/LIB_ELF/LIBSGL.A(sglB088.o)
 .bss           0x00000000060ba080        0x0 /joengine/Compiler/COMMON/SGL_302j/LIB_ELF/LIBSGL.A(sglB090.o)
 .bss           0x00000000060ba080        0x0 /joengine/Compiler/COMMON/SGL_302j/LIB_ELF/LIBSGL.A(sglB200.o)
 .bss           0x00000000060ba080        0x0 /joengine/Compiler/COMMON/SGL_302j/LIB_ELF/LIBSGL.A(sglC01.o)
 .bss           0x00000000060ba080        0x0 /joengine/Compiler/COMMON/SGL_302j/LIB_ELF/LIBSGL.A(sglC03.o)
 .bss           0x00000000060ba080        0x0 /joengine/Compiler/COMMON/SGL_302j/LIB_ELF/LIBSGL.A(sglC04.o)
 .bss           0x00000000060ba080        0x0 /joengine/Compiler/COMMON/SGL_302j/LIB_ELF/LIBSGL.A(sglC05.o)
 .bss           0x00000000060ba080        0x0 /joengine/Compiler/COMMON/SGL_302j/LIB_ELF/LIBSGL.A(sglC06.o)
 .bss           0x00000000060ba080        0x0 /joengine/Compiler/COMMON/SGL_302j/LIB_ELF/LIBSGL.A(sglC07.o)
 .bss           0x00000000060ba080        0x0 /joengine/Compiler/COMMON/SGL_302j/LIB_ELF/LIBSGL.A(sglC08.o)
 .bss           0x00000000060ba080        0x0 /joengine/Compiler/COMMON/SGL_302j/LIB_ELF/LIBSGL.A(sglC14.o)
 .bss           0x00000000060ba080        0x0 /joengine/Compiler/COMMON/SGL_302j/LIB_ELF/LIBSGL.A(sglC16.o)
 .bss           0x00000000060ba080        0x0 /joengine/Compiler/COMMON/SGL_302j/LIB_ELF/LIBSGL.A(sglC17.o)
 .bss           0x00000000060ba080        0x0 /joengine/Compiler/COMMON/SGL_302j/LIB_ELF/LIBSGL.A(sglC19.o)
 .bss           0x00000000060ba080        0x0 /joengine/Compiler/COMMON/SGL_302j/LIB_ELF/LIBSGL.A(sglC20.o)
 .bss           0x00000000060ba080        0x0 /joengine/Compiler/COMMON/SGL_302j/LIB_ELF/LIBSGL.A(sglC21.o)
 .bss           0x00000000060ba080        0x0 /joengine/Compiler/COMMON/SGL_302j/LIB_ELF/LIBSGL.A(sglD00.o)
 .bss           0x00000000060ba080        0x0 /joengine/Compiler/COMMON/SGL_302j/LIB_ELF/LIBSGL.A(sglD01.o)
 .bss           0x00000000060ba080        0x0 /joengine/Compiler/COMMON/SGL_302j/LIB_ELF/LIBSGL.A(sglD02.o)
 .bss           0x00000000060ba080        0x0 /joengine/Compiler/COMMON/SGL_302j/LIB_ELF/LIBSGL.A(sglD03.o)
 .bss           0x00000000060ba080        0x0 /joengine/Compiler/COMMON/SGL_302j/LIB_ELF/LIBSGL.A(sglD15.o)
 .bss           0x00000000060ba080        0x0 /joengine/Compiler/COMMON/SGL_302j/LIB_ELF/LIBSGL.A(sglD16.o)
 .bss           0x00000000060ba080        0x0 /joengine/Compiler/COMMON/SGL_302j/LIB_ELF/LIBSGL.A(sglD17.o)
 .bss           0x00000000060ba080        0x0 /joengine/Compiler/COMMON/SGL_302j/LIB_ELF/LIBSGL.A(sglD18.o)
 .bss           0x00000000060ba080        0x0 /joengine/Compiler/COMMON/SGL_302j/LIB_ELF/LIBSGL.A(sglF08.o)
 .bss           0x00000000060ba080        0x0 /joengine/Compiler/COMMON/SGL_302j/LIB_ELF/LIBSGL.A(sglH00.o)
 .bss           0x00000000060ba080        0x0 /joengine/Compiler/COMMON/SGL_302j/LIB_ELF/LIBSGL.A(sglH01.o)
 .bss           0x00000000060ba080        0x0 /joengine/Compiler/COMMON/SGL_302j/LIB_ELF/LIBSGL.A(sglH02.o)
 .bss           0x00000000060ba080        0x0 /joengine/Compiler/COMMON/SGL_302j/LIB_ELF/LIBSGL.A(sglH04.o)
 .bss           0x00000000060ba080        0x0 /joengine/Compiler/COMMON/SGL_302j/LIB_ELF/LIBSGL.A(sglI01.o)
 .bss           0x00000000060ba080        0x0 /joengine/Compiler/COMMON/SGL_302j/LIB_ELF/LIBSGL.A(sglI04.o)
 .bss           0x00000000060ba080        0x0 /joengine/Compiler/COMMON/SGL_302j/LIB_ELF/LIBSGL.A(sglIc0.o)
 .bss           0x00000000060ba080        0x0 /joengine/Compiler/COMMON/SGL_302j/LIB_ELF/LIBSGL.A(sglJ00.o)
 .bss           0x00000000060ba080        0x0 /joengine/Compiler/COMMON/SGL_302j/LIB_ELF/LIBSGL.A(sglJ01.o)
 .bss           0x00000000060ba080        0x0 /joengine/Compiler/COMMON/SGL_302j/LIB_ELF/LIBSGL.A(sglJ02.o)
 .bss           0x00000000060ba080        0x0 /joengine/Compiler/COMMON/SGL_302j/LIB_ELF/LIBSGL.A(sglJ03.o)
 .bss           0x00000000060ba080        0x0 /joengine/Compiler/COMMON/SGL_302j/LIB_ELF/LIBSGL.A(sglJ04.o)
 .bss           0x00000000060ba080        0x0 /joengine/Compiler/COMMON/SGL_302j/LIB_ELF/LIBSGL.A(sglJ05.o)
 .bss           0x00000000060ba080        0x0 /joengine/Compiler/COMMON/SGL_302j/LIB_ELF/LIBSGL.A(sglK01.o)
 .bss           0x00000000060ba080        0x0 /joengine/Compiler/COMMON/SGL_302j/LIB_ELF/LIBSGL.A(sglM00.o)
 .bss           0x00000000060ba080        0x0 /joengine/Compiler/COMMON/SGL_302j/LIB_ELF/LIBSGL.A(sglM01.o)
 .bss           0x00000000060ba080        0x0 /joengine/Compiler/COMMON/SGL_302j/LIB_ELF/LIBSGL.A(sglA00.o)
 .bss           0x00000000060ba080        0x0 /joengine/Compiler/COMMON/SGL_302j/LIB_ELF/LIBSGL.A(sglA03.o)
 .bss           0x00000000060ba080        0x0 /joengine/Compiler/COMMON/SGL_302j/LIB_ELF/LIBSGL.A(sglA10.o)
 .bss           0x00000000060ba080        0x0 /joengine/Compiler/COMMON/SGL_302j/LIB_ELF/LIBSGL.A(sglA24.o)
 .bss           0x00000000060ba080        0x0 /joengine/Compiler/COMMON/SGL_302j/LIB_ELF/LIBSGL.A(sglA25.o)
 .bss           0x00000000060ba080        0x0 /joengine/Compiler/COMMON/SGL_302j/LIB_ELF/LIBSGL.A(sglB000.o)
 .bss           0x00000000060ba080        0x0 /joengine/Compiler/COMMON/SGL_302j/LIB_ELF/LIBSGL.A(sglC00.o)
 .bss           0x00000000060ba080        0x0 /joengine/Compiler/COMMON/SGL_302j/LIB_ELF/LIBSGL.A(sglC13.o)
 .bss           0x00000000060ba080        0x0 /joengine/Compiler/COMMON/SGL_302j/LIB_ELF/LIBSGL.A(sglD19.o)
 .bss           0x00000000060ba080        0x0 /joengine/Compiler/COMMON/SGL_302j/LIB_ELF/LIBSGL.A(sglI00.o)
 .bss           0x00000000060ba080        0x0 /joengine/Compiler/COMMON/SGL_302j/LIB_ELF/LIBSGL.A(sglH03.o)
 .bss           0x00000000060ba080        0x0 /joengine/Compiler/LINUX/bin/../lib/gcc/sh-none-elf/8.2.0/libgcc.a(_ashiftrt.o)
 .bss           0x00000000060ba080        0x0 /joengine/Compiler/LINUX/bin/../lib/gcc/sh-none-elf/8.2.0/libgcc.a(_sdivsi3.o)
 .bss           0x00000000060ba080        0x0 /joengine/Compiler/LINUX/bin/../lib/gcc/sh-none-elf/8.2.0/libgcc.a(_udivsi3.o)
 .bss           0x00000000060ba080        0x0 /joengine/Compiler/LINUX/bin/../lib/gcc/sh-none-elf/8.2.0/libgcc.a(_movmem.o)
 .bss           0x00000000060ba080        0x0 /joengine/Compiler/LINUX/bin/../lib/gcc/sh-none-elf/8.2.0/libgcc.a(_addsub_sf.o)
 .bss           0x00000000060ba080        0x0 /joengine/Compiler/LINUX/bin/../lib/gcc/sh-none-elf/8.2.0/libgcc.a(_mul_sf.o)
 .bss           0x00000000060ba080        0x0 /joengine/Compiler/LINUX/bin/../lib/gcc/sh-none-elf/8.2.0/libgcc.a(_div_sf.o)
 .bss           0x00000000060ba080        0x0 /joengine/Compiler/LINUX/bin/../lib/gcc/sh-none-elf/8.2.0/libgcc.a(_eq_sf.o)
 .bss           0x00000000060ba080        0x0 /joengine/Compiler/LINUX/bin/../lib/gcc/sh-none-elf/8.2.0/libgcc.a(_ne_sf.o)
 .bss           0x00000000060ba080        0x0 /joengine/Compiler/LINUX/bin/../lib/gcc/sh-none-elf/8.2.0/libgcc.a(_gt_sf.o)
 .bss           0x00000000060ba080        0x0 /joengine/Compiler/LINUX/bin/../lib/gcc/sh-none-elf/8.2.0/libgcc.a(_ge_sf.o)
 .bss           0x00000000060ba080        0x0 /joengine/Compiler/LINUX/bin/../lib/gcc/sh-none-elf/8.2.0/libgcc.a(_lt_sf.o)
 .bss           0x00000000060ba080        0x0 /joengine/Compiler/LINUX/bin/../lib/gcc/sh-none-elf/8.2.0/libgcc.a(_le_sf.o)
 .bss           0x00000000060ba080        0x0 /joengine/Compiler/LINUX/bin/../lib/gcc/sh-none-elf/8.2.0/libgcc.a(_si_to_sf.o)
 .bss           0x00000000060ba080        0x0 /joengine/Compiler/LINUX/bin/../lib/gcc/sh-none-elf/8.2.0/libgcc.a(_sf_to_si.o)
 .bss           0x00000000060ba080        0x0 /joengine/Compiler/LINUX/bin/../lib/gcc/sh-none-elf/8.2.0/libgcc.a(_sf_to_df.o)
 .bss           0x00000000060ba080        0x0 /joengine/Compiler/LINUX/bin/../lib/gcc/sh-none-elf/8.2.0/libgcc.a(_thenan_sf.o)
 .bss           0x00000000060ba080        0x0 /joengine/Compiler/LINUX/bin/../lib/gcc/sh-none-elf/8.2.0/libgcc.a(_usi_to_sf.o)
 .bss           0x00000000060ba080        0x0 /joengine/Compiler/LINUX/bin/../lib/gcc/sh-none-elf/8.2.0/libgcc.a(_make_df.o)
 .bss           0x00000000060ba080        0x0 /joengine/Compiler/LINUX/bin/../lib/gcc/sh-none-elf/8.2.0/libgcc.a(_df_to_sf.o)
 .bss           0x00000000060ba080        0x0 /joengine/Compiler/LINUX/bin/../lib/gcc/sh-none-elf/8.2.0/libgcc.a(_pack_sf.o)
 .bss           0x00000000060ba080        0x0 /joengine/Compiler/LINUX/bin/../lib/gcc/sh-none-elf/8.2.0/libgcc.a(_unpack_sf.o)
 .bss           0x00000000060ba080        0x0 /joengine/Compiler/LINUX/bin/../lib/gcc/sh-none-elf/8.2.0/libgcc.a(_fpcmp_parts_sf.o)
 .bss           0x00000000060ba080        0x0 /joengine/Compiler/LINUX/bin/../lib/gcc/sh-none-elf/8.2.0/libgcc.a(_make_sf.o)
 .bss           0x00000000060ba080        0x0 /joengine/Compiler/LINUX/bin/../lib/gcc/sh-none-elf/8.2.0/../../../../sh-none-elf/lib/libc.a(lib_a-impure.o)
 .bss           0x00000000060ba080        0x0 /joengine/Compiler/LINUX/bin/../lib/gcc/sh-none-elf/8.2.0/../../../../sh-none-elf/lib/libc.a(lib_a-memcmp.o)
 .bss           0x00000000060ba080        0x0 /joengine/Compiler/LINUX/bin/../lib/gcc/sh-none-elf/8.2.0/../../../../sh-none-elf/lib/libc.a(lib_a-memcpy.o)
 .bss           0x00000000060ba080        0x0 /joengine/Compiler/LINUX/bin/../lib/gcc/sh-none-elf/8.2.0/../../../../sh-none-elf/lib/libc.a(lib_a-memset.o)
 .bss           0x00000000060ba080        0x0 /joengine/Compiler/LINUX/bin/../lib/gcc/sh-none-elf/8.2.0/../../../../sh-none-elf/lib/libc.a(lib_a-rand.o)
 .bss           0x00000000060ba080        0x0 /joengine/Compiler/LINUX/bin/../lib/gcc/sh-none-elf/8.2.0/../../../../sh-none-elf/lib/libc.a(lib_a-rget.o)
 .bss           0x00000000060ba080        0x0 /joengine/Compiler/LINUX/bin/../lib/gcc/sh-none-elf/8.2.0/../../../../sh-none-elf/lib/libc.a(lib_a-sprintf.o)
 .bss           0x00000000060ba080        0x0 /joengine/Compiler/LINUX/bin/../lib/gcc/sh-none-elf/8.2.0/../../../../sh-none-elf/lib/libc.a(lib_a-strcat.o)
 .bss           0x00000000060ba080        0x0 /joengine/Compiler/LINUX/bin/../lib/gcc/sh-none-elf/8.2.0/../../../../sh-none-elf/lib/libc.a(lib_a-strcmp.o)
 .bss           0x00000000060ba080        0x0 /joengine/Compiler/LINUX/bin/../lib/gcc/sh-none-elf/8.2.0/../../../../sh-none-elf/lib/libc.a(lib_a-strcpy.o)
 .bss           0x00000000060ba080        0x0 /joengine/Compiler/LINUX/bin/../lib/gcc/sh-none-elf/8.2.0/../../../../sh-none-elf/lib/libc.a(lib_a-strlen.o)
 .bss           0x00000000060ba080        0x0 /joengine/Compiler/LINUX/bin/../lib/gcc/sh-none-elf/8.2.0/../../../../sh-none-elf/lib/libc.a(lib_a-strncmp.o)
 .bss           0x00000000060ba080        0x0 /joengine/Compiler/LINUX/bin/../lib/gcc/sh-none-elf/8.2.0/../../../../sh-none-elf/lib/libc.a(lib_a-strncpy.o)
 .bss           0x00000000060ba080        0x0 /joengine/Compiler/LINUX/bin/../lib/gcc/sh-none-elf/8.2.0/../../../../sh-none-elf/lib/libc.a(lib_a-strstr.o)
 .bss           0x00000000060ba080        0x0 /joengine/Compiler/LINUX/bin/../lib/gcc/sh-none-elf/8.2.0/../../../../sh-none-elf/lib/libc.a(lib_a-svfprintf.o)
 .bss           0x00000000060ba080        0x0 /joengine/Compiler/LINUX/bin/../lib/gcc/sh-none-elf/8.2.0/../../../../sh-none-elf/lib/libc.a(lib_a-wbuf.o)
 .bss           0x00000000060ba080        0x0 /joengine/Compiler/LINUX/bin/../lib/gcc/sh-none-elf/8.2.0/../../../../sh-none-elf/lib/libc.a(lib_a-wsetup.o)
 .bss           0x00000000060ba080        0x0 /joengine/Compiler/LINUX/bin/../lib/gcc/sh-none-elf/8.2.0/../../../../sh-none-elf/lib/libc.a(lib_a-dtoa.o)
 .bss           0x00000000060ba080        0x0 /joengine/Compiler/LINUX/bin/../lib/gcc/sh-none-elf/8.2.0/../../../../sh-none-elf/lib/libc.a(lib_a-fflush.o)
 .bss           0x00000000060ba080        0x0 /joengine/Compiler/LINUX/bin/../lib/gcc/sh-none-elf/8.2.0/../../../../sh-none-elf/lib/libc.a(lib_a-findfp.o)
 .bss           0x00000000060ba080        0x0 /joengine/Compiler/LINUX/bin/../lib/gcc/sh-none-elf/8.2.0/../../../../sh-none-elf/lib/libc.a(lib_a-fwalk.o)
 .bss           0x00000000060ba080        0x0 /joengine/Compiler/LINUX/bin/../lib/gcc/sh-none-elf/8.2.0/../../../../sh-none-elf/lib/libc.a(lib_a-localeconv.o)
 .bss           0x00000000060ba080        0x4 /joengine/Compiler/LINUX/bin/../lib/gcc/sh-none-elf/8.2.0/../../../../sh-none-elf/lib/libc.a(lib_a-locale.o)
                0x00000000060ba080                _PathLocale
 .bss           0x00000000060ba084        0x0 /joengine/Compiler/LINUX/bin/../lib/gcc/sh-none-elf/8.2.0/../../../../sh-none-elf/lib/libc.a(lib_a-makebuf.o)
 .bss           0x00000000060ba084        0x0 /joengine/Compiler/LINUX/bin/../lib/gcc/sh-none-elf/8.2.0/../../../../sh-none-elf/lib/libc.a(lib_a-mbtowc_r.o)
 .bss           0x00000000060ba084        0x0 /joengine/Compiler/LINUX/bin/../lib/gcc/sh-none-elf/8.2.0/../../../../sh-none-elf/lib/libc.a(lib_a-memchr.o)
 .bss           0x00000000060ba084        0x0 /joengine/Compiler/LINUX/bin/../lib/gcc/sh-none-elf/8.2.0/../../../../sh-none-elf/lib/libc.a(lib_a-mprec.o)
 .bss           0x00000000060ba084        0x0 /joengine/Compiler/LINUX/bin/../lib/gcc/sh-none-elf/8.2.0/../../../../sh-none-elf/lib/libc.a(lib_a-refill.o)
 .bss           0x00000000060ba084        0x0 /joengine/Compiler/LINUX/bin/../lib/gcc/sh-none-elf/8.2.0/../../../../sh-none-elf/lib/libc.a(lib_a-stdio.o)
 .bss           0x00000000060ba084        0x0 /joengine/Compiler/LINUX/bin/../lib/gcc/sh-none-elf/8.2.0/../../../../sh-none-elf/lib/libc.a(lib_a-svfiprintf.o)
 .bss           0x00000000060ba084        0x0 /joengine/Compiler/LINUX/bin/../lib/gcc/sh-none-elf/8.2.0/../../../../sh-none-elf/lib/libc.a(lib_a-wctomb_r.o)
 .bss           0x00000000060ba084        0x0 /joengine/Compiler/LINUX/bin/../lib/gcc/sh-none-elf/8.2.0/../../../../sh-none-elf/lib/libc.a(lib_a-writer.o)
 .bss           0x00000000060ba084        0x0 /joengine/Compiler/LINUX/bin/../lib/gcc/sh-none-elf/8.2.0/../../../../sh-none-elf/lib/libc.a(lib_a-closer.o)
 .bss           0x00000000060ba084        0x0 /joengine/Compiler/LINUX/bin/../lib/gcc/sh-none-elf/8.2.0/../../../../sh-none-elf/lib/libc.a(lib_a-ctype_.o)
 .bss           0x00000000060ba084        0x0 /joengine/Compiler/LINUX/bin/../lib/gcc/sh-none-elf/8.2.0/../../../../sh-none-elf/lib/libc.a(lib_a-fclose.o)
 .bss           0x00000000060ba084        0x0 /joengine/Compiler/LINUX/bin/../lib/gcc/sh-none-elf/8.2.0/../../../../sh-none-elf/lib/libc.a(lib_a-fstatr.o)
 .bss           0x00000000060ba084        0x0 /joengine/Compiler/LINUX/bin/../lib/gcc/sh-none-elf/8.2.0/../../../../sh-none-elf/lib/libc.a(lib_a-isattyr.o)
 .bss           0x00000000060ba084        0x0 /joengine/Compiler/LINUX/bin/../lib/gcc/sh-none-elf/8.2.0/../../../../sh-none-elf/lib/libc.a(lib_a-lseekr.o)
 .bss           0x00000000060ba084        0x0 /joengine/Compiler/LINUX/bin/../lib/gcc/sh-none-elf/8.2.0/../../../../sh-none-elf/lib/libc.a(lib_a-memmove.o)
 .bss           0x00000000060ba084        0x0 /joengine/Compiler/LINUX/bin/../lib/gcc/sh-none-elf/8.2.0/../../../../sh-none-elf/lib/libc.a(lib_a-readr.o)
 .bss           0x00000000060ba084        0x0 /joengine/Compiler/LINUX/bin/../lib/gcc/sh-none-elf/8.2.0/../../../../sh-none-elf/lib/libc.a(lib_a-reent.o)
 .bss           0x00000000060ba084        0x0 /joengine/Compiler/LINUX/bin/../lib/gcc/sh-none-elf/8.2.0/libgcc.a(_ashiftrt_n.o)
 .bss           0x00000000060ba084        0x0 /joengine/Compiler/LINUX/bin/../lib/gcc/sh-none-elf/8.2.0/libgcc.a(_ashiftlt.o)
 .bss           0x00000000060ba084        0x0 /joengine/Compiler/LINUX/bin/../lib/gcc/sh-none-elf/8.2.0/libgcc.a(_lshiftrt.o)
 .bss           0x00000000060ba084        0x0 /joengine/Compiler/LINUX/bin/../lib/gcc/sh-none-elf/8.2.0/libgcc.a(_udivdi3.o)
 .bss           0x00000000060ba084        0x0 /joengine/Compiler/LINUX/bin/../lib/gcc/sh-none-elf/8.2.0/libgcc.a(_umoddi3.o)
 .bss           0x00000000060ba084        0x0 /joengine/Compiler/LINUX/bin/../lib/gcc/sh-none-elf/8.2.0/libgcc.a(_addsub_df.o)
 .bss           0x00000000060ba084        0x0 /joengine/Compiler/LINUX/bin/../lib/gcc/sh-none-elf/8.2.0/libgcc.a(_mul_df.o)
 .bss           0x00000000060ba084        0x0 /joengine/Compiler/LINUX/bin/../lib/gcc/sh-none-elf/8.2.0/libgcc.a(_div_df.o)
 .bss           0x00000000060ba084        0x0 /joengine/Compiler/LINUX/bin/../lib/gcc/sh-none-elf/8.2.0/libgcc.a(_eq_df.o)
 .bss           0x00000000060ba084        0x0 /joengine/Compiler/LINUX/bin/../lib/gcc/sh-none-elf/8.2.0/libgcc.a(_ne_df.o)
 .bss           0x00000000060ba084        0x0 /joengine/Compiler/LINUX/bin/../lib/gcc/sh-none-elf/8.2.0/libgcc.a(_gt_df.o)
 .bss           0x00000000060ba084        0x0 /joengine/Compiler/LINUX/bin/../lib/gcc/sh-none-elf/8.2.0/libgcc.a(_ge_df.o)
 .bss           0x00000000060ba084        0x0 /joengine/Compiler/LINUX/bin/../lib/gcc/sh-none-elf/8.2.0/libgcc.a(_lt_df.o)
 .bss           0x00000000060ba084        0x0 /joengine/Compiler/LINUX/bin/../lib/gcc/sh-none-elf/8.2.0/libgcc.a(_le_df.o)
 .bss           0x00000000060ba084        0x0 /joengine/Compiler/LINUX/bin/../lib/gcc/sh-none-elf/8.2.0/libgcc.a(_unord_df.o)
 .bss           0x00000000060ba084        0x0 /joengine/Compiler/LINUX/bin/../lib/gcc/sh-none-elf/8.2.0/libgcc.a(_si_to_df.o)
 .bss           0x00000000060ba084        0x0 /joengine/Compiler/LINUX/bin/../lib/gcc/sh-none-elf/8.2.0/libgcc.a(_df_to_si.o)
 .bss           0x00000000060ba084        0x0 /joengine/Compiler/LINUX/bin/../lib/gcc/sh-none-elf/8.2.0/libgcc.a(_thenan_df.o)
 .bss           0x00000000060ba084        0x0 /joengine/Compiler/LINUX/bin/../lib/gcc/sh-none-elf/8.2.0/libgcc.a(_usi_to_df.o)
 .bss           0x00000000060ba084        0x0 /joengine/Compiler/LINUX/bin/../lib/gcc/sh-none-elf/8.2.0/libgcc.a(_udiv_qrnnd_16.o)
 .bss           0x00000000060ba084        0x0 /joengine/Compiler/LINUX/bin/../lib/gcc/sh-none-elf/8.2.0/libgcc.a(_clz.o)
 .bss           0x00000000060ba084        0x0 /joengine/Compiler/LINUX/bin/../lib/gcc/sh-none-elf/8.2.0/libgcc.a(_clzsi2.o)
 .bss           0x00000000060ba084        0x0 /joengine/Compiler/LINUX/bin/../lib/gcc/sh-none-elf/8.2.0/libgcc.a(_pack_df.o)
 .bss           0x00000000060ba084        0x0 /joengine/Compiler/LINUX/bin/../lib/gcc/sh-none-elf/8.2.0/libgcc.a(_unpack_df.o)
 .bss           0x00000000060ba084        0x0 /joengine/Compiler/LINUX/bin/../lib/gcc/sh-none-elf/8.2.0/libgcc.a(_fpcmp_parts_df.o)
 *(COMMON)
 COMMON         0x00000000060ba084        0xc /joengine/Compiler/COMMON/SGL_302j/LIB_ELF/LIBCD.A(GFS.O)
                0x00000000060ba084                GFMC_base
                0x00000000060ba088                gfs_mng_ptr
                0x00000000060ba08c                gfs_use_scudma
 COMMON         0x00000000060ba090        0xc /joengine/Compiler/COMMON/SGL_302j/LIB_ELF/LIBCD.A(GFS_CDC.O)
                0x00000000060ba090                gfcd_fatal_err
                0x00000000060ba094                gfcd_work
                0x00000000060ba098                gfcd_playflag
 COMMON         0x00000000060ba09c        0x8 /joengine/Compiler/COMMON/SGL_302j/LIB_ELF/LIBCD.A(GFS_CDF.O)
                0x00000000060ba09c                gfcf_fad
                0x00000000060ba0a0                gfcf_stat
 COMMON         0x00000000060ba0a4        0x4 /joengine/Compiler/LINUX/bin/../lib/gcc/sh-none-elf/8.2.0/../../../../sh-none-elf/lib/libc.a(lib_a-reent.o)
                0x00000000060ba0a4                errno
                0x00000000060ba0a8                __bend = .
                0x00000000060ba0a8                _end = .
LOAD /joengine/Compiler/COMMON/SGL_302j/LIB_ELF/SGLAREA.O
LOAD /tmp/ccDKVNpG.ltrans0.ltrans.o
LOAD /tmp/ccDKVNpG.ltrans1.ltrans.o
LOAD /joengine/Compiler/COMMON/SGL_302j/LIB_ELF/SEGA_SYS.A
LOAD /joengine/Compiler/COMMON/SGL_302j/LIB_ELF/LIBCD.A
LOAD /joengine/Compiler/COMMON/SGL_302j/LIB_ELF/LIBSGL.A
LOAD /joengine/Compiler/LINUX/bin/../lib/gcc/sh-none-elf/8.2.0/libgcc.a
LOAD /joengine/Compiler/LINUX/bin/../lib/gcc/sh-none-elf/8.2.0/libgcc.a
LOAD /joengine/Compiler/LINUX/bin/../lib/gcc/sh-none-elf/8.2.0/libgcc-Os-4-200.a
LOAD /joengine/Compiler/LINUX/bin/../lib/gcc/sh-none-elf/8.2.0/../../../../sh-none-elf/lib/libc.a
LOAD /joengine/Compiler/LINUX/bin/../lib/gcc/sh-none-elf/8.2.0/libgcc.a
LOAD /joengine/Compiler/LINUX/bin/../lib/gcc/sh-none-elf/8.2.0/libgcc-Os-4-200.a
OUTPUT(game.elf coff-sh)

.comment        0x0000000000000000      0x590
 .comment       0x0000000000000000       0x12 /tmp/ccDKVNpG.ltrans0.ltrans.o
 .comment       0x0000000000000012       0x12 /tmp/ccDKVNpG.ltrans1.ltrans.o
 .comment       0x0000000000000024       0x12 /joengine/Compiler/LINUX/bin/../lib/gcc/sh-none-elf/8.2.0/libgcc.a(_addsub_sf.o)
 .comment       0x0000000000000036       0x12 /joengine/Compiler/LINUX/bin/../lib/gcc/sh-none-elf/8.2.0/libgcc.a(_mul_sf.o)
 .comment       0x0000000000000048       0x12 /joengine/Compiler/LINUX/bin/../lib/gcc/sh-none-elf/8.2.0/libgcc.a(_div_sf.o)
 .comment       0x000000000000005a       0x12 /joengine/Compiler/LINUX/bin/../lib/gcc/sh-none-elf/8.2.0/libgcc.a(_eq_sf.o)
 .comment       0x000000000000006c       0x12 /joengine/Compiler/LINUX/bin/../lib/gcc/sh-none-elf/8.2.0/libgcc.a(_ne_sf.o)
 .comment       0x000000000000007e       0x12 /joengine/Compiler/LINUX/bin/../lib/gcc/sh-none-elf/8.2.0/libgcc.a(_gt_sf.o)
 .comment       0x0000000000000090       0x12 /joengine/Compiler/LINUX/bin/../lib/gcc/sh-none-elf/8.2.0/libgcc.a(_ge_sf.o)
 .comment       0x00000000000000a2       0x12 /joengine/Compiler/LINUX/bin/../lib/gcc/sh-none-elf/8.2.0/libgcc.a(_lt_sf.o)
 .comment       0x00000000000000b4       0x12 /joengine/Compiler/LINUX/bin/../lib/gcc/sh-none-elf/8.2.0/libgcc.a(_le_sf.o)
 .comment       0x00000000000000c6       0x12 /joengine/Compiler/LINUX/bin/../lib/gcc/sh-none-elf/8.2.0/libgcc.a(_si_to_sf.o)
 .comment       0x00000000000000d8       0x12 /joengine/Compiler/LINUX/bin/../lib/gcc/sh-none-elf/8.2.0/libgcc.a(_sf_to_si.o)
 .comment       0x00000000000000ea       0x12 /joengine/Compiler/LINUX/bin/../lib/gcc/sh-none-elf/8.2.0/libgcc.a(_sf_to_df.o)
 .comment       0x00000000000000fc       0x12 /joengine/Compiler/LINUX/bin/../lib/gcc/sh-none-elf/8.2.0/libgcc.a(_thenan_sf.o)
 .comment       0x000000000000010e       0x12 /joengine/Compiler/LINUX/bin/../lib/gcc/sh-none-elf/8.2.0/libgcc.a(_usi_to_sf.o)
 .comment       0x0000000000000120       0x12 /joengine/Compiler/LINUX/bin/../lib/gcc/sh-none-elf/8.2.0/libgcc.a(_make_df.o)
 .comment       0x0000000000000132       0x12 /joengine/Compiler/LINUX/bin/../lib/gcc/sh-none-elf/8.2.0/libgcc.a(_df_to_sf.o)
 .comment       0x0000000000000144       0x12 /joengine/Compiler/LINUX/bin/../lib/gcc/sh-none-elf/8.2.0/libgcc.a(_pack_sf.o)
 .comment       0x0000000000000156       0x12 /joengine/Compiler/LINUX/bin/../lib/gcc/sh-none-elf/8.2.0/libgcc.a(_unpack_sf.o)
 .comment       0x0000000000000168       0x12 /joengine/Compiler/LINUX/bin/../lib/gcc/sh-none-elf/8.2.0/libgcc.a(_fpcmp_parts_sf.o)
 .comment       0x000000000000017a       0x12 /joengine/Compiler/LINUX/bin/../lib/gcc/sh-none-elf/8.2.0/libgcc.a(_make_sf.o)
 .comment       0x000000000000018c       0x12 /joengine/Compiler/LINUX/bin/../lib/gcc/sh-none-elf/8.2.0/../../../../sh-none-elf/lib/libc.a(lib_a-impure.o)
 .comment       0x000000000000019e       0x12 /joengine/Compiler/LINUX/bin/../lib/gcc/sh-none-elf/8.2.0/../../../../sh-none-elf/lib/libc.a(lib_a-memcmp.o)
 .comment       0x00000000000001b0       0x12 /joengine/Compiler/LINUX/bin/../lib/gcc/sh-none-elf/8.2.0/../../../../sh-none-elf/lib/libc.a(lib_a-rand.o)
 .comment       0x00000000000001c2       0x12 /joengine/Compiler/LINUX/bin/../lib/gcc/sh-none-elf/8.2.0/../../../../sh-none-elf/lib/libc.a(lib_a-rget.o)
 .comment       0x00000000000001d4       0x12 /joengine/Compiler/LINUX/bin/../lib/gcc/sh-none-elf/8.2.0/../../../../sh-none-elf/lib/libc.a(lib_a-sprintf.o)
 .comment       0x00000000000001e6       0x12 /joengine/Compiler/LINUX/bin/../lib/gcc/sh-none-elf/8.2.0/../../../../sh-none-elf/lib/libc.a(lib_a-strcat.o)
 .comment       0x00000000000001f8       0x12 /joengine/Compiler/LINUX/bin/../lib/gcc/sh-none-elf/8.2.0/../../../../sh-none-elf/lib/libc.a(lib_a-strncmp.o)
 .comment       0x000000000000020a       0x12 /joengine/Compiler/LINUX/bin/../lib/gcc/sh-none-elf/8.2.0/../../../../sh-none-elf/lib/libc.a(lib_a-strncpy.o)
 .comment       0x000000000000021c       0x12 /joengine/Compiler/LINUX/bin/../lib/gcc/sh-none-elf/8.2.0/../../../../sh-none-elf/lib/libc.a(lib_a-strstr.o)
 .comment       0x000000000000022e       0x12 /joengine/Compiler/LINUX/bin/../lib/gcc/sh-none-elf/8.2.0/../../../../sh-none-elf/lib/libc.a(lib_a-svfprintf.o)
 .comment       0x0000000000000240       0x12 /joengine/Compiler/LINUX/bin/../lib/gcc/sh-none-elf/8.2.0/../../../../sh-none-elf/lib/libc.a(lib_a-wbuf.o)
 .comment       0x0000000000000252       0x12 /joengine/Compiler/LINUX/bin/../lib/gcc/sh-none-elf/8.2.0/../../../../sh-none-elf/lib/libc.a(lib_a-wsetup.o)
 .comment       0x0000000000000264       0x12 /joengine/Compiler/LINUX/bin/../lib/gcc/sh-none-elf/8.2.0/../../../../sh-none-elf/lib/libc.a(lib_a-dtoa.o)
 .comment       0x0000000000000276       0x12 /joengine/Compiler/LINUX/bin/../lib/gcc/sh-none-elf/8.2.0/../../../../sh-none-elf/lib/libc.a(lib_a-fflush.o)
 .comment       0x0000000000000288       0x12 /joengine/Compiler/LINUX/bin/../lib/gcc/sh-none-elf/8.2.0/../../../../sh-none-elf/lib/libc.a(lib_a-findfp.o)
 .comment       0x000000000000029a       0x12 /joengine/Compiler/LINUX/bin/../lib/gcc/sh-none-elf/8.2.0/../../../../sh-none-elf/lib/libc.a(lib_a-fwalk.o)
 .comment       0x00000000000002ac       0x12 /joengine/Compiler/LINUX/bin/../lib/gcc/sh-none-elf/8.2.0/../../../../sh-none-elf/lib/libc.a(lib_a-localeconv.o)
 .comment       0x00000000000002be       0x12 /joengine/Compiler/LINUX/bin/../lib/gcc/sh-none-elf/8.2.0/../../../../sh-none-elf/lib/libc.a(lib_a-locale.o)
 .comment       0x00000000000002d0       0x12 /joengine/Compiler/LINUX/bin/../lib/gcc/sh-none-elf/8.2.0/../../../../sh-none-elf/lib/libc.a(lib_a-makebuf.o)
 .comment       0x00000000000002e2       0x12 /joengine/Compiler/LINUX/bin/../lib/gcc/sh-none-elf/8.2.0/../../../../sh-none-elf/lib/libc.a(lib_a-mbtowc_r.o)
 .comment       0x00000000000002f4       0x12 /joengine/Compiler/LINUX/bin/../lib/gcc/sh-none-elf/8.2.0/../../../../sh-none-elf/lib/libc.a(lib_a-memchr.o)
 .comment       0x0000000000000306       0x12 /joengine/Compiler/LINUX/bin/../lib/gcc/sh-none-elf/8.2.0/../../../../sh-none-elf/lib/libc.a(lib_a-mprec.o)
 .comment       0x0000000000000318       0x12 /joengine/Compiler/LINUX/bin/../lib/gcc/sh-none-elf/8.2.0/../../../../sh-none-elf/lib/libc.a(lib_a-refill.o)
 .comment       0x000000000000032a       0x12 /joengine/Compiler/LINUX/bin/../lib/gcc/sh-none-elf/8.2.0/../../../../sh-none-elf/lib/libc.a(lib_a-stdio.o)
 .comment       0x000000000000033c       0x12 /joengine/Compiler/LINUX/bin/../lib/gcc/sh-none-elf/8.2.0/../../../../sh-none-elf/lib/libc.a(lib_a-svfiprintf.o)
 .comment       0x000000000000034e       0x12 /joengine/Compiler/LINUX/bin/../lib/gcc/sh-none-elf/8.2.0/../../../../sh-none-elf/lib/libc.a(lib_a-wctomb_r.o)
 .comment       0x0000000000000360       0x12 /joengine/Compiler/LINUX/bin/../lib/gcc/sh-none-elf/8.2.0/../../../../sh-none-elf/lib/libc.a(lib_a-writer.o)
 .comment       0x0000000000000372       0x12 /joengine/Compiler/LINUX/bin/../lib/gcc/sh-none-elf/8.2.0/../../../../sh-none-elf/lib/libc.a(lib_a-closer.o)
 .comment       0x0000000000000384       0x12 /joengine/Compiler/LINUX/bin/../lib/gcc/sh-none-elf/8.2.0/../../../../sh-none-elf/lib/libc.a(lib_a-ctype_.o)
 .comment       0x0000000000000396       0x12 /joengine/Compiler/LINUX/bin/../lib/gcc/sh-none-elf/8.2.0/../../../../sh-none-elf/lib/libc.a(lib_a-fclose.o)
 .comment       0x00000000000003a8       0x12 /joengine/Compiler/LINUX/bin/../lib/gcc/sh-none-elf/8.2.0/../../../../sh-none-elf/lib/libc.a(lib_a-fstatr.o)
 .comment       0x00000000000003ba       0x12 /joengine/Compiler/LINUX/bin/../lib/gcc/sh-none-elf/8.2.0/../../../../sh-none-elf/lib/libc.a(lib_a-isattyr.o)
 .comment       0x00000000000003cc       0x12 /joengine/Compiler/LINUX/bin/../lib/gcc/sh-none-elf/8.2.0/../../../../sh-none-elf/lib/libc.a(lib_a-lseekr.o)
 .comment       0x00000000000003de       0x12 /joengine/Compiler/LINUX/bin/../lib/gcc/sh-none-elf/8.2.0/../../../../sh-none-elf/lib/libc.a(lib_a-memmove.o)
 .comment       0x00000000000003f0       0x12 /joengine/Compiler/LINUX/bin/../lib/gcc/sh-none-elf/8.2.0/../../../../sh-none-elf/lib/libc.a(lib_a-readr.o)
 .comment       0x0000000000000402       0x12 /joengine/Compiler/LINUX/bin/../lib/gcc/sh-none-elf/8.2.0/../../../../sh-none-elf/lib/libc.a(lib_a-reent.o)
 .comment       0x0000000000000414       0x12 /joengine/Compiler/LINUX/bin/../lib/gcc/sh-none-elf/8.2.0/libgcc.a(_udivdi3.o)
 .comment       0x0000000000000426       0x12 /joengine/Compiler/LINUX/bin/../lib/gcc/sh-none-elf/8.2.0/libgcc.a(_umoddi3.o)
 .comment       0x0000000000000438       0x12 /joengine/Compiler/LINUX/bin/../lib/gcc/sh-none-elf/8.2.0/libgcc.a(_addsub_df.o)
 .comment       0x000000000000044a       0x12 /joengine/Compiler/LINUX/bin/../lib/gcc/sh-none-elf/8.2.0/libgcc.a(_mul_df.o)
 .comment       0x000000000000045c       0x12 /joengine/Compiler/LINUX/bin/../lib/gcc/sh-none-elf/8.2.0/libgcc.a(_div_df.o)
 .comment       0x000000000000046e       0x12 /joengine/Compiler/LINUX/bin/../lib/gcc/sh-none-elf/8.2.0/libgcc.a(_eq_df.o)
 .comment       0x0000000000000480       0x12 /joengine/Compiler/LINUX/bin/../lib/gcc/sh-none-elf/8.2.0/libgcc.a(_ne_df.o)
 .comment       0x0000000000000492       0x12 /joengine/Compiler/LINUX/bin/../lib/gcc/sh-none-elf/8.2.0/libgcc.a(_gt_df.o)
 .comment       0x00000000000004a4       0x12 /joengine/Compiler/LINUX/bin/../lib/gcc/sh-none-elf/8.2.0/libgcc.a(_ge_df.o)
 .comment       0x00000000000004b6       0x12 /joengine/Compiler/LINUX/bin/../lib/gcc/sh-none-elf/8.2.0/libgcc.a(_lt_df.o)
 .comment       0x00000000000004c8       0x12 /joengine/Compiler/LINUX/bin/../lib/gcc/sh-none-elf/8.2.0/libgcc.a(_le_df.o)
 .comment       0x00000000000004da       0x12 /joengine/Compiler/LINUX/bin/../lib/gcc/sh-none-elf/8.2.0/libgcc.a(_unord_df.o)
 .comment       0x00000000000004ec       0x12 /joengine/Compiler/LINUX/bin/../lib/gcc/sh-none-elf/8.2.0/libgcc.a(_si_to_df.o)
 .comment       0x00000000000004fe       0x12 /joengine/Compiler/LINUX/bin/../lib/gcc/sh-none-elf/8.2.0/libgcc.a(_df_to_si.o)
 .comment       0x0000000000000510       0x12 /joengine/Compiler/LINUX/bin/../lib/gcc/sh-none-elf/8.2.0/libgcc.a(_thenan_df.o)
 .comment       0x0000000000000522       0x12 /joengine/Compiler/LINUX/bin/../lib/gcc/sh-none-elf/8.2.0/libgcc.a(_usi_to_df.o)
 .comment       0x0000000000000534       0x12 /joengine/Compiler/LINUX/bin/../lib/gcc/sh-none-elf/8.2.0/libgcc.a(_clz.o)
 .comment       0x0000000000000546       0x12 /joengine/Compiler/LINUX/bin/../lib/gcc/sh-none-elf/8.2.0/libgcc.a(_clzsi2.o)
 .comment       0x0000000000000558       0x12 /joengine/Compiler/LINUX/bin/../lib/gcc/sh-none-elf/8.2.0/libgcc.a(_pack_df.o)
 .comment       0x000000000000056a       0x12 /joengine/Compiler/LINUX/bin/../lib/gcc/sh-none-elf/8.2.0/libgcc.a(_unpack_df.o)
 .comment       0x000000000000057c       0x12 /joengine/Compiler/LINUX/bin/../lib/gcc/sh-none-elf/8.2.0/libgcc.a(_fpcmp_parts_df.o)

.debug_info     0x0000000000000000    0x2bd10
 .debug_info    0x0000000000000000      0x72f /joengine/Compiler/LINUX/bin/../lib/gcc/sh-none-elf/8.2.0/libgcc.a(_addsub_sf.o)
 .debug_info    0x000000000000072f      0x610 /joengine/Compiler/LINUX/bin/../lib/gcc/sh-none-elf/8.2.0/libgcc.a(_mul_sf.o)
 .debug_info    0x0000000000000d3f      0x5d8 /joengine/Compiler/LINUX/bin/../lib/gcc/sh-none-elf/8.2.0/libgcc.a(_div_sf.o)
 .debug_info    0x0000000000001317      0x4e7 /joengine/Compiler/LINUX/bin/../lib/gcc/sh-none-elf/8.2.0/libgcc.a(_eq_sf.o)
 .debug_info    0x00000000000017fe      0x4e7 /joengine/Compiler/LINUX/bin/../lib/gcc/sh-none-elf/8.2.0/libgcc.a(_ne_sf.o)
 .debug_info    0x0000000000001ce5      0x4e7 /joengine/Compiler/LINUX/bin/../lib/gcc/sh-none-elf/8.2.0/libgcc.a(_gt_sf.o)
 .debug_info    0x00000000000021cc      0x4e7 /joengine/Compiler/LINUX/bin/../lib/gcc/sh-none-elf/8.2.0/libgcc.a(_ge_sf.o)
 .debug_info    0x00000000000026b3      0x4e7 /joengine/Compiler/LINUX/bin/../lib/gcc/sh-none-elf/8.2.0/libgcc.a(_lt_sf.o)
 .debug_info    0x0000000000002b9a      0x4e7 /joengine/Compiler/LINUX/bin/../lib/gcc/sh-none-elf/8.2.0/libgcc.a(_le_sf.o)
 .debug_info    0x0000000000003081      0x494 /joengine/Compiler/LINUX/bin/../lib/gcc/sh-none-elf/8.2.0/libgcc.a(_si_to_sf.o)
 .debug_info    0x0000000000003515      0x4c1 /joengine/Compiler/LINUX/bin/../lib/gcc/sh-none-elf/8.2.0/libgcc.a(_sf_to_si.o)
 .debug_info    0x00000000000039d6      0x47d /joengine/Compiler/LINUX/bin/../lib/gcc/sh-none-elf/8.2.0/libgcc.a(_sf_to_df.o)
 .debug_info    0x0000000000003e53      0x391 /joengine/Compiler/LINUX/bin/../lib/gcc/sh-none-elf/8.2.0/libgcc.a(_thenan_sf.o)
 .debug_info    0x00000000000041e4      0x4cd /joengine/Compiler/LINUX/bin/../lib/gcc/sh-none-elf/8.2.0/libgcc.a(_usi_to_sf.o)
 .debug_info    0x00000000000046b1      0x429 /joengine/Compiler/LINUX/bin/../lib/gcc/sh-none-elf/8.2.0/libgcc.a(_make_df.o)
 .debug_info    0x0000000000004ada      0x48f /joengine/Compiler/LINUX/bin/../lib/gcc/sh-none-elf/8.2.0/libgcc.a(_df_to_sf.o)
 .debug_info    0x0000000000004f69      0x4c7 /joengine/Compiler/LINUX/bin/../lib/gcc/sh-none-elf/8.2.0/libgcc.a(_pack_sf.o)
 .debug_info    0x0000000000005430      0x452 /joengine/Compiler/LINUX/bin/../lib/gcc/sh-none-elf/8.2.0/libgcc.a(_unpack_sf.o)
 .debug_info    0x0000000000005882      0x425 /joengine/Compiler/LINUX/bin/../lib/gcc/sh-none-elf/8.2.0/libgcc.a(_fpcmp_parts_sf.o)
 .debug_info    0x0000000000005ca7      0x42a /joengine/Compiler/LINUX/bin/../lib/gcc/sh-none-elf/8.2.0/libgcc.a(_make_sf.o)
 .debug_info    0x00000000000060d1      0x92a /joengine/Compiler/LINUX/bin/../lib/gcc/sh-none-elf/8.2.0/../../../../sh-none-elf/lib/libc.a(lib_a-impure.o)
 .debug_info    0x00000000000069fb      0x982 /joengine/Compiler/LINUX/bin/../lib/gcc/sh-none-elf/8.2.0/../../../../sh-none-elf/lib/libc.a(lib_a-memcmp.o)
 .debug_info    0x000000000000737d      0x972 /joengine/Compiler/LINUX/bin/../lib/gcc/sh-none-elf/8.2.0/../../../../sh-none-elf/lib/libc.a(lib_a-rand.o)
 .debug_info    0x0000000000007cef      0xc09 /joengine/Compiler/LINUX/bin/../lib/gcc/sh-none-elf/8.2.0/../../../../sh-none-elf/lib/libc.a(lib_a-rget.o)
 .debug_info    0x00000000000088f8      0xc67 /joengine/Compiler/LINUX/bin/../lib/gcc/sh-none-elf/8.2.0/../../../../sh-none-elf/lib/libc.a(lib_a-sprintf.o)
 .debug_info    0x000000000000955f      0x955 /joengine/Compiler/LINUX/bin/../lib/gcc/sh-none-elf/8.2.0/../../../../sh-none-elf/lib/libc.a(lib_a-strcat.o)
 .debug_info    0x0000000000009eb4      0x959 /joengine/Compiler/LINUX/bin/../lib/gcc/sh-none-elf/8.2.0/../../../../sh-none-elf/lib/libc.a(lib_a-strncmp.o)
 .debug_info    0x000000000000a80d      0x985 /joengine/Compiler/LINUX/bin/../lib/gcc/sh-none-elf/8.2.0/../../../../sh-none-elf/lib/libc.a(lib_a-strncpy.o)
 .debug_info    0x000000000000b192      0x95f /joengine/Compiler/LINUX/bin/../lib/gcc/sh-none-elf/8.2.0/../../../../sh-none-elf/lib/libc.a(lib_a-strstr.o)
 .debug_info    0x000000000000baf1     0x1dad /joengine/Compiler/LINUX/bin/../lib/gcc/sh-none-elf/8.2.0/../../../../sh-none-elf/lib/libc.a(lib_a-svfprintf.o)
 .debug_info    0x000000000000d89e      0xc7b /joengine/Compiler/LINUX/bin/../lib/gcc/sh-none-elf/8.2.0/../../../../sh-none-elf/lib/libc.a(lib_a-wbuf.o)
 .debug_info    0x000000000000e519      0xbe7 /joengine/Compiler/LINUX/bin/../lib/gcc/sh-none-elf/8.2.0/../../../../sh-none-elf/lib/libc.a(lib_a-wsetup.o)
 .debug_info    0x000000000000f100     0x1a1d /joengine/Compiler/LINUX/bin/../lib/gcc/sh-none-elf/8.2.0/../../../../sh-none-elf/lib/libc.a(lib_a-dtoa.o)
 .debug_info    0x0000000000010b1d      0xd41 /joengine/Compiler/LINUX/bin/../lib/gcc/sh-none-elf/8.2.0/../../../../sh-none-elf/lib/libc.a(lib_a-fflush.o)
 .debug_info    0x000000000001185e     0x1005 /joengine/Compiler/LINUX/bin/../lib/gcc/sh-none-elf/8.2.0/../../../../sh-none-elf/lib/libc.a(lib_a-findfp.o)
 .debug_info    0x0000000000012863      0xc6c /joengine/Compiler/LINUX/bin/../lib/gcc/sh-none-elf/8.2.0/../../../../sh-none-elf/lib/libc.a(lib_a-fwalk.o)
 .debug_info    0x00000000000134cf      0xfa0 /joengine/Compiler/LINUX/bin/../lib/gcc/sh-none-elf/8.2.0/../../../../sh-none-elf/lib/libc.a(lib_a-localeconv.o)
 .debug_info    0x000000000001446f     0x111c /joengine/Compiler/LINUX/bin/../lib/gcc/sh-none-elf/8.2.0/../../../../sh-none-elf/lib/libc.a(lib_a-locale.o)
 .debug_info    0x000000000001558b      0xf25 /joengine/Compiler/LINUX/bin/../lib/gcc/sh-none-elf/8.2.0/../../../../sh-none-elf/lib/libc.a(lib_a-makebuf.o)
 .debug_info    0x00000000000164b0      0xffe /joengine/Compiler/LINUX/bin/../lib/gcc/sh-none-elf/8.2.0/../../../../sh-none-elf/lib/libc.a(lib_a-mbtowc_r.o)
 .debug_info    0x00000000000174ae      0x98d /joengine/Compiler/LINUX/bin/../lib/gcc/sh-none-elf/8.2.0/../../../../sh-none-elf/lib/libc.a(lib_a-memchr.o)
 .debug_info    0x0000000000017e3b     0x1d03 /joengine/Compiler/LINUX/bin/../lib/gcc/sh-none-elf/8.2.0/../../../../sh-none-elf/lib/libc.a(lib_a-mprec.o)
 .debug_info    0x0000000000019b3e      0xccf /joengine/Compiler/LINUX/bin/../lib/gcc/sh-none-elf/8.2.0/../../../../sh-none-elf/lib/libc.a(lib_a-refill.o)
 .debug_info    0x000000000001a80d      0xe17 /joengine/Compiler/LINUX/bin/../lib/gcc/sh-none-elf/8.2.0/../../../../sh-none-elf/lib/libc.a(lib_a-stdio.o)
 .debug_info    0x000000000001b624     0x188d /joengine/Compiler/LINUX/bin/../lib/gcc/sh-none-elf/8.2.0/../../../../sh-none-elf/lib/libc.a(lib_a-svfiprintf.o)
 .debug_info    0x000000000001ceb1      0xfc9 /joengine/Compiler/LINUX/bin/../lib/gcc/sh-none-elf/8.2.0/../../../../sh-none-elf/lib/libc.a(lib_a-wctomb_r.o)
 .debug_info    0x000000000001de7a      0xa2e /joengine/Compiler/LINUX/bin/../lib/gcc/sh-none-elf/8.2.0/../../../../sh-none-elf/lib/libc.a(lib_a-writer.o)
 .debug_info    0x000000000001e8a8      0x9e1 /joengine/Compiler/LINUX/bin/../lib/gcc/sh-none-elf/8.2.0/../../../../sh-none-elf/lib/libc.a(lib_a-closer.o)
 .debug_info    0x000000000001f289      0xeab /joengine/Compiler/LINUX/bin/../lib/gcc/sh-none-elf/8.2.0/../../../../sh-none-elf/lib/libc.a(lib_a-ctype_.o)
 .debug_info    0x0000000000020134      0xcc7 /joengine/Compiler/LINUX/bin/../lib/gcc/sh-none-elf/8.2.0/../../../../sh-none-elf/lib/libc.a(lib_a-fclose.o)
 .debug_info    0x0000000000020dfb      0xc29 /joengine/Compiler/LINUX/bin/../lib/gcc/sh-none-elf/8.2.0/../../../../sh-none-elf/lib/libc.a(lib_a-fstatr.o)
 .debug_info    0x0000000000021a24      0x9e1 /joengine/Compiler/LINUX/bin/../lib/gcc/sh-none-elf/8.2.0/../../../../sh-none-elf/lib/libc.a(lib_a-isattyr.o)
 .debug_info    0x0000000000022405      0xa0f /joengine/Compiler/LINUX/bin/../lib/gcc/sh-none-elf/8.2.0/../../../../sh-none-elf/lib/libc.a(lib_a-lseekr.o)
 .debug_info    0x0000000000022e14      0xede /joengine/Compiler/LINUX/bin/../lib/gcc/sh-none-elf/8.2.0/../../../../sh-none-elf/lib/libc.a(lib_a-memmove.o)
 .debug_info    0x0000000000023cf2      0xa27 /joengine/Compiler/LINUX/bin/../lib/gcc/sh-none-elf/8.2.0/../../../../sh-none-elf/lib/libc.a(lib_a-readr.o)
 .debug_info    0x0000000000024719      0xaa1 /joengine/Compiler/LINUX/bin/../lib/gcc/sh-none-elf/8.2.0/../../../../sh-none-elf/lib/libc.a(lib_a-reent.o)
 .debug_info    0x00000000000251ba      0x73b /joengine/Compiler/LINUX/bin/../lib/gcc/sh-none-elf/8.2.0/libgcc.a(_udivdi3.o)
 .debug_info    0x00000000000258f5      0x74e /joengine/Compiler/LINUX/bin/../lib/gcc/sh-none-elf/8.2.0/libgcc.a(_umoddi3.o)
 .debug_info    0x0000000000026043      0x740 /joengine/Compiler/LINUX/bin/../lib/gcc/sh-none-elf/8.2.0/libgcc.a(_addsub_df.o)
 .debug_info    0x0000000000026783      0x6e9 /joengine/Compiler/LINUX/bin/../lib/gcc/sh-none-elf/8.2.0/libgcc.a(_mul_df.o)
 .debug_info    0x0000000000026e6c      0x5e6 /joengine/Compiler/LINUX/bin/../lib/gcc/sh-none-elf/8.2.0/libgcc.a(_div_df.o)
 .debug_info    0x0000000000027452      0x4f4 /joengine/Compiler/LINUX/bin/../lib/gcc/sh-none-elf/8.2.0/libgcc.a(_eq_df.o)
 .debug_info    0x0000000000027946      0x4f4 /joengine/Compiler/LINUX/bin/../lib/gcc/sh-none-elf/8.2.0/libgcc.a(_ne_df.o)
 .debug_info    0x0000000000027e3a      0x4f4 /joengine/Compiler/LINUX/bin/../lib/gcc/sh-none-elf/8.2.0/libgcc.a(_gt_df.o)
 .debug_info    0x000000000002832e      0x4f4 /joengine/Compiler/LINUX/bin/../lib/gcc/sh-none-elf/8.2.0/libgcc.a(_ge_df.o)
 .debug_info    0x0000000000028822      0x4f4 /joengine/Compiler/LINUX/bin/../lib/gcc/sh-none-elf/8.2.0/libgcc.a(_lt_df.o)
 .debug_info    0x0000000000028d16      0x4f4 /joengine/Compiler/LINUX/bin/../lib/gcc/sh-none-elf/8.2.0/libgcc.a(_le_df.o)
 .debug_info    0x000000000002920a      0x4cd /joengine/Compiler/LINUX/bin/../lib/gcc/sh-none-elf/8.2.0/libgcc.a(_unord_df.o)
 .debug_info    0x00000000000296d7      0x494 /joengine/Compiler/LINUX/bin/../lib/gcc/sh-none-elf/8.2.0/libgcc.a(_si_to_df.o)
 .debug_info    0x0000000000029b6b      0x4ce /joengine/Compiler/LINUX/bin/../lib/gcc/sh-none-elf/8.2.0/libgcc.a(_df_to_si.o)
 .debug_info    0x000000000002a039      0x391 /joengine/Compiler/LINUX/bin/../lib/gcc/sh-none-elf/8.2.0/libgcc.a(_thenan_df.o)
 .debug_info    0x000000000002a3ca      0x499 /joengine/Compiler/LINUX/bin/../lib/gcc/sh-none-elf/8.2.0/libgcc.a(_usi_to_df.o)
 .debug_info    0x000000000002a863      0x371 /joengine/Compiler/LINUX/bin/../lib/gcc/sh-none-elf/8.2.0/libgcc.a(_clz.o)
 .debug_info    0x000000000002abd4      0x3da /joengine/Compiler/LINUX/bin/../lib/gcc/sh-none-elf/8.2.0/libgcc.a(_clzsi2.o)
 .debug_info    0x000000000002afae      0x4d4 /joengine/Compiler/LINUX/bin/../lib/gcc/sh-none-elf/8.2.0/libgcc.a(_pack_df.o)
 .debug_info    0x000000000002b482      0x45d /joengine/Compiler/LINUX/bin/../lib/gcc/sh-none-elf/8.2.0/libgcc.a(_unpack_df.o)
 .debug_info    0x000000000002b8df      0x425 /joengine/Compiler/LINUX/bin/../lib/gcc/sh-none-elf/8.2.0/libgcc.a(_fpcmp_parts_df.o)

.debug_abbrev   0x0000000000000000     0xa350
 .debug_abbrev  0x0000000000000000      0x233 /joengine/Compiler/LINUX/bin/../lib/gcc/sh-none-elf/8.2.0/libgcc.a(_addsub_sf.o)
 .debug_abbrev  0x0000000000000233      0x275 /joengine/Compiler/LINUX/bin/../lib/gcc/sh-none-elf/8.2.0/libgcc.a(_mul_sf.o)
 .debug_abbrev  0x00000000000004a8      0x25c /joengine/Compiler/LINUX/bin/../lib/gcc/sh-none-elf/8.2.0/libgcc.a(_div_sf.o)
 .debug_abbrev  0x0000000000000704      0x1b7 /joengine/Compiler/LINUX/bin/../lib/gcc/sh-none-elf/8.2.0/libgcc.a(_eq_sf.o)
 .debug_abbrev  0x00000000000008bb      0x1b7 /joengine/Compiler/LINUX/bin/../lib/gcc/sh-none-elf/8.2.0/libgcc.a(_ne_sf.o)
 .debug_abbrev  0x0000000000000a72      0x1b7 /joengine/Compiler/LINUX/bin/../lib/gcc/sh-none-elf/8.2.0/libgcc.a(_gt_sf.o)
 .debug_abbrev  0x0000000000000c29      0x1b7 /joengine/Compiler/LINUX/bin/../lib/gcc/sh-none-elf/8.2.0/libgcc.a(_ge_sf.o)
 .debug_abbrev  0x0000000000000de0      0x1b7 /joengine/Compiler/LINUX/bin/../lib/gcc/sh-none-elf/8.2.0/libgcc.a(_lt_sf.o)
 .debug_abbrev  0x0000000000000f97      0x1b7 /joengine/Compiler/LINUX/bin/../lib/gcc/sh-none-elf/8.2.0/libgcc.a(_le_sf.o)
 .debug_abbrev  0x000000000000114e      0x1fb /joengine/Compiler/LINUX/bin/../lib/gcc/sh-none-elf/8.2.0/libgcc.a(_si_to_sf.o)
 .debug_abbrev  0x0000000000001349      0x1bb /joengine/Compiler/LINUX/bin/../lib/gcc/sh-none-elf/8.2.0/libgcc.a(_sf_to_si.o)
 .debug_abbrev  0x0000000000001504      0x193 /joengine/Compiler/LINUX/bin/../lib/gcc/sh-none-elf/8.2.0/libgcc.a(_sf_to_df.o)
 .debug_abbrev  0x0000000000001697      0x11c /joengine/Compiler/LINUX/bin/../lib/gcc/sh-none-elf/8.2.0/libgcc.a(_thenan_sf.o)
 .debug_abbrev  0x00000000000017b3      0x213 /joengine/Compiler/LINUX/bin/../lib/gcc/sh-none-elf/8.2.0/libgcc.a(_usi_to_sf.o)
 .debug_abbrev  0x00000000000019c6      0x199 /joengine/Compiler/LINUX/bin/../lib/gcc/sh-none-elf/8.2.0/libgcc.a(_make_df.o)
 .debug_abbrev  0x0000000000001b5f      0x1a4 /joengine/Compiler/LINUX/bin/../lib/gcc/sh-none-elf/8.2.0/libgcc.a(_df_to_sf.o)
 .debug_abbrev  0x0000000000001d03      0x1cb /joengine/Compiler/LINUX/bin/../lib/gcc/sh-none-elf/8.2.0/libgcc.a(_pack_sf.o)
 .debug_abbrev  0x0000000000001ece      0x16b /joengine/Compiler/LINUX/bin/../lib/gcc/sh-none-elf/8.2.0/libgcc.a(_unpack_sf.o)
 .debug_abbrev  0x0000000000002039      0x173 /joengine/Compiler/LINUX/bin/../lib/gcc/sh-none-elf/8.2.0/libgcc.a(_fpcmp_parts_sf.o)
 .debug_abbrev  0x00000000000021ac      0x188 /joengine/Compiler/LINUX/bin/../lib/gcc/sh-none-elf/8.2.0/libgcc.a(_make_sf.o)
 .debug_abbrev  0x0000000000002334      0x1b8 /joengine/Compiler/LINUX/bin/../lib/gcc/sh-none-elf/8.2.0/../../../../sh-none-elf/lib/libc.a(lib_a-impure.o)
 .debug_abbrev  0x00000000000024ec      0x1e7 /joengine/Compiler/LINUX/bin/../lib/gcc/sh-none-elf/8.2.0/../../../../sh-none-elf/lib/libc.a(lib_a-memcmp.o)
 .debug_abbrev  0x00000000000026d3      0x20f /joengine/Compiler/LINUX/bin/../lib/gcc/sh-none-elf/8.2.0/../../../../sh-none-elf/lib/libc.a(lib_a-rand.o)
 .debug_abbrev  0x00000000000028e2      0x27e /joengine/Compiler/LINUX/bin/../lib/gcc/sh-none-elf/8.2.0/../../../../sh-none-elf/lib/libc.a(lib_a-rget.o)
 .debug_abbrev  0x0000000000002b60      0x277 /joengine/Compiler/LINUX/bin/../lib/gcc/sh-none-elf/8.2.0/../../../../sh-none-elf/lib/libc.a(lib_a-sprintf.o)
 .debug_abbrev  0x0000000000002dd7      0x1e7 /joengine/Compiler/LINUX/bin/../lib/gcc/sh-none-elf/8.2.0/../../../../sh-none-elf/lib/libc.a(lib_a-strcat.o)
 .debug_abbrev  0x0000000000002fbe      0x1cf /joengine/Compiler/LINUX/bin/../lib/gcc/sh-none-elf/8.2.0/../../../../sh-none-elf/lib/libc.a(lib_a-strncmp.o)
 .debug_abbrev  0x000000000000318d      0x1f8 /joengine/Compiler/LINUX/bin/../lib/gcc/sh-none-elf/8.2.0/../../../../sh-none-elf/lib/libc.a(lib_a-strncpy.o)
 .debug_abbrev  0x0000000000003385      0x1f8 /joengine/Compiler/LINUX/bin/../lib/gcc/sh-none-elf/8.2.0/../../../../sh-none-elf/lib/libc.a(lib_a-strstr.o)
 .debug_abbrev  0x000000000000357d      0x401 /joengine/Compiler/LINUX/bin/../lib/gcc/sh-none-elf/8.2.0/../../../../sh-none-elf/lib/libc.a(lib_a-svfprintf.o)
 .debug_abbrev  0x000000000000397e      0x2af /joengine/Compiler/LINUX/bin/../lib/gcc/sh-none-elf/8.2.0/../../../../sh-none-elf/lib/libc.a(lib_a-wbuf.o)
 .debug_abbrev  0x0000000000003c2d      0x27d /joengine/Compiler/LINUX/bin/../lib/gcc/sh-none-elf/8.2.0/../../../../sh-none-elf/lib/libc.a(lib_a-wsetup.o)
 .debug_abbrev  0x0000000000003eaa      0x32f /joengine/Compiler/LINUX/bin/../lib/gcc/sh-none-elf/8.2.0/../../../../sh-none-elf/lib/libc.a(lib_a-dtoa.o)
 .debug_abbrev  0x00000000000041d9      0x31d /joengine/Compiler/LINUX/bin/../lib/gcc/sh-none-elf/8.2.0/../../../../sh-none-elf/lib/libc.a(lib_a-fflush.o)
 .debug_abbrev  0x00000000000044f6      0x40e /joengine/Compiler/LINUX/bin/../lib/gcc/sh-none-elf/8.2.0/../../../../sh-none-elf/lib/libc.a(lib_a-findfp.o)
 .debug_abbrev  0x0000000000004904      0x256 /joengine/Compiler/LINUX/bin/../lib/gcc/sh-none-elf/8.2.0/../../../../sh-none-elf/lib/libc.a(lib_a-fwalk.o)
 .debug_abbrev  0x0000000000004b5a      0x28f /joengine/Compiler/LINUX/bin/../lib/gcc/sh-none-elf/8.2.0/../../../../sh-none-elf/lib/libc.a(lib_a-localeconv.o)
 .debug_abbrev  0x0000000000004de9      0x2d5 /joengine/Compiler/LINUX/bin/../lib/gcc/sh-none-elf/8.2.0/../../../../sh-none-elf/lib/libc.a(lib_a-locale.o)
 .debug_abbrev  0x00000000000050be      0x321 /joengine/Compiler/LINUX/bin/../lib/gcc/sh-none-elf/8.2.0/../../../../sh-none-elf/lib/libc.a(lib_a-makebuf.o)
 .debug_abbrev  0x00000000000053df      0x27b /joengine/Compiler/LINUX/bin/../lib/gcc/sh-none-elf/8.2.0/../../../../sh-none-elf/lib/libc.a(lib_a-mbtowc_r.o)
 .debug_abbrev  0x000000000000565a      0x209 /joengine/Compiler/LINUX/bin/../lib/gcc/sh-none-elf/8.2.0/../../../../sh-none-elf/lib/libc.a(lib_a-memchr.o)
 .debug_abbrev  0x0000000000005863      0x3ae /joengine/Compiler/LINUX/bin/../lib/gcc/sh-none-elf/8.2.0/../../../../sh-none-elf/lib/libc.a(lib_a-mprec.o)
 .debug_abbrev  0x0000000000005c11      0x2b2 /joengine/Compiler/LINUX/bin/../lib/gcc/sh-none-elf/8.2.0/../../../../sh-none-elf/lib/libc.a(lib_a-refill.o)
 .debug_abbrev  0x0000000000005ec3      0x2a1 /joengine/Compiler/LINUX/bin/../lib/gcc/sh-none-elf/8.2.0/../../../../sh-none-elf/lib/libc.a(lib_a-stdio.o)
 .debug_abbrev  0x0000000000006164      0x31e /joengine/Compiler/LINUX/bin/../lib/gcc/sh-none-elf/8.2.0/../../../../sh-none-elf/lib/libc.a(lib_a-svfiprintf.o)
 .debug_abbrev  0x0000000000006482      0x274 /joengine/Compiler/LINUX/bin/../lib/gcc/sh-none-elf/8.2.0/../../../../sh-none-elf/lib/libc.a(lib_a-wctomb_r.o)
 .debug_abbrev  0x00000000000066f6      0x245 /joengine/Compiler/LINUX/bin/../lib/gcc/sh-none-elf/8.2.0/../../../../sh-none-elf/lib/libc.a(lib_a-writer.o)
 .debug_abbrev  0x000000000000693b      0x240 /joengine/Compiler/LINUX/bin/../lib/gcc/sh-none-elf/8.2.0/../../../../sh-none-elf/lib/libc.a(lib_a-closer.o)
 .debug_abbrev  0x0000000000006b7b      0x1c5 /joengine/Compiler/LINUX/bin/../lib/gcc/sh-none-elf/8.2.0/../../../../sh-none-elf/lib/libc.a(lib_a-ctype_.o)
 .debug_abbrev  0x0000000000006d40      0x319 /joengine/Compiler/LINUX/bin/../lib/gcc/sh-none-elf/8.2.0/../../../../sh-none-elf/lib/libc.a(lib_a-fclose.o)
 .debug_abbrev  0x0000000000007059      0x251 /joengine/Compiler/LINUX/bin/../lib/gcc/sh-none-elf/8.2.0/../../../../sh-none-elf/lib/libc.a(lib_a-fstatr.o)
 .debug_abbrev  0x00000000000072aa      0x240 /joengine/Compiler/LINUX/bin/../lib/gcc/sh-none-elf/8.2.0/../../../../sh-none-elf/lib/libc.a(lib_a-isattyr.o)
 .debug_abbrev  0x00000000000074ea      0x251 /joengine/Compiler/LINUX/bin/../lib/gcc/sh-none-elf/8.2.0/../../../../sh-none-elf/lib/libc.a(lib_a-lseekr.o)
 .debug_abbrev  0x000000000000773b      0x200 /joengine/Compiler/LINUX/bin/../lib/gcc/sh-none-elf/8.2.0/../../../../sh-none-elf/lib/libc.a(lib_a-memmove.o)
 .debug_abbrev  0x000000000000793b      0x240 /joengine/Compiler/LINUX/bin/../lib/gcc/sh-none-elf/8.2.0/../../../../sh-none-elf/lib/libc.a(lib_a-readr.o)
 .debug_abbrev  0x0000000000007b7b      0x2c7 /joengine/Compiler/LINUX/bin/../lib/gcc/sh-none-elf/8.2.0/../../../../sh-none-elf/lib/libc.a(lib_a-reent.o)
 .debug_abbrev  0x0000000000007e42      0x218 /joengine/Compiler/LINUX/bin/../lib/gcc/sh-none-elf/8.2.0/libgcc.a(_udivdi3.o)
 .debug_abbrev  0x000000000000805a      0x22b /joengine/Compiler/LINUX/bin/../lib/gcc/sh-none-elf/8.2.0/libgcc.a(_umoddi3.o)
 .debug_abbrev  0x0000000000008285      0x244 /joengine/Compiler/LINUX/bin/../lib/gcc/sh-none-elf/8.2.0/libgcc.a(_addsub_df.o)
 .debug_abbrev  0x00000000000084c9      0x27c /joengine/Compiler/LINUX/bin/../lib/gcc/sh-none-elf/8.2.0/libgcc.a(_mul_df.o)
 .debug_abbrev  0x0000000000008745      0x25c /joengine/Compiler/LINUX/bin/../lib/gcc/sh-none-elf/8.2.0/libgcc.a(_div_df.o)
 .debug_abbrev  0x00000000000089a1      0x1b7 /joengine/Compiler/LINUX/bin/../lib/gcc/sh-none-elf/8.2.0/libgcc.a(_eq_df.o)
 .debug_abbrev  0x0000000000008b58      0x1b7 /joengine/Compiler/LINUX/bin/../lib/gcc/sh-none-elf/8.2.0/libgcc.a(_ne_df.o)
 .debug_abbrev  0x0000000000008d0f      0x1b7 /joengine/Compiler/LINUX/bin/../lib/gcc/sh-none-elf/8.2.0/libgcc.a(_gt_df.o)
 .debug_abbrev  0x0000000000008ec6      0x1b7 /joengine/Compiler/LINUX/bin/../lib/gcc/sh-none-elf/8.2.0/libgcc.a(_ge_df.o)
 .debug_abbrev  0x000000000000907d      0x1b7 /joengine/Compiler/LINUX/bin/../lib/gcc/sh-none-elf/8.2.0/libgcc.a(_lt_df.o)
 .debug_abbrev  0x0000000000009234      0x1b7 /joengine/Compiler/LINUX/bin/../lib/gcc/sh-none-elf/8.2.0/libgcc.a(_le_df.o)
 .debug_abbrev  0x00000000000093eb      0x1b7 /joengine/Compiler/LINUX/bin/../lib/gcc/sh-none-elf/8.2.0/libgcc.a(_unord_df.o)
 .debug_abbrev  0x00000000000095a2      0x1fb /joengine/Compiler/LINUX/bin/../lib/gcc/sh-none-elf/8.2.0/libgcc.a(_si_to_df.o)
 .debug_abbrev  0x000000000000979d      0x1bb /joengine/Compiler/LINUX/bin/../lib/gcc/sh-none-elf/8.2.0/libgcc.a(_df_to_si.o)
 .debug_abbrev  0x0000000000009958      0x11c /joengine/Compiler/LINUX/bin/../lib/gcc/sh-none-elf/8.2.0/libgcc.a(_thenan_df.o)
 .debug_abbrev  0x0000000000009a74      0x21e /joengine/Compiler/LINUX/bin/../lib/gcc/sh-none-elf/8.2.0/libgcc.a(_usi_to_df.o)
 .debug_abbrev  0x0000000000009c92       0xcf /joengine/Compiler/LINUX/bin/../lib/gcc/sh-none-elf/8.2.0/libgcc.a(_clz.o)
 .debug_abbrev  0x0000000000009d61      0x118 /joengine/Compiler/LINUX/bin/../lib/gcc/sh-none-elf/8.2.0/libgcc.a(_clzsi2.o)
 .debug_abbrev  0x0000000000009e79      0x1cb /joengine/Compiler/LINUX/bin/../lib/gcc/sh-none-elf/8.2.0/libgcc.a(_pack_df.o)
 .debug_abbrev  0x000000000000a044      0x18b /joengine/Compiler/LINUX/bin/../lib/gcc/sh-none-elf/8.2.0/libgcc.a(_unpack_df.o)
 .debug_abbrev  0x000000000000a1cf      0x173 /joengine/Compiler/LINUX/bin/../lib/gcc/sh-none-elf/8.2.0/libgcc.a(_fpcmp_parts_df.o)

.debug_loc      0x0000000000000000     0xad50
 .debug_loc     0x0000000000000000      0x4bd /joengine/Compiler/LINUX/bin/../lib/gcc/sh-none-elf/8.2.0/libgcc.a(_addsub_sf.o)
 .debug_loc     0x00000000000004bd      0x267 /joengine/Compiler/LINUX/bin/../lib/gcc/sh-none-elf/8.2.0/libgcc.a(_mul_sf.o)
 .debug_loc     0x0000000000000724      0x15d /joengine/Compiler/LINUX/bin/../lib/gcc/sh-none-elf/8.2.0/libgcc.a(_div_sf.o)
 .debug_loc     0x0000000000000881       0x5e /joengine/Compiler/LINUX/bin/../lib/gcc/sh-none-elf/8.2.0/libgcc.a(_eq_sf.o)
 .debug_loc     0x00000000000008df       0x5e /joengine/Compiler/LINUX/bin/../lib/gcc/sh-none-elf/8.2.0/libgcc.a(_ne_sf.o)
 .debug_loc     0x000000000000093d       0x5e /joengine/Compiler/LINUX/bin/../lib/gcc/sh-none-elf/8.2.0/libgcc.a(_gt_sf.o)
 .debug_loc     0x000000000000099b       0x5e /joengine/Compiler/LINUX/bin/../lib/gcc/sh-none-elf/8.2.0/libgcc.a(_ge_sf.o)
 .debug_loc     0x00000000000009f9       0x5e /joengine/Compiler/LINUX/bin/../lib/gcc/sh-none-elf/8.2.0/libgcc.a(_lt_sf.o)
 .debug_loc     0x0000000000000a57       0x5e /joengine/Compiler/LINUX/bin/../lib/gcc/sh-none-elf/8.2.0/libgcc.a(_le_sf.o)
 .debug_loc     0x0000000000000ab5       0xeb /joengine/Compiler/LINUX/bin/../lib/gcc/sh-none-elf/8.2.0/libgcc.a(_si_to_sf.o)
 .debug_loc     0x0000000000000ba0       0x42 /joengine/Compiler/LINUX/bin/../lib/gcc/sh-none-elf/8.2.0/libgcc.a(_sf_to_si.o)
 .debug_loc     0x0000000000000be2       0x2f /joengine/Compiler/LINUX/bin/../lib/gcc/sh-none-elf/8.2.0/libgcc.a(_sf_to_df.o)
 .debug_loc     0x0000000000000c11      0x13d /joengine/Compiler/LINUX/bin/../lib/gcc/sh-none-elf/8.2.0/libgcc.a(_usi_to_sf.o)
 .debug_loc     0x0000000000000d4e       0x6f /joengine/Compiler/LINUX/bin/../lib/gcc/sh-none-elf/8.2.0/libgcc.a(_make_df.o)
 .debug_loc     0x0000000000000dbd       0x3b /joengine/Compiler/LINUX/bin/../lib/gcc/sh-none-elf/8.2.0/libgcc.a(_df_to_sf.o)
 .debug_loc     0x0000000000000df8      0x1e3 /joengine/Compiler/LINUX/bin/../lib/gcc/sh-none-elf/8.2.0/libgcc.a(_pack_sf.o)
 .debug_loc     0x0000000000000fdb      0x173 /joengine/Compiler/LINUX/bin/../lib/gcc/sh-none-elf/8.2.0/libgcc.a(_unpack_sf.o)
 .debug_loc     0x000000000000114e       0x90 /joengine/Compiler/LINUX/bin/../lib/gcc/sh-none-elf/8.2.0/libgcc.a(_make_sf.o)
 .debug_loc     0x00000000000011de       0xde /joengine/Compiler/LINUX/bin/../lib/gcc/sh-none-elf/8.2.0/../../../../sh-none-elf/lib/libc.a(lib_a-memcmp.o)
 .debug_loc     0x00000000000012bc       0x32 /joengine/Compiler/LINUX/bin/../lib/gcc/sh-none-elf/8.2.0/../../../../sh-none-elf/lib/libc.a(lib_a-rand.o)
 .debug_loc     0x00000000000012ee       0xb0 /joengine/Compiler/LINUX/bin/../lib/gcc/sh-none-elf/8.2.0/../../../../sh-none-elf/lib/libc.a(lib_a-rget.o)
 .debug_loc     0x000000000000139e       0xca /joengine/Compiler/LINUX/bin/../lib/gcc/sh-none-elf/8.2.0/../../../../sh-none-elf/lib/libc.a(lib_a-sprintf.o)
 .debug_loc     0x0000000000001468       0x47 /joengine/Compiler/LINUX/bin/../lib/gcc/sh-none-elf/8.2.0/../../../../sh-none-elf/lib/libc.a(lib_a-strcat.o)
 .debug_loc     0x00000000000014af       0x7c /joengine/Compiler/LINUX/bin/../lib/gcc/sh-none-elf/8.2.0/../../../../sh-none-elf/lib/libc.a(lib_a-strncmp.o)
 .debug_loc     0x000000000000152b       0xa2 /joengine/Compiler/LINUX/bin/../lib/gcc/sh-none-elf/8.2.0/../../../../sh-none-elf/lib/libc.a(lib_a-strncpy.o)
 .debug_loc     0x00000000000015cd       0x52 /joengine/Compiler/LINUX/bin/../lib/gcc/sh-none-elf/8.2.0/../../../../sh-none-elf/lib/libc.a(lib_a-strstr.o)
 .debug_loc     0x000000000000161f     0x1629 /joengine/Compiler/LINUX/bin/../lib/gcc/sh-none-elf/8.2.0/../../../../sh-none-elf/lib/libc.a(lib_a-svfprintf.o)
 .debug_loc     0x0000000000002c48      0x192 /joengine/Compiler/LINUX/bin/../lib/gcc/sh-none-elf/8.2.0/../../../../sh-none-elf/lib/libc.a(lib_a-wbuf.o)
 .debug_loc     0x0000000000002dda       0x81 /joengine/Compiler/LINUX/bin/../lib/gcc/sh-none-elf/8.2.0/../../../../sh-none-elf/lib/libc.a(lib_a-wsetup.o)
 .debug_loc     0x0000000000002e5b     0x1985 /joengine/Compiler/LINUX/bin/../lib/gcc/sh-none-elf/8.2.0/../../../../sh-none-elf/lib/libc.a(lib_a-dtoa.o)
 .debug_loc     0x00000000000047e0      0x306 /joengine/Compiler/LINUX/bin/../lib/gcc/sh-none-elf/8.2.0/../../../../sh-none-elf/lib/libc.a(lib_a-fflush.o)
 .debug_loc     0x0000000000004ae6      0x227 /joengine/Compiler/LINUX/bin/../lib/gcc/sh-none-elf/8.2.0/../../../../sh-none-elf/lib/libc.a(lib_a-findfp.o)
 .debug_loc     0x0000000000004d0d      0x16c /joengine/Compiler/LINUX/bin/../lib/gcc/sh-none-elf/8.2.0/../../../../sh-none-elf/lib/libc.a(lib_a-fwalk.o)
 .debug_loc     0x0000000000004e79       0x21 /joengine/Compiler/LINUX/bin/../lib/gcc/sh-none-elf/8.2.0/../../../../sh-none-elf/lib/libc.a(lib_a-localeconv.o)
 .debug_loc     0x0000000000004e9a      0x12f /joengine/Compiler/LINUX/bin/../lib/gcc/sh-none-elf/8.2.0/../../../../sh-none-elf/lib/libc.a(lib_a-locale.o)
 .debug_loc     0x0000000000004fc9      0x21a /joengine/Compiler/LINUX/bin/../lib/gcc/sh-none-elf/8.2.0/../../../../sh-none-elf/lib/libc.a(lib_a-makebuf.o)
 .debug_loc     0x00000000000051e3       0xe1 /joengine/Compiler/LINUX/bin/../lib/gcc/sh-none-elf/8.2.0/../../../../sh-none-elf/lib/libc.a(lib_a-mbtowc_r.o)
 .debug_loc     0x00000000000052c4       0xcb /joengine/Compiler/LINUX/bin/../lib/gcc/sh-none-elf/8.2.0/../../../../sh-none-elf/lib/libc.a(lib_a-memchr.o)
 .debug_loc     0x000000000000538f     0x1991 /joengine/Compiler/LINUX/bin/../lib/gcc/sh-none-elf/8.2.0/../../../../sh-none-elf/lib/libc.a(lib_a-mprec.o)
 .debug_loc     0x0000000000006d20       0xf0 /joengine/Compiler/LINUX/bin/../lib/gcc/sh-none-elf/8.2.0/../../../../sh-none-elf/lib/libc.a(lib_a-refill.o)
 .debug_loc     0x0000000000006e10      0x388 /joengine/Compiler/LINUX/bin/../lib/gcc/sh-none-elf/8.2.0/../../../../sh-none-elf/lib/libc.a(lib_a-stdio.o)
 .debug_loc     0x0000000000007198      0xe91 /joengine/Compiler/LINUX/bin/../lib/gcc/sh-none-elf/8.2.0/../../../../sh-none-elf/lib/libc.a(lib_a-svfiprintf.o)
 .debug_loc     0x0000000000008029       0x84 /joengine/Compiler/LINUX/bin/../lib/gcc/sh-none-elf/8.2.0/../../../../sh-none-elf/lib/libc.a(lib_a-wctomb_r.o)
 .debug_loc     0x00000000000080ad       0xa5 /joengine/Compiler/LINUX/bin/../lib/gcc/sh-none-elf/8.2.0/../../../../sh-none-elf/lib/libc.a(lib_a-writer.o)
 .debug_loc     0x0000000000008152       0x4d /joengine/Compiler/LINUX/bin/../lib/gcc/sh-none-elf/8.2.0/../../../../sh-none-elf/lib/libc.a(lib_a-closer.o)
 .debug_loc     0x000000000000819f      0x112 /joengine/Compiler/LINUX/bin/../lib/gcc/sh-none-elf/8.2.0/../../../../sh-none-elf/lib/libc.a(lib_a-fclose.o)
 .debug_loc     0x00000000000082b1       0x79 /joengine/Compiler/LINUX/bin/../lib/gcc/sh-none-elf/8.2.0/../../../../sh-none-elf/lib/libc.a(lib_a-fstatr.o)
 .debug_loc     0x000000000000832a       0x4d /joengine/Compiler/LINUX/bin/../lib/gcc/sh-none-elf/8.2.0/../../../../sh-none-elf/lib/libc.a(lib_a-isattyr.o)
 .debug_loc     0x0000000000008377       0xa5 /joengine/Compiler/LINUX/bin/../lib/gcc/sh-none-elf/8.2.0/../../../../sh-none-elf/lib/libc.a(lib_a-lseekr.o)
 .debug_loc     0x000000000000841c      0x137 /joengine/Compiler/LINUX/bin/../lib/gcc/sh-none-elf/8.2.0/../../../../sh-none-elf/lib/libc.a(lib_a-memmove.o)
 .debug_loc     0x0000000000008553       0xa5 /joengine/Compiler/LINUX/bin/../lib/gcc/sh-none-elf/8.2.0/../../../../sh-none-elf/lib/libc.a(lib_a-readr.o)
 .debug_loc     0x00000000000085f8      0x12b /joengine/Compiler/LINUX/bin/../lib/gcc/sh-none-elf/8.2.0/../../../../sh-none-elf/lib/libc.a(lib_a-reent.o)
 .debug_loc     0x0000000000008723      0x824 /joengine/Compiler/LINUX/bin/../lib/gcc/sh-none-elf/8.2.0/libgcc.a(_udivdi3.o)
 .debug_loc     0x0000000000008f47      0x795 /joengine/Compiler/LINUX/bin/../lib/gcc/sh-none-elf/8.2.0/libgcc.a(_umoddi3.o)
 .debug_loc     0x00000000000096dc      0x778 /joengine/Compiler/LINUX/bin/../lib/gcc/sh-none-elf/8.2.0/libgcc.a(_addsub_df.o)
 .debug_loc     0x0000000000009e54      0x4d5 /joengine/Compiler/LINUX/bin/../lib/gcc/sh-none-elf/8.2.0/libgcc.a(_mul_df.o)
 .debug_loc     0x000000000000a329      0x1c0 /joengine/Compiler/LINUX/bin/../lib/gcc/sh-none-elf/8.2.0/libgcc.a(_div_df.o)
 .debug_loc     0x000000000000a4e9       0x50 /joengine/Compiler/LINUX/bin/../lib/gcc/sh-none-elf/8.2.0/libgcc.a(_eq_df.o)
 .debug_loc     0x000000000000a539       0x50 /joengine/Compiler/LINUX/bin/../lib/gcc/sh-none-elf/8.2.0/libgcc.a(_ne_df.o)
 .debug_loc     0x000000000000a589       0x50 /joengine/Compiler/LINUX/bin/../lib/gcc/sh-none-elf/8.2.0/libgcc.a(_gt_df.o)
 .debug_loc     0x000000000000a5d9       0x50 /joengine/Compiler/LINUX/bin/../lib/gcc/sh-none-elf/8.2.0/libgcc.a(_ge_df.o)
 .debug_loc     0x000000000000a629       0x50 /joengine/Compiler/LINUX/bin/../lib/gcc/sh-none-elf/8.2.0/libgcc.a(_lt_df.o)
 .debug_loc     0x000000000000a679       0x50 /joengine/Compiler/LINUX/bin/../lib/gcc/sh-none-elf/8.2.0/libgcc.a(_le_df.o)
 .debug_loc     0x000000000000a6c9       0x50 /joengine/Compiler/LINUX/bin/../lib/gcc/sh-none-elf/8.2.0/libgcc.a(_unord_df.o)
 .debug_loc     0x000000000000a719       0xd1 /joengine/Compiler/LINUX/bin/../lib/gcc/sh-none-elf/8.2.0/libgcc.a(_si_to_df.o)
 .debug_loc     0x000000000000a7ea       0x3b /joengine/Compiler/LINUX/bin/../lib/gcc/sh-none-elf/8.2.0/libgcc.a(_df_to_si.o)
 .debug_loc     0x000000000000a825       0x97 /joengine/Compiler/LINUX/bin/../lib/gcc/sh-none-elf/8.2.0/libgcc.a(_usi_to_df.o)
 .debug_loc     0x000000000000a8bc       0xa6 /joengine/Compiler/LINUX/bin/../lib/gcc/sh-none-elf/8.2.0/libgcc.a(_clzsi2.o)
 .debug_loc     0x000000000000a962      0x332 /joengine/Compiler/LINUX/bin/../lib/gcc/sh-none-elf/8.2.0/libgcc.a(_pack_df.o)
 .debug_loc     0x000000000000ac94       0xb5 /joengine/Compiler/LINUX/bin/../lib/gcc/sh-none-elf/8.2.0/libgcc.a(_unpack_df.o)

.debug_aranges  0x0000000000000000      0x980
 .debug_aranges
                0x0000000000000000       0x20 /joengine/Compiler/LINUX/bin/../lib/gcc/sh-none-elf/8.2.0/libgcc.a(_addsub_sf.o)
 .debug_aranges
                0x0000000000000020       0x20 /joengine/Compiler/LINUX/bin/../lib/gcc/sh-none-elf/8.2.0/libgcc.a(_mul_sf.o)
 .debug_aranges
                0x0000000000000040       0x20 /joengine/Compiler/LINUX/bin/../lib/gcc/sh-none-elf/8.2.0/libgcc.a(_div_sf.o)
 .debug_aranges
                0x0000000000000060       0x20 /joengine/Compiler/LINUX/bin/../lib/gcc/sh-none-elf/8.2.0/libgcc.a(_eq_sf.o)
 .debug_aranges
                0x0000000000000080       0x20 /joengine/Compiler/LINUX/bin/../lib/gcc/sh-none-elf/8.2.0/libgcc.a(_ne_sf.o)
 .debug_aranges
                0x00000000000000a0       0x20 /joengine/Compiler/LINUX/bin/../lib/gcc/sh-none-elf/8.2.0/libgcc.a(_gt_sf.o)
 .debug_aranges
                0x00000000000000c0       0x20 /joengine/Compiler/LINUX/bin/../lib/gcc/sh-none-elf/8.2.0/libgcc.a(_ge_sf.o)
 .debug_aranges
                0x00000000000000e0       0x20 /joengine/Compiler/LINUX/bin/../lib/gcc/sh-none-elf/8.2.0/libgcc.a(_lt_sf.o)
 .debug_aranges
                0x0000000000000100       0x20 /joengine/Compiler/LINUX/bin/../lib/gcc/sh-none-elf/8.2.0/libgcc.a(_le_sf.o)
 .debug_aranges
                0x0000000000000120       0x20 /joengine/Compiler/LINUX/bin/../lib/gcc/sh-none-elf/8.2.0/libgcc.a(_si_to_sf.o)
 .debug_aranges
                0x0000000000000140       0x20 /joengine/Compiler/LINUX/bin/../lib/gcc/sh-none-elf/8.2.0/libgcc.a(_sf_to_si.o)
 .debug_aranges
                0x0000000000000160       0x20 /joengine/Compiler/LINUX/bin/../lib/gcc/sh-none-elf/8.2.0/libgcc.a(_sf_to_df.o)
 .debug_aranges
                0x0000000000000180       0x18 /joengine/Compiler/LINUX/bin/../lib/gcc/sh-none-elf/8.2.0/libgcc.a(_thenan_sf.o)
 .debug_aranges
                0x0000000000000198       0x20 /joengine/Compiler/LINUX/bin/../lib/gcc/sh-none-elf/8.2.0/libgcc.a(_usi_to_sf.o)
 .debug_aranges
                0x00000000000001b8       0x20 /joengine/Compiler/LINUX/bin/../lib/gcc/sh-none-elf/8.2.0/libgcc.a(_make_df.o)
 .debug_aranges
                0x00000000000001d8       0x20 /joengine/Compiler/LINUX/bin/../lib/gcc/sh-none-elf/8.2.0/libgcc.a(_df_to_sf.o)
 .debug_aranges
                0x00000000000001f8       0x20 /joengine/Compiler/LINUX/bin/../lib/gcc/sh-none-elf/8.2.0/libgcc.a(_pack_sf.o)
 .debug_aranges
                0x0000000000000218       0x20 /joengine/Compiler/LINUX/bin/../lib/gcc/sh-none-elf/8.2.0/libgcc.a(_unpack_sf.o)
 .debug_aranges
                0x0000000000000238       0x20 /joengine/Compiler/LINUX/bin/../lib/gcc/sh-none-elf/8.2.0/libgcc.a(_fpcmp_parts_sf.o)
 .debug_aranges
                0x0000000000000258       0x20 /joengine/Compiler/LINUX/bin/../lib/gcc/sh-none-elf/8.2.0/libgcc.a(_make_sf.o)
 .debug_aranges
                0x0000000000000278       0x18 /joengine/Compiler/LINUX/bin/../lib/gcc/sh-none-elf/8.2.0/../../../../sh-none-elf/lib/libc.a(lib_a-impure.o)
 .debug_aranges
                0x0000000000000290       0x20 /joengine/Compiler/LINUX/bin/../lib/gcc/sh-none-elf/8.2.0/../../../../sh-none-elf/lib/libc.a(lib_a-memcmp.o)
 .debug_aranges
                0x00000000000002b0       0x20 /joengine/Compiler/LINUX/bin/../lib/gcc/sh-none-elf/8.2.0/../../../../sh-none-elf/lib/libc.a(lib_a-rand.o)
 .debug_aranges
                0x00000000000002d0       0x20 /joengine/Compiler/LINUX/bin/../lib/gcc/sh-none-elf/8.2.0/../../../../sh-none-elf/lib/libc.a(lib_a-rget.o)
 .debug_aranges
                0x00000000000002f0       0x20 /joengine/Compiler/LINUX/bin/../lib/gcc/sh-none-elf/8.2.0/../../../../sh-none-elf/lib/libc.a(lib_a-sprintf.o)
 .debug_aranges
                0x0000000000000310       0x20 /joengine/Compiler/LINUX/bin/../lib/gcc/sh-none-elf/8.2.0/../../../../sh-none-elf/lib/libc.a(lib_a-strcat.o)
 .debug_aranges
                0x0000000000000330       0x20 /joengine/Compiler/LINUX/bin/../lib/gcc/sh-none-elf/8.2.0/../../../../sh-none-elf/lib/libc.a(lib_a-strncmp.o)
 .debug_aranges
                0x0000000000000350       0x20 /joengine/Compiler/LINUX/bin/../lib/gcc/sh-none-elf/8.2.0/../../../../sh-none-elf/lib/libc.a(lib_a-strncpy.o)
 .debug_aranges
                0x0000000000000370       0x20 /joengine/Compiler/LINUX/bin/../lib/gcc/sh-none-elf/8.2.0/../../../../sh-none-elf/lib/libc.a(lib_a-strstr.o)
 .debug_aranges
                0x0000000000000390       0x20 /joengine/Compiler/LINUX/bin/../lib/gcc/sh-none-elf/8.2.0/../../../../sh-none-elf/lib/libc.a(lib_a-svfprintf.o)
 .debug_aranges
                0x00000000000003b0       0x20 /joengine/Compiler/LINUX/bin/../lib/gcc/sh-none-elf/8.2.0/../../../../sh-none-elf/lib/libc.a(lib_a-wbuf.o)
 .debug_aranges
                0x00000000000003d0       0x20 /joengine/Compiler/LINUX/bin/../lib/gcc/sh-none-elf/8.2.0/../../../../sh-none-elf/lib/libc.a(lib_a-wsetup.o)
 .debug_aranges
                0x00000000000003f0       0x20 /joengine/Compiler/LINUX/bin/../lib/gcc/sh-none-elf/8.2.0/../../../../sh-none-elf/lib/libc.a(lib_a-dtoa.o)
 .debug_aranges
                0x0000000000000410       0x20 /joengine/Compiler/LINUX/bin/../lib/gcc/sh-none-elf/8.2.0/../../../../sh-none-elf/lib/libc.a(lib_a-fflush.o)
 .debug_aranges
                0x0000000000000430       0x20 /joengine/Compiler/LINUX/bin/../lib/gcc/sh-none-elf/8.2.0/../../../../sh-none-elf/lib/libc.a(lib_a-findfp.o)
 .debug_aranges
                0x0000000000000450       0x20 /joengine/Compiler/LINUX/bin/../lib/gcc/sh-none-elf/8.2.0/../../../../sh-none-elf/lib/libc.a(lib_a-fwalk.o)
 .debug_aranges
                0x0000000000000470       0x20 /joengine/Compiler/LINUX/bin/../lib/gcc/sh-none-elf/8.2.0/../../../../sh-none-elf/lib/libc.a(lib_a-localeconv.o)
 .debug_aranges
                0x0000000000000490       0x20 /joengine/Compiler/LINUX/bin/../lib/gcc/sh-none-elf/8.2.0/../../../../sh-none-elf/lib/libc.a(lib_a-locale.o)
 .debug_aranges
                0x00000000000004b0       0x20 /joengine/Compiler/LINUX/bin/../lib/gcc/sh-none-elf/8.2.0/../../../../sh-none-elf/lib/libc.a(lib_a-makebuf.o)
 .debug_aranges
                0x00000000000004d0       0x20 /joengine/Compiler/LINUX/bin/../lib/gcc/sh-none-elf/8.2.0/../../../../sh-none-elf/lib/libc.a(lib_a-mbtowc_r.o)
 .debug_aranges
                0x00000000000004f0       0x20 /joengine/Compiler/LINUX/bin/../lib/gcc/sh-none-elf/8.2.0/../../../../sh-none-elf/lib/libc.a(lib_a-memchr.o)
 .debug_aranges
                0x0000000000000510       0x20 /joengine/Compiler/LINUX/bin/../lib/gcc/sh-none-elf/8.2.0/../../../../sh-none-elf/lib/libc.a(lib_a-mprec.o)
 .debug_aranges
                0x0000000000000530       0x20 /joengine/Compiler/LINUX/bin/../lib/gcc/sh-none-elf/8.2.0/../../../../sh-none-elf/lib/libc.a(lib_a-refill.o)
 .debug_aranges
                0x0000000000000550       0x20 /joengine/Compiler/LINUX/bin/../lib/gcc/sh-none-elf/8.2.0/../../../../sh-none-elf/lib/libc.a(lib_a-stdio.o)
 .debug_aranges
                0x0000000000000570       0x20 /joengine/Compiler/LINUX/bin/../lib/gcc/sh-none-elf/8.2.0/../../../../sh-none-elf/lib/libc.a(lib_a-svfiprintf.o)
 .debug_aranges
                0x0000000000000590       0x20 /joengine/Compiler/LINUX/bin/../lib/gcc/sh-none-elf/8.2.0/../../../../sh-none-elf/lib/libc.a(lib_a-wctomb_r.o)
 .debug_aranges
                0x00000000000005b0       0x20 /joengine/Compiler/LINUX/bin/../lib/gcc/sh-none-elf/8.2.0/../../../../sh-none-elf/lib/libc.a(lib_a-writer.o)
 .debug_aranges
                0x00000000000005d0       0x20 /joengine/Compiler/LINUX/bin/../lib/gcc/sh-none-elf/8.2.0/../../../../sh-none-elf/lib/libc.a(lib_a-closer.o)
 .debug_aranges
                0x00000000000005f0       0x18 /joengine/Compiler/LINUX/bin/../lib/gcc/sh-none-elf/8.2.0/../../../../sh-none-elf/lib/libc.a(lib_a-ctype_.o)
 .debug_aranges
                0x0000000000000608       0x20 /joengine/Compiler/LINUX/bin/../lib/gcc/sh-none-elf/8.2.0/../../../../sh-none-elf/lib/libc.a(lib_a-fclose.o)
 .debug_aranges
                0x0000000000000628       0x20 /joengine/Compiler/LINUX/bin/../lib/gcc/sh-none-elf/8.2.0/../../../../sh-none-elf/lib/libc.a(lib_a-fstatr.o)
 .debug_aranges
                0x0000000000000648       0x20 /joengine/Compiler/LINUX/bin/../lib/gcc/sh-none-elf/8.2.0/../../../../sh-none-elf/lib/libc.a(lib_a-isattyr.o)
 .debug_aranges
                0x0000000000000668       0x20 /joengine/Compiler/LINUX/bin/../lib/gcc/sh-none-elf/8.2.0/../../../../sh-none-elf/lib/libc.a(lib_a-lseekr.o)
 .debug_aranges
                0x0000000000000688       0x20 /joengine/Compiler/LINUX/bin/../lib/gcc/sh-none-elf/8.2.0/../../../../sh-none-elf/lib/libc.a(lib_a-memmove.o)
 .debug_aranges
                0x00000000000006a8       0x20 /joengine/Compiler/LINUX/bin/../lib/gcc/sh-none-elf/8.2.0/../../../../sh-none-elf/lib/libc.a(lib_a-readr.o)
 .debug_aranges
                0x00000000000006c8       0x20 /joengine/Compiler/LINUX/bin/../lib/gcc/sh-none-elf/8.2.0/../../../../sh-none-elf/lib/libc.a(lib_a-reent.o)
 .debug_aranges
                0x00000000000006e8       0x20 /joengine/Compiler/LINUX/bin/../lib/gcc/sh-none-elf/8.2.0/libgcc.a(_udivdi3.o)
 .debug_aranges
                0x0000000000000708       0x20 /joengine/Compiler/LINUX/bin/../lib/gcc/sh-none-elf/8.2.0/libgcc.a(_umoddi3.o)
 .debug_aranges
                0x0000000000000728       0x20 /joengine/Compiler/LINUX/bin/../lib/gcc/sh-none-elf/8.2.0/libgcc.a(_addsub_df.o)
 .debug_aranges
                0x0000000000000748       0x20 /joengine/Compiler/LINUX/bin/../lib/gcc/sh-none-elf/8.2.0/libgcc.a(_mul_df.o)
 .debug_aranges
                0x0000000000000768       0x20 /joengine/Compiler/LINUX/bin/../lib/gcc/sh-none-elf/8.2.0/libgcc.a(_div_df.o)
 .debug_aranges
                0x0000000000000788       0x20 /joengine/Compiler/LINUX/bin/../lib/gcc/sh-none-elf/8.2.0/libgcc.a(_eq_df.o)
 .debug_aranges
                0x00000000000007a8       0x20 /joengine/Compiler/LINUX/bin/../lib/gcc/sh-none-elf/8.2.0/libgcc.a(_ne_df.o)
 .debug_aranges
                0x00000000000007c8       0x20 /joengine/Compiler/LINUX/bin/../lib/gcc/sh-none-elf/8.2.0/libgcc.a(_gt_df.o)
 .debug_aranges
                0x00000000000007e8       0x20 /joengine/Compiler/LINUX/bin/../lib/gcc/sh-none-elf/8.2.0/libgcc.a(_ge_df.o)
 .debug_aranges
                0x0000000000000808       0x20 /joengine/Compiler/LINUX/bin/../lib/gcc/sh-none-elf/8.2.0/libgcc.a(_lt_df.o)
 .debug_aranges
                0x0000000000000828       0x20 /joengine/Compiler/LINUX/bin/../lib/gcc/sh-none-elf/8.2.0/libgcc.a(_le_df.o)
 .debug_aranges
                0x0000000000000848       0x20 /joengine/Compiler/LINUX/bin/../lib/gcc/sh-none-elf/8.2.0/libgcc.a(_unord_df.o)
 .debug_aranges
                0x0000000000000868       0x20 /joengine/Compiler/LINUX/bin/../lib/gcc/sh-none-elf/8.2.0/libgcc.a(_si_to_df.o)
 .debug_aranges
                0x0000000000000888       0x20 /joengine/Compiler/LINUX/bin/../lib/gcc/sh-none-elf/8.2.0/libgcc.a(_df_to_si.o)
 .debug_aranges
                0x00000000000008a8       0x18 /joengine/Compiler/LINUX/bin/../lib/gcc/sh-none-elf/8.2.0/libgcc.a(_thenan_df.o)
 .debug_aranges
                0x00000000000008c0       0x20 /joengine/Compiler/LINUX/bin/../lib/gcc/sh-none-elf/8.2.0/libgcc.a(_usi_to_df.o)
 .debug_aranges
                0x00000000000008e0       0x18 /joengine/Compiler/LINUX/bin/../lib/gcc/sh-none-elf/8.2.0/libgcc.a(_clz.o)
 .debug_aranges
                0x00000000000008f8       0x20 /joengine/Compiler/LINUX/bin/../lib/gcc/sh-none-elf/8.2.0/libgcc.a(_clzsi2.o)
 .debug_aranges
                0x0000000000000918       0x20 /joengine/Compiler/LINUX/bin/../lib/gcc/sh-none-elf/8.2.0/libgcc.a(_pack_df.o)
 .debug_aranges
                0x0000000000000938       0x20 /joengine/Compiler/LINUX/bin/../lib/gcc/sh-none-elf/8.2.0/libgcc.a(_unpack_df.o)
 .debug_aranges
                0x0000000000000958       0x20 /joengine/Compiler/LINUX/bin/../lib/gcc/sh-none-elf/8.2.0/libgcc.a(_fpcmp_parts_df.o)

.debug_ranges   0x0000000000000000      0x910
 .debug_ranges  0x0000000000000000       0x30 /joengine/Compiler/LINUX/bin/../lib/gcc/sh-none-elf/8.2.0/libgcc.a(_addsub_sf.o)
 .debug_ranges  0x0000000000000030       0xa8 /joengine/Compiler/LINUX/bin/../lib/gcc/sh-none-elf/8.2.0/libgcc.a(_mul_sf.o)
 .debug_ranges  0x00000000000000d8       0x58 /joengine/Compiler/LINUX/bin/../lib/gcc/sh-none-elf/8.2.0/libgcc.a(_div_sf.o)
 .debug_ranges  0x0000000000000130       0x48 /joengine/Compiler/LINUX/bin/../lib/gcc/sh-none-elf/8.2.0/libgcc.a(_si_to_sf.o)
 .debug_ranges  0x0000000000000178       0x30 /joengine/Compiler/LINUX/bin/../lib/gcc/sh-none-elf/8.2.0/libgcc.a(_usi_to_sf.o)
 .debug_ranges  0x00000000000001a8       0x38 /joengine/Compiler/LINUX/bin/../lib/gcc/sh-none-elf/8.2.0/libgcc.a(_pack_sf.o)
 .debug_ranges  0x00000000000001e0       0x20 /joengine/Compiler/LINUX/bin/../lib/gcc/sh-none-elf/8.2.0/../../../../sh-none-elf/lib/libc.a(lib_a-rget.o)
 .debug_ranges  0x0000000000000200       0x20 /joengine/Compiler/LINUX/bin/../lib/gcc/sh-none-elf/8.2.0/../../../../sh-none-elf/lib/libc.a(lib_a-strstr.o)
 .debug_ranges  0x0000000000000220       0xd0 /joengine/Compiler/LINUX/bin/../lib/gcc/sh-none-elf/8.2.0/../../../../sh-none-elf/lib/libc.a(lib_a-svfprintf.o)
 .debug_ranges  0x00000000000002f0       0x20 /joengine/Compiler/LINUX/bin/../lib/gcc/sh-none-elf/8.2.0/../../../../sh-none-elf/lib/libc.a(lib_a-wbuf.o)
 .debug_ranges  0x0000000000000310       0x20 /joengine/Compiler/LINUX/bin/../lib/gcc/sh-none-elf/8.2.0/../../../../sh-none-elf/lib/libc.a(lib_a-wsetup.o)
 .debug_ranges  0x0000000000000330       0x38 /joengine/Compiler/LINUX/bin/../lib/gcc/sh-none-elf/8.2.0/../../../../sh-none-elf/lib/libc.a(lib_a-fflush.o)
 .debug_ranges  0x0000000000000368       0x18 /joengine/Compiler/LINUX/bin/../lib/gcc/sh-none-elf/8.2.0/../../../../sh-none-elf/lib/libc.a(lib_a-findfp.o)
 .debug_ranges  0x0000000000000380       0x30 /joengine/Compiler/LINUX/bin/../lib/gcc/sh-none-elf/8.2.0/../../../../sh-none-elf/lib/libc.a(lib_a-localeconv.o)
 .debug_ranges  0x00000000000003b0       0x20 /joengine/Compiler/LINUX/bin/../lib/gcc/sh-none-elf/8.2.0/../../../../sh-none-elf/lib/libc.a(lib_a-refill.o)
 .debug_ranges  0x00000000000003d0       0x40 /joengine/Compiler/LINUX/bin/../lib/gcc/sh-none-elf/8.2.0/../../../../sh-none-elf/lib/libc.a(lib_a-svfiprintf.o)
 .debug_ranges  0x0000000000000410       0x18 /joengine/Compiler/LINUX/bin/../lib/gcc/sh-none-elf/8.2.0/../../../../sh-none-elf/lib/libc.a(lib_a-writer.o)
 .debug_ranges  0x0000000000000428       0x20 /joengine/Compiler/LINUX/bin/../lib/gcc/sh-none-elf/8.2.0/../../../../sh-none-elf/lib/libc.a(lib_a-closer.o)
 .debug_ranges  0x0000000000000448       0x18 /joengine/Compiler/LINUX/bin/../lib/gcc/sh-none-elf/8.2.0/../../../../sh-none-elf/lib/libc.a(lib_a-fstatr.o)
 .debug_ranges  0x0000000000000460       0x20 /joengine/Compiler/LINUX/bin/../lib/gcc/sh-none-elf/8.2.0/../../../../sh-none-elf/lib/libc.a(lib_a-isattyr.o)
 .debug_ranges  0x0000000000000480       0x18 /joengine/Compiler/LINUX/bin/../lib/gcc/sh-none-elf/8.2.0/../../../../sh-none-elf/lib/libc.a(lib_a-lseekr.o)
 .debug_ranges  0x0000000000000498       0x18 /joengine/Compiler/LINUX/bin/../lib/gcc/sh-none-elf/8.2.0/../../../../sh-none-elf/lib/libc.a(lib_a-readr.o)
 .debug_ranges  0x00000000000004b0       0x40 /joengine/Compiler/LINUX/bin/../lib/gcc/sh-none-elf/8.2.0/../../../../sh-none-elf/lib/libc.a(lib_a-reent.o)
 .debug_ranges  0x00000000000004f0       0xb8 /joengine/Compiler/LINUX/bin/../lib/gcc/sh-none-elf/8.2.0/libgcc.a(_udivdi3.o)
 .debug_ranges  0x00000000000005a8       0xc0 /joengine/Compiler/LINUX/bin/../lib/gcc/sh-none-elf/8.2.0/libgcc.a(_umoddi3.o)
 .debug_ranges  0x0000000000000668       0x48 /joengine/Compiler/LINUX/bin/../lib/gcc/sh-none-elf/8.2.0/libgcc.a(_addsub_df.o)
 .debug_ranges  0x00000000000006b0       0xc0 /joengine/Compiler/LINUX/bin/../lib/gcc/sh-none-elf/8.2.0/libgcc.a(_mul_df.o)
 .debug_ranges  0x0000000000000770       0x60 /joengine/Compiler/LINUX/bin/../lib/gcc/sh-none-elf/8.2.0/libgcc.a(_div_df.o)
 .debug_ranges  0x00000000000007d0       0x48 /joengine/Compiler/LINUX/bin/../lib/gcc/sh-none-elf/8.2.0/libgcc.a(_si_to_df.o)
 .debug_ranges  0x0000000000000818       0x30 /joengine/Compiler/LINUX/bin/../lib/gcc/sh-none-elf/8.2.0/libgcc.a(_usi_to_df.o)
 .debug_ranges  0x0000000000000848       0x38 /joengine/Compiler/LINUX/bin/../lib/gcc/sh-none-elf/8.2.0/libgcc.a(_clzsi2.o)
 .debug_ranges  0x0000000000000880       0x90 /joengine/Compiler/LINUX/bin/../lib/gcc/sh-none-elf/8.2.0/libgcc.a(_pack_df.o)

.debug_line     0x0000000000000000     0xcc90
 .debug_line    0x0000000000000000      0x382 /joengine/Compiler/LINUX/bin/../lib/gcc/sh-none-elf/8.2.0/libgcc.a(_addsub_sf.o)
 .debug_line    0x0000000000000382      0x2db /joengine/Compiler/LINUX/bin/../lib/gcc/sh-none-elf/8.2.0/libgcc.a(_mul_sf.o)
 .debug_line    0x000000000000065d      0x24c /joengine/Compiler/LINUX/bin/../lib/gcc/sh-none-elf/8.2.0/libgcc.a(_div_sf.o)
 .debug_line    0x00000000000008a9      0x11c /joengine/Compiler/LINUX/bin/../lib/gcc/sh-none-elf/8.2.0/libgcc.a(_eq_sf.o)
 .debug_line    0x00000000000009c5      0x11c /joengine/Compiler/LINUX/bin/../lib/gcc/sh-none-elf/8.2.0/libgcc.a(_ne_sf.o)
 .debug_line    0x0000000000000ae1      0x119 /joengine/Compiler/LINUX/bin/../lib/gcc/sh-none-elf/8.2.0/libgcc.a(_gt_sf.o)
 .debug_line    0x0000000000000bfa      0x119 /joengine/Compiler/LINUX/bin/../lib/gcc/sh-none-elf/8.2.0/libgcc.a(_ge_sf.o)
 .debug_line    0x0000000000000d13      0x11c /joengine/Compiler/LINUX/bin/../lib/gcc/sh-none-elf/8.2.0/libgcc.a(_lt_sf.o)
 .debug_line    0x0000000000000e2f      0x11c /joengine/Compiler/LINUX/bin/../lib/gcc/sh-none-elf/8.2.0/libgcc.a(_le_sf.o)
 .debug_line    0x0000000000000f4b      0x18c /joengine/Compiler/LINUX/bin/../lib/gcc/sh-none-elf/8.2.0/libgcc.a(_si_to_sf.o)
 .debug_line    0x00000000000010d7      0x15a /joengine/Compiler/LINUX/bin/../lib/gcc/sh-none-elf/8.2.0/libgcc.a(_sf_to_si.o)
 .debug_line    0x0000000000001231       0xe9 /joengine/Compiler/LINUX/bin/../lib/gcc/sh-none-elf/8.2.0/libgcc.a(_sf_to_df.o)
 .debug_line    0x000000000000131a       0xb6 /joengine/Compiler/LINUX/bin/../lib/gcc/sh-none-elf/8.2.0/libgcc.a(_thenan_sf.o)
 .debug_line    0x00000000000013d0      0x199 /joengine/Compiler/LINUX/bin/../lib/gcc/sh-none-elf/8.2.0/libgcc.a(_usi_to_sf.o)
 .debug_line    0x0000000000001569      0x100 /joengine/Compiler/LINUX/bin/../lib/gcc/sh-none-elf/8.2.0/libgcc.a(_make_df.o)
 .debug_line    0x0000000000001669      0x115 /joengine/Compiler/LINUX/bin/../lib/gcc/sh-none-elf/8.2.0/libgcc.a(_df_to_sf.o)
 .debug_line    0x000000000000177e      0x262 /joengine/Compiler/LINUX/bin/../lib/gcc/sh-none-elf/8.2.0/libgcc.a(_pack_sf.o)
 .debug_line    0x00000000000019e0      0x1a1 /joengine/Compiler/LINUX/bin/../lib/gcc/sh-none-elf/8.2.0/libgcc.a(_unpack_sf.o)
 .debug_line    0x0000000000001b81      0x1f3 /joengine/Compiler/LINUX/bin/../lib/gcc/sh-none-elf/8.2.0/libgcc.a(_fpcmp_parts_sf.o)
 .debug_line    0x0000000000001d74       0xfa /joengine/Compiler/LINUX/bin/../lib/gcc/sh-none-elf/8.2.0/libgcc.a(_make_sf.o)
 .debug_line    0x0000000000001e6e      0x101 /joengine/Compiler/LINUX/bin/../lib/gcc/sh-none-elf/8.2.0/../../../../sh-none-elf/lib/libc.a(lib_a-impure.o)
 .debug_line    0x0000000000001f6f      0x182 /joengine/Compiler/LINUX/bin/../lib/gcc/sh-none-elf/8.2.0/../../../../sh-none-elf/lib/libc.a(lib_a-memcmp.o)
 .debug_line    0x00000000000020f1      0x1a0 /joengine/Compiler/LINUX/bin/../lib/gcc/sh-none-elf/8.2.0/../../../../sh-none-elf/lib/libc.a(lib_a-rand.o)
 .debug_line    0x0000000000002291      0x1c7 /joengine/Compiler/LINUX/bin/../lib/gcc/sh-none-elf/8.2.0/../../../../sh-none-elf/lib/libc.a(lib_a-rget.o)
 .debug_line    0x0000000000002458      0x23e /joengine/Compiler/LINUX/bin/../lib/gcc/sh-none-elf/8.2.0/../../../../sh-none-elf/lib/libc.a(lib_a-sprintf.o)
 .debug_line    0x0000000000002696      0x192 /joengine/Compiler/LINUX/bin/../lib/gcc/sh-none-elf/8.2.0/../../../../sh-none-elf/lib/libc.a(lib_a-strcat.o)
 .debug_line    0x0000000000002828      0x188 /joengine/Compiler/LINUX/bin/../lib/gcc/sh-none-elf/8.2.0/../../../../sh-none-elf/lib/libc.a(lib_a-strncmp.o)
 .debug_line    0x00000000000029b0      0x19a /joengine/Compiler/LINUX/bin/../lib/gcc/sh-none-elf/8.2.0/../../../../sh-none-elf/lib/libc.a(lib_a-strncpy.o)
 .debug_line    0x0000000000002b4a      0x1a9 /joengine/Compiler/LINUX/bin/../lib/gcc/sh-none-elf/8.2.0/../../../../sh-none-elf/lib/libc.a(lib_a-strstr.o)
 .debug_line    0x0000000000002cf3     0x1423 /joengine/Compiler/LINUX/bin/../lib/gcc/sh-none-elf/8.2.0/../../../../sh-none-elf/lib/libc.a(lib_a-svfprintf.o)
 .debug_line    0x0000000000004116      0x265 /joengine/Compiler/LINUX/bin/../lib/gcc/sh-none-elf/8.2.0/../../../../sh-none-elf/lib/libc.a(lib_a-wbuf.o)
 .debug_line    0x000000000000437b      0x28b /joengine/Compiler/LINUX/bin/../lib/gcc/sh-none-elf/8.2.0/../../../../sh-none-elf/lib/libc.a(lib_a-wsetup.o)
 .debug_line    0x0000000000004606     0x11aa /joengine/Compiler/LINUX/bin/../lib/gcc/sh-none-elf/8.2.0/../../../../sh-none-elf/lib/libc.a(lib_a-dtoa.o)
 .debug_line    0x00000000000057b0      0x3aa /joengine/Compiler/LINUX/bin/../lib/gcc/sh-none-elf/8.2.0/../../../../sh-none-elf/lib/libc.a(lib_a-fflush.o)
 .debug_line    0x0000000000005b5a      0x471 /joengine/Compiler/LINUX/bin/../lib/gcc/sh-none-elf/8.2.0/../../../../sh-none-elf/lib/libc.a(lib_a-findfp.o)
 .debug_line    0x0000000000005fcb      0x25d /joengine/Compiler/LINUX/bin/../lib/gcc/sh-none-elf/8.2.0/../../../../sh-none-elf/lib/libc.a(lib_a-fwalk.o)
 .debug_line    0x0000000000006228      0x208 /joengine/Compiler/LINUX/bin/../lib/gcc/sh-none-elf/8.2.0/../../../../sh-none-elf/lib/libc.a(lib_a-localeconv.o)
 .debug_line    0x0000000000006430      0x2cd /joengine/Compiler/LINUX/bin/../lib/gcc/sh-none-elf/8.2.0/../../../../sh-none-elf/lib/libc.a(lib_a-locale.o)
 .debug_line    0x00000000000066fd      0x32a /joengine/Compiler/LINUX/bin/../lib/gcc/sh-none-elf/8.2.0/../../../../sh-none-elf/lib/libc.a(lib_a-makebuf.o)
 .debug_line    0x0000000000006a27      0x238 /joengine/Compiler/LINUX/bin/../lib/gcc/sh-none-elf/8.2.0/../../../../sh-none-elf/lib/libc.a(lib_a-mbtowc_r.o)
 .debug_line    0x0000000000006c5f      0x177 /joengine/Compiler/LINUX/bin/../lib/gcc/sh-none-elf/8.2.0/../../../../sh-none-elf/lib/libc.a(lib_a-memchr.o)
 .debug_line    0x0000000000006dd6     0x11fa /joengine/Compiler/LINUX/bin/../lib/gcc/sh-none-elf/8.2.0/../../../../sh-none-elf/lib/libc.a(lib_a-mprec.o)
 .debug_line    0x0000000000007fd0      0x306 /joengine/Compiler/LINUX/bin/../lib/gcc/sh-none-elf/8.2.0/../../../../sh-none-elf/lib/libc.a(lib_a-refill.o)
 .debug_line    0x00000000000082d6      0x25f /joengine/Compiler/LINUX/bin/../lib/gcc/sh-none-elf/8.2.0/../../../../sh-none-elf/lib/libc.a(lib_a-stdio.o)
 .debug_line    0x0000000000008535      0xdcf /joengine/Compiler/LINUX/bin/../lib/gcc/sh-none-elf/8.2.0/../../../../sh-none-elf/lib/libc.a(lib_a-svfiprintf.o)
 .debug_line    0x0000000000009304      0x226 /joengine/Compiler/LINUX/bin/../lib/gcc/sh-none-elf/8.2.0/../../../../sh-none-elf/lib/libc.a(lib_a-wctomb_r.o)
 .debug_line    0x000000000000952a      0x1a1 /joengine/Compiler/LINUX/bin/../lib/gcc/sh-none-elf/8.2.0/../../../../sh-none-elf/lib/libc.a(lib_a-writer.o)
 .debug_line    0x00000000000096cb      0x19d /joengine/Compiler/LINUX/bin/../lib/gcc/sh-none-elf/8.2.0/../../../../sh-none-elf/lib/libc.a(lib_a-closer.o)
 .debug_line    0x0000000000009868      0x1c0 /joengine/Compiler/LINUX/bin/../lib/gcc/sh-none-elf/8.2.0/../../../../sh-none-elf/lib/libc.a(lib_a-ctype_.o)
 .debug_line    0x0000000000009a28      0x222 /joengine/Compiler/LINUX/bin/../lib/gcc/sh-none-elf/8.2.0/../../../../sh-none-elf/lib/libc.a(lib_a-fclose.o)
 .debug_line    0x0000000000009c4a      0x21e /joengine/Compiler/LINUX/bin/../lib/gcc/sh-none-elf/8.2.0/../../../../sh-none-elf/lib/libc.a(lib_a-fstatr.o)
 .debug_line    0x0000000000009e68      0x19e /joengine/Compiler/LINUX/bin/../lib/gcc/sh-none-elf/8.2.0/../../../../sh-none-elf/lib/libc.a(lib_a-isattyr.o)
 .debug_line    0x000000000000a006      0x1a1 /joengine/Compiler/LINUX/bin/../lib/gcc/sh-none-elf/8.2.0/../../../../sh-none-elf/lib/libc.a(lib_a-lseekr.o)
 .debug_line    0x000000000000a1a7      0x218 /joengine/Compiler/LINUX/bin/../lib/gcc/sh-none-elf/8.2.0/../../../../sh-none-elf/lib/libc.a(lib_a-memmove.o)
 .debug_line    0x000000000000a3bf      0x1a0 /joengine/Compiler/LINUX/bin/../lib/gcc/sh-none-elf/8.2.0/../../../../sh-none-elf/lib/libc.a(lib_a-readr.o)
 .debug_line    0x000000000000a55f      0x248 /joengine/Compiler/LINUX/bin/../lib/gcc/sh-none-elf/8.2.0/../../../../sh-none-elf/lib/libc.a(lib_a-reent.o)
 .debug_line    0x000000000000a7a7      0x29e /joengine/Compiler/LINUX/bin/../lib/gcc/sh-none-elf/8.2.0/libgcc.a(_udivdi3.o)
 .debug_line    0x000000000000aa45      0x305 /joengine/Compiler/LINUX/bin/../lib/gcc/sh-none-elf/8.2.0/libgcc.a(_umoddi3.o)
 .debug_line    0x000000000000ad4a      0x3d0 /joengine/Compiler/LINUX/bin/../lib/gcc/sh-none-elf/8.2.0/libgcc.a(_addsub_df.o)
 .debug_line    0x000000000000b11a      0x358 /joengine/Compiler/LINUX/bin/../lib/gcc/sh-none-elf/8.2.0/libgcc.a(_mul_df.o)
 .debug_line    0x000000000000b472      0x285 /joengine/Compiler/LINUX/bin/../lib/gcc/sh-none-elf/8.2.0/libgcc.a(_div_df.o)
 .debug_line    0x000000000000b6f7      0x125 /joengine/Compiler/LINUX/bin/../lib/gcc/sh-none-elf/8.2.0/libgcc.a(_eq_df.o)
 .debug_line    0x000000000000b81c      0x125 /joengine/Compiler/LINUX/bin/../lib/gcc/sh-none-elf/8.2.0/libgcc.a(_ne_df.o)
 .debug_line    0x000000000000b941      0x122 /joengine/Compiler/LINUX/bin/../lib/gcc/sh-none-elf/8.2.0/libgcc.a(_gt_df.o)
 .debug_line    0x000000000000ba63      0x122 /joengine/Compiler/LINUX/bin/../lib/gcc/sh-none-elf/8.2.0/libgcc.a(_ge_df.o)
 .debug_line    0x000000000000bb85      0x125 /joengine/Compiler/LINUX/bin/../lib/gcc/sh-none-elf/8.2.0/libgcc.a(_lt_df.o)
 .debug_line    0x000000000000bcaa      0x125 /joengine/Compiler/LINUX/bin/../lib/gcc/sh-none-elf/8.2.0/libgcc.a(_le_df.o)
 .debug_line    0x000000000000bdcf      0x117 /joengine/Compiler/LINUX/bin/../lib/gcc/sh-none-elf/8.2.0/libgcc.a(_unord_df.o)
 .debug_line    0x000000000000bee6      0x1a1 /joengine/Compiler/LINUX/bin/../lib/gcc/sh-none-elf/8.2.0/libgcc.a(_si_to_df.o)
 .debug_line    0x000000000000c087      0x159 /joengine/Compiler/LINUX/bin/../lib/gcc/sh-none-elf/8.2.0/libgcc.a(_df_to_si.o)
 .debug_line    0x000000000000c1e0       0xb6 /joengine/Compiler/LINUX/bin/../lib/gcc/sh-none-elf/8.2.0/libgcc.a(_thenan_df.o)
 .debug_line    0x000000000000c296      0x16d /joengine/Compiler/LINUX/bin/../lib/gcc/sh-none-elf/8.2.0/libgcc.a(_usi_to_df.o)
 .debug_line    0x000000000000c403       0xf4 /joengine/Compiler/LINUX/bin/../lib/gcc/sh-none-elf/8.2.0/libgcc.a(_clz.o)
 .debug_line    0x000000000000c4f7      0x147 /joengine/Compiler/LINUX/bin/../lib/gcc/sh-none-elf/8.2.0/libgcc.a(_clzsi2.o)
 .debug_line    0x000000000000c63e      0x29e /joengine/Compiler/LINUX/bin/../lib/gcc/sh-none-elf/8.2.0/libgcc.a(_pack_df.o)
 .debug_line    0x000000000000c8dc      0x1aa /joengine/Compiler/LINUX/bin/../lib/gcc/sh-none-elf/8.2.0/libgcc.a(_unpack_df.o)
 .debug_line    0x000000000000ca86      0x1ff /joengine/Compiler/LINUX/bin/../lib/gcc/sh-none-elf/8.2.0/libgcc.a(_fpcmp_parts_df.o)

.debug_str      0x0000000000000000    0x1dd70
 .debug_str     0x0000000000000000      0x5f7 /joengine/Compiler/LINUX/bin/../lib/gcc/sh-none-elf/8.2.0/libgcc.a(_addsub_sf.o)
 .debug_str     0x00000000000005f7      0x5ae /joengine/Compiler/LINUX/bin/../lib/gcc/sh-none-elf/8.2.0/libgcc.a(_mul_sf.o)
 .debug_str     0x0000000000000ba5      0x5b9 /joengine/Compiler/LINUX/bin/../lib/gcc/sh-none-elf/8.2.0/libgcc.a(_div_sf.o)
 .debug_str     0x000000000000115e      0x586 /joengine/Compiler/LINUX/bin/../lib/gcc/sh-none-elf/8.2.0/libgcc.a(_eq_sf.o)
 .debug_str     0x00000000000016e4      0x586 /joengine/Compiler/LINUX/bin/../lib/gcc/sh-none-elf/8.2.0/libgcc.a(_ne_sf.o)
 .debug_str     0x0000000000001c6a      0x586 /joengine/Compiler/LINUX/bin/../lib/gcc/sh-none-elf/8.2.0/libgcc.a(_gt_sf.o)
 .debug_str     0x00000000000021f0      0x586 /joengine/Compiler/LINUX/bin/../lib/gcc/sh-none-elf/8.2.0/libgcc.a(_ge_sf.o)
 .debug_str     0x0000000000002776      0x586 /joengine/Compiler/LINUX/bin/../lib/gcc/sh-none-elf/8.2.0/libgcc.a(_lt_sf.o)
 .debug_str     0x0000000000002cfc      0x586 /joengine/Compiler/LINUX/bin/../lib/gcc/sh-none-elf/8.2.0/libgcc.a(_le_sf.o)
 .debug_str     0x0000000000003282      0x567 /joengine/Compiler/LINUX/bin/../lib/gcc/sh-none-elf/8.2.0/libgcc.a(_si_to_sf.o)
 .debug_str     0x00000000000037e9      0x57e /joengine/Compiler/LINUX/bin/../lib/gcc/sh-none-elf/8.2.0/libgcc.a(_sf_to_si.o)
 .debug_str     0x0000000000003d67      0x581 /joengine/Compiler/LINUX/bin/../lib/gcc/sh-none-elf/8.2.0/libgcc.a(_sf_to_df.o)
 .debug_str     0x00000000000042e8      0x51a /joengine/Compiler/LINUX/bin/../lib/gcc/sh-none-elf/8.2.0/libgcc.a(_thenan_sf.o)
 .debug_str     0x0000000000004802      0x563 /joengine/Compiler/LINUX/bin/../lib/gcc/sh-none-elf/8.2.0/libgcc.a(_usi_to_sf.o)
 .debug_str     0x0000000000004d65      0x539 /joengine/Compiler/LINUX/bin/../lib/gcc/sh-none-elf/8.2.0/libgcc.a(_make_df.o)
 .debug_str     0x000000000000529e      0x585 /joengine/Compiler/LINUX/bin/../lib/gcc/sh-none-elf/8.2.0/libgcc.a(_df_to_sf.o)
 .debug_str     0x0000000000005823      0x572 /joengine/Compiler/LINUX/bin/../lib/gcc/sh-none-elf/8.2.0/libgcc.a(_pack_sf.o)
 .debug_str     0x0000000000005d95      0x554 /joengine/Compiler/LINUX/bin/../lib/gcc/sh-none-elf/8.2.0/libgcc.a(_unpack_sf.o)
 .debug_str     0x00000000000062e9      0x53d /joengine/Compiler/LINUX/bin/../lib/gcc/sh-none-elf/8.2.0/libgcc.a(_fpcmp_parts_sf.o)
 .debug_str     0x0000000000006826      0x539 /joengine/Compiler/LINUX/bin/../lib/gcc/sh-none-elf/8.2.0/libgcc.a(_make_sf.o)
 .debug_str     0x0000000000006d5f      0x525 /joengine/Compiler/LINUX/bin/../lib/gcc/sh-none-elf/8.2.0/../../../../sh-none-elf/lib/libc.a(lib_a-impure.o)
 .debug_str     0x0000000000007284      0x529 /joengine/Compiler/LINUX/bin/../lib/gcc/sh-none-elf/8.2.0/../../../../sh-none-elf/lib/libc.a(lib_a-memcmp.o)
 .debug_str     0x00000000000077ad      0x539 /joengine/Compiler/LINUX/bin/../lib/gcc/sh-none-elf/8.2.0/../../../../sh-none-elf/lib/libc.a(lib_a-rand.o)
 .debug_str     0x0000000000007ce6      0x6a4 /joengine/Compiler/LINUX/bin/../lib/gcc/sh-none-elf/8.2.0/../../../../sh-none-elf/lib/libc.a(lib_a-rget.o)
 .debug_str     0x000000000000838a      0x6a3 /joengine/Compiler/LINUX/bin/../lib/gcc/sh-none-elf/8.2.0/../../../../sh-none-elf/lib/libc.a(lib_a-sprintf.o)
 .debug_str     0x0000000000008a2d      0x522 /joengine/Compiler/LINUX/bin/../lib/gcc/sh-none-elf/8.2.0/../../../../sh-none-elf/lib/libc.a(lib_a-strcat.o)
 .debug_str     0x0000000000008f4f      0x52b /joengine/Compiler/LINUX/bin/../lib/gcc/sh-none-elf/8.2.0/../../../../sh-none-elf/lib/libc.a(lib_a-strncmp.o)
 .debug_str     0x000000000000947a      0x547 /joengine/Compiler/LINUX/bin/../lib/gcc/sh-none-elf/8.2.0/../../../../sh-none-elf/lib/libc.a(lib_a-strncpy.o)
 .debug_str     0x00000000000099c1      0x53a /joengine/Compiler/LINUX/bin/../lib/gcc/sh-none-elf/8.2.0/../../../../sh-none-elf/lib/libc.a(lib_a-strstr.o)
 .debug_str     0x0000000000009efb      0xc10 /joengine/Compiler/LINUX/bin/../lib/gcc/sh-none-elf/8.2.0/../../../../sh-none-elf/lib/libc.a(lib_a-svfprintf.o)
 .debug_str     0x000000000000ab0b      0x6ae /joengine/Compiler/LINUX/bin/../lib/gcc/sh-none-elf/8.2.0/../../../../sh-none-elf/lib/libc.a(lib_a-wbuf.o)
 .debug_str     0x000000000000b1b9      0x6a9 /joengine/Compiler/LINUX/bin/../lib/gcc/sh-none-elf/8.2.0/../../../../sh-none-elf/lib/libc.a(lib_a-wsetup.o)
 .debug_str     0x000000000000b862      0xa22 /joengine/Compiler/LINUX/bin/../lib/gcc/sh-none-elf/8.2.0/../../../../sh-none-elf/lib/libc.a(lib_a-dtoa.o)
 .debug_str     0x000000000000c284      0x6d7 /joengine/Compiler/LINUX/bin/../lib/gcc/sh-none-elf/8.2.0/../../../../sh-none-elf/lib/libc.a(lib_a-fflush.o)
 .debug_str     0x000000000000c95b      0x7e7 /joengine/Compiler/LINUX/bin/../lib/gcc/sh-none-elf/8.2.0/../../../../sh-none-elf/lib/libc.a(lib_a-findfp.o)
 .debug_str     0x000000000000d142      0x69b /joengine/Compiler/LINUX/bin/../lib/gcc/sh-none-elf/8.2.0/../../../../sh-none-elf/lib/libc.a(lib_a-fwalk.o)
 .debug_str     0x000000000000d7dd      0x8b7 /joengine/Compiler/LINUX/bin/../lib/gcc/sh-none-elf/8.2.0/../../../../sh-none-elf/lib/libc.a(lib_a-localeconv.o)
 .debug_str     0x000000000000e094      0x928 /joengine/Compiler/LINUX/bin/../lib/gcc/sh-none-elf/8.2.0/../../../../sh-none-elf/lib/libc.a(lib_a-locale.o)
 .debug_str     0x000000000000e9bc      0x825 /joengine/Compiler/LINUX/bin/../lib/gcc/sh-none-elf/8.2.0/../../../../sh-none-elf/lib/libc.a(lib_a-makebuf.o)
 .debug_str     0x000000000000f1e1      0x8c8 /joengine/Compiler/LINUX/bin/../lib/gcc/sh-none-elf/8.2.0/../../../../sh-none-elf/lib/libc.a(lib_a-mbtowc_r.o)
 .debug_str     0x000000000000faa9      0x539 /joengine/Compiler/LINUX/bin/../lib/gcc/sh-none-elf/8.2.0/../../../../sh-none-elf/lib/libc.a(lib_a-memchr.o)
 .debug_str     0x000000000000ffe2      0x9cb /joengine/Compiler/LINUX/bin/../lib/gcc/sh-none-elf/8.2.0/../../../../sh-none-elf/lib/libc.a(lib_a-mprec.o)
 .debug_str     0x00000000000109ad      0x6de /joengine/Compiler/LINUX/bin/../lib/gcc/sh-none-elf/8.2.0/../../../../sh-none-elf/lib/libc.a(lib_a-refill.o)
 .debug_str     0x000000000001108b      0x6ef /joengine/Compiler/LINUX/bin/../lib/gcc/sh-none-elf/8.2.0/../../../../sh-none-elf/lib/libc.a(lib_a-stdio.o)
 .debug_str     0x000000000001177a      0xb91 /joengine/Compiler/LINUX/bin/../lib/gcc/sh-none-elf/8.2.0/../../../../sh-none-elf/lib/libc.a(lib_a-svfiprintf.o)
 .debug_str     0x000000000001230b      0x8cf /joengine/Compiler/LINUX/bin/../lib/gcc/sh-none-elf/8.2.0/../../../../sh-none-elf/lib/libc.a(lib_a-wctomb_r.o)
 .debug_str     0x0000000000012bda      0x565 /joengine/Compiler/LINUX/bin/../lib/gcc/sh-none-elf/8.2.0/../../../../sh-none-elf/lib/libc.a(lib_a-writer.o)
 .debug_str     0x000000000001313f      0x555 /joengine/Compiler/LINUX/bin/../lib/gcc/sh-none-elf/8.2.0/../../../../sh-none-elf/lib/libc.a(lib_a-closer.o)
 .debug_str     0x0000000000013694      0x846 /joengine/Compiler/LINUX/bin/../lib/gcc/sh-none-elf/8.2.0/../../../../sh-none-elf/lib/libc.a(lib_a-ctype_.o)
 .debug_str     0x0000000000013eda      0x6c0 /joengine/Compiler/LINUX/bin/../lib/gcc/sh-none-elf/8.2.0/../../../../sh-none-elf/lib/libc.a(lib_a-fclose.o)
 .debug_str     0x000000000001459a      0x6cc /joengine/Compiler/LINUX/bin/../lib/gcc/sh-none-elf/8.2.0/../../../../sh-none-elf/lib/libc.a(lib_a-fstatr.o)
 .debug_str     0x0000000000014c66      0x55f /joengine/Compiler/LINUX/bin/../lib/gcc/sh-none-elf/8.2.0/../../../../sh-none-elf/lib/libc.a(lib_a-isattyr.o)
 .debug_str     0x00000000000151c5      0x563 /joengine/Compiler/LINUX/bin/../lib/gcc/sh-none-elf/8.2.0/../../../../sh-none-elf/lib/libc.a(lib_a-lseekr.o)
 .debug_str     0x0000000000015728      0x859 /joengine/Compiler/LINUX/bin/../lib/gcc/sh-none-elf/8.2.0/../../../../sh-none-elf/lib/libc.a(lib_a-memmove.o)
 .debug_str     0x0000000000015f81      0x563 /joengine/Compiler/LINUX/bin/../lib/gcc/sh-none-elf/8.2.0/../../../../sh-none-elf/lib/libc.a(lib_a-readr.o)
 .debug_str     0x00000000000164e4      0x561 /joengine/Compiler/LINUX/bin/../lib/gcc/sh-none-elf/8.2.0/../../../../sh-none-elf/lib/libc.a(lib_a-reent.o)
 .debug_str     0x0000000000016a45      0x590 /joengine/Compiler/LINUX/bin/../lib/gcc/sh-none-elf/8.2.0/libgcc.a(_udivdi3.o)
 .debug_str     0x0000000000016fd5      0x590 /joengine/Compiler/LINUX/bin/../lib/gcc/sh-none-elf/8.2.0/libgcc.a(_umoddi3.o)
 .debug_str     0x0000000000017565      0x5fd /joengine/Compiler/LINUX/bin/../lib/gcc/sh-none-elf/8.2.0/libgcc.a(_addsub_df.o)
 .debug_str     0x0000000000017b62      0x5cf /joengine/Compiler/LINUX/bin/../lib/gcc/sh-none-elf/8.2.0/libgcc.a(_mul_df.o)
 .debug_str     0x0000000000018131      0x5bf /joengine/Compiler/LINUX/bin/../lib/gcc/sh-none-elf/8.2.0/libgcc.a(_div_df.o)
 .debug_str     0x00000000000186f0      0x58c /joengine/Compiler/LINUX/bin/../lib/gcc/sh-none-elf/8.2.0/libgcc.a(_eq_df.o)
 .debug_str     0x0000000000018c7c      0x58c /joengine/Compiler/LINUX/bin/../lib/gcc/sh-none-elf/8.2.0/libgcc.a(_ne_df.o)
 .debug_str     0x0000000000019208      0x58c /joengine/Compiler/LINUX/bin/../lib/gcc/sh-none-elf/8.2.0/libgcc.a(_gt_df.o)
 .debug_str     0x0000000000019794      0x58c /joengine/Compiler/LINUX/bin/../lib/gcc/sh-none-elf/8.2.0/libgcc.a(_ge_df.o)
 .debug_str     0x0000000000019d20      0x58c /joengine/Compiler/LINUX/bin/../lib/gcc/sh-none-elf/8.2.0/libgcc.a(_lt_df.o)
 .debug_str     0x000000000001a2ac      0x58c /joengine/Compiler/LINUX/bin/../lib/gcc/sh-none-elf/8.2.0/libgcc.a(_le_df.o)
 .debug_str     0x000000000001a838      0x57f /joengine/Compiler/LINUX/bin/../lib/gcc/sh-none-elf/8.2.0/libgcc.a(_unord_df.o)
 .debug_str     0x000000000001adb7      0x567 /joengine/Compiler/LINUX/bin/../lib/gcc/sh-none-elf/8.2.0/libgcc.a(_si_to_df.o)
 .debug_str     0x000000000001b31e      0x584 /joengine/Compiler/LINUX/bin/../lib/gcc/sh-none-elf/8.2.0/libgcc.a(_df_to_si.o)
 .debug_str     0x000000000001b8a2      0x51a /joengine/Compiler/LINUX/bin/../lib/gcc/sh-none-elf/8.2.0/libgcc.a(_thenan_df.o)
 .debug_str     0x000000000001bdbc      0x563 /joengine/Compiler/LINUX/bin/../lib/gcc/sh-none-elf/8.2.0/libgcc.a(_usi_to_df.o)
 .debug_str     0x000000000001c31f      0x50d /joengine/Compiler/LINUX/bin/../lib/gcc/sh-none-elf/8.2.0/libgcc.a(_clz.o)
 .debug_str     0x000000000001c82c      0x52a /joengine/Compiler/LINUX/bin/../lib/gcc/sh-none-elf/8.2.0/libgcc.a(_clzsi2.o)
 .debug_str     0x000000000001cd56      0x578 /joengine/Compiler/LINUX/bin/../lib/gcc/sh-none-elf/8.2.0/libgcc.a(_pack_df.o)
 .debug_str     0x000000000001d2ce      0x55a /joengine/Compiler/LINUX/bin/../lib/gcc/sh-none-elf/8.2.0/libgcc.a(_unpack_df.o)
 .debug_str     0x000000000001d828      0x53d /joengine/Compiler/LINUX/bin/../lib/gcc/sh-none-elf/8.2.0/libgcc.a(_fpcmp_parts_df.o)

.debug_frame    0x0000000000000000     0x1af0
 .debug_frame   0x0000000000000000       0xb4 /joengine/Compiler/LINUX/bin/../lib/gcc/sh-none-elf/8.2.0/libgcc.a(_addsub_sf.o)
 .debug_frame   0x00000000000000b4       0x4c /joengine/Compiler/LINUX/bin/../lib/gcc/sh-none-elf/8.2.0/libgcc.a(_mul_sf.o)
 .debug_frame   0x0000000000000100       0x3c /joengine/Compiler/LINUX/bin/../lib/gcc/sh-none-elf/8.2.0/libgcc.a(_div_sf.o)
 .debug_frame   0x000000000000013c       0x48 /joengine/Compiler/LINUX/bin/../lib/gcc/sh-none-elf/8.2.0/libgcc.a(_eq_sf.o)
 .debug_frame   0x0000000000000184       0x48 /joengine/Compiler/LINUX/bin/../lib/gcc/sh-none-elf/8.2.0/libgcc.a(_ne_sf.o)
 .debug_frame   0x00000000000001cc       0x3c /joengine/Compiler/LINUX/bin/../lib/gcc/sh-none-elf/8.2.0/libgcc.a(_gt_sf.o)
 .debug_frame   0x0000000000000208       0x3c /joengine/Compiler/LINUX/bin/../lib/gcc/sh-none-elf/8.2.0/libgcc.a(_ge_sf.o)
 .debug_frame   0x0000000000000244       0x48 /joengine/Compiler/LINUX/bin/../lib/gcc/sh-none-elf/8.2.0/libgcc.a(_lt_sf.o)
 .debug_frame   0x000000000000028c       0x48 /joengine/Compiler/LINUX/bin/../lib/gcc/sh-none-elf/8.2.0/libgcc.a(_le_sf.o)
 .debug_frame   0x00000000000002d4       0x3c /joengine/Compiler/LINUX/bin/../lib/gcc/sh-none-elf/8.2.0/libgcc.a(_si_to_sf.o)
 .debug_frame   0x0000000000000310       0x44 /joengine/Compiler/LINUX/bin/../lib/gcc/sh-none-elf/8.2.0/libgcc.a(_sf_to_si.o)
 .debug_frame   0x0000000000000354       0x30 /joengine/Compiler/LINUX/bin/../lib/gcc/sh-none-elf/8.2.0/libgcc.a(_sf_to_df.o)
 .debug_frame   0x0000000000000384       0x64 /joengine/Compiler/LINUX/bin/../lib/gcc/sh-none-elf/8.2.0/libgcc.a(_usi_to_sf.o)
 .debug_frame   0x00000000000003e8       0x38 /joengine/Compiler/LINUX/bin/../lib/gcc/sh-none-elf/8.2.0/libgcc.a(_make_df.o)
 .debug_frame   0x0000000000000420       0x30 /joengine/Compiler/LINUX/bin/../lib/gcc/sh-none-elf/8.2.0/libgcc.a(_df_to_sf.o)
 .debug_frame   0x0000000000000450       0x30 /joengine/Compiler/LINUX/bin/../lib/gcc/sh-none-elf/8.2.0/libgcc.a(_pack_sf.o)
 .debug_frame   0x0000000000000480       0x20 /joengine/Compiler/LINUX/bin/../lib/gcc/sh-none-elf/8.2.0/libgcc.a(_unpack_sf.o)
 .debug_frame   0x00000000000004a0       0x20 /joengine/Compiler/LINUX/bin/../lib/gcc/sh-none-elf/8.2.0/libgcc.a(_fpcmp_parts_sf.o)
 .debug_frame   0x00000000000004c0       0x30 /joengine/Compiler/LINUX/bin/../lib/gcc/sh-none-elf/8.2.0/libgcc.a(_make_sf.o)
 .debug_frame   0x00000000000004f0       0x20 /joengine/Compiler/LINUX/bin/../lib/gcc/sh-none-elf/8.2.0/../../../../sh-none-elf/lib/libc.a(lib_a-memcmp.o)
 .debug_frame   0x0000000000000510       0x30 /joengine/Compiler/LINUX/bin/../lib/gcc/sh-none-elf/8.2.0/../../../../sh-none-elf/lib/libc.a(lib_a-rand.o)
 .debug_frame   0x0000000000000540       0x4c /joengine/Compiler/LINUX/bin/../lib/gcc/sh-none-elf/8.2.0/../../../../sh-none-elf/lib/libc.a(lib_a-rget.o)
 .debug_frame   0x000000000000058c       0x64 /joengine/Compiler/LINUX/bin/../lib/gcc/sh-none-elf/8.2.0/../../../../sh-none-elf/lib/libc.a(lib_a-sprintf.o)
 .debug_frame   0x00000000000005f0       0x20 /joengine/Compiler/LINUX/bin/../lib/gcc/sh-none-elf/8.2.0/../../../../sh-none-elf/lib/libc.a(lib_a-strcat.o)
 .debug_frame   0x0000000000000610       0x20 /joengine/Compiler/LINUX/bin/../lib/gcc/sh-none-elf/8.2.0/../../../../sh-none-elf/lib/libc.a(lib_a-strncmp.o)
 .debug_frame   0x0000000000000630       0x20 /joengine/Compiler/LINUX/bin/../lib/gcc/sh-none-elf/8.2.0/../../../../sh-none-elf/lib/libc.a(lib_a-strncpy.o)
 .debug_frame   0x0000000000000650       0x20 /joengine/Compiler/LINUX/bin/../lib/gcc/sh-none-elf/8.2.0/../../../../sh-none-elf/lib/libc.a(lib_a-strstr.o)
 .debug_frame   0x0000000000000670       0x74 /joengine/Compiler/LINUX/bin/../lib/gcc/sh-none-elf/8.2.0/../../../../sh-none-elf/lib/libc.a(lib_a-svfprintf.o)
 .debug_frame   0x00000000000006e4       0x60 /joengine/Compiler/LINUX/bin/../lib/gcc/sh-none-elf/8.2.0/../../../../sh-none-elf/lib/libc.a(lib_a-wbuf.o)
 .debug_frame   0x0000000000000744       0x40 /joengine/Compiler/LINUX/bin/../lib/gcc/sh-none-elf/8.2.0/../../../../sh-none-elf/lib/libc.a(lib_a-wsetup.o)
 .debug_frame   0x0000000000000784       0xd0 /joengine/Compiler/LINUX/bin/../lib/gcc/sh-none-elf/8.2.0/../../../../sh-none-elf/lib/libc.a(lib_a-dtoa.o)
 .debug_frame   0x0000000000000854       0x98 /joengine/Compiler/LINUX/bin/../lib/gcc/sh-none-elf/8.2.0/../../../../sh-none-elf/lib/libc.a(lib_a-fflush.o)
 .debug_frame   0x00000000000008ec      0x17c /joengine/Compiler/LINUX/bin/../lib/gcc/sh-none-elf/8.2.0/../../../../sh-none-elf/lib/libc.a(lib_a-findfp.o)
 .debug_frame   0x0000000000000a68       0xc0 /joengine/Compiler/LINUX/bin/../lib/gcc/sh-none-elf/8.2.0/../../../../sh-none-elf/lib/libc.a(lib_a-fwalk.o)
 .debug_frame   0x0000000000000b28       0x40 /joengine/Compiler/LINUX/bin/../lib/gcc/sh-none-elf/8.2.0/../../../../sh-none-elf/lib/libc.a(lib_a-localeconv.o)
 .debug_frame   0x0000000000000b68       0x80 /joengine/Compiler/LINUX/bin/../lib/gcc/sh-none-elf/8.2.0/../../../../sh-none-elf/lib/libc.a(lib_a-locale.o)
 .debug_frame   0x0000000000000be8       0x88 /joengine/Compiler/LINUX/bin/../lib/gcc/sh-none-elf/8.2.0/../../../../sh-none-elf/lib/libc.a(lib_a-makebuf.o)
 .debug_frame   0x0000000000000c70       0x38 /joengine/Compiler/LINUX/bin/../lib/gcc/sh-none-elf/8.2.0/../../../../sh-none-elf/lib/libc.a(lib_a-mbtowc_r.o)
 .debug_frame   0x0000000000000ca8       0x20 /joengine/Compiler/LINUX/bin/../lib/gcc/sh-none-elf/8.2.0/../../../../sh-none-elf/lib/libc.a(lib_a-memchr.o)
 .debug_frame   0x0000000000000cc8      0x430 /joengine/Compiler/LINUX/bin/../lib/gcc/sh-none-elf/8.2.0/../../../../sh-none-elf/lib/libc.a(lib_a-mprec.o)
 .debug_frame   0x00000000000010f8       0x58 /joengine/Compiler/LINUX/bin/../lib/gcc/sh-none-elf/8.2.0/../../../../sh-none-elf/lib/libc.a(lib_a-refill.o)
 .debug_frame   0x0000000000001150       0xb8 /joengine/Compiler/LINUX/bin/../lib/gcc/sh-none-elf/8.2.0/../../../../sh-none-elf/lib/libc.a(lib_a-stdio.o)
 .debug_frame   0x0000000000001208       0xe0 /joengine/Compiler/LINUX/bin/../lib/gcc/sh-none-elf/8.2.0/../../../../sh-none-elf/lib/libc.a(lib_a-svfiprintf.o)
 .debug_frame   0x00000000000012e8       0x30 /joengine/Compiler/LINUX/bin/../lib/gcc/sh-none-elf/8.2.0/../../../../sh-none-elf/lib/libc.a(lib_a-wctomb_r.o)
 .debug_frame   0x0000000000001318       0x3c /joengine/Compiler/LINUX/bin/../lib/gcc/sh-none-elf/8.2.0/../../../../sh-none-elf/lib/libc.a(lib_a-writer.o)
 .debug_frame   0x0000000000001354       0x3c /joengine/Compiler/LINUX/bin/../lib/gcc/sh-none-elf/8.2.0/../../../../sh-none-elf/lib/libc.a(lib_a-closer.o)
 .debug_frame   0x0000000000001390       0x60 /joengine/Compiler/LINUX/bin/../lib/gcc/sh-none-elf/8.2.0/../../../../sh-none-elf/lib/libc.a(lib_a-fclose.o)
 .debug_frame   0x00000000000013f0       0x3c /joengine/Compiler/LINUX/bin/../lib/gcc/sh-none-elf/8.2.0/../../../../sh-none-elf/lib/libc.a(lib_a-fstatr.o)
 .debug_frame   0x000000000000142c       0x3c /joengine/Compiler/LINUX/bin/../lib/gcc/sh-none-elf/8.2.0/../../../../sh-none-elf/lib/libc.a(lib_a-isattyr.o)
 .debug_frame   0x0000000000001468       0x3c /joengine/Compiler/LINUX/bin/../lib/gcc/sh-none-elf/8.2.0/../../../../sh-none-elf/lib/libc.a(lib_a-lseekr.o)
 .debug_frame   0x00000000000014a4       0x20 /joengine/Compiler/LINUX/bin/../lib/gcc/sh-none-elf/8.2.0/../../../../sh-none-elf/lib/libc.a(lib_a-memmove.o)
 .debug_frame   0x00000000000014c4       0x3c /joengine/Compiler/LINUX/bin/../lib/gcc/sh-none-elf/8.2.0/../../../../sh-none-elf/lib/libc.a(lib_a-readr.o)
 .debug_frame   0x0000000000001500       0x9c /joengine/Compiler/LINUX/bin/../lib/gcc/sh-none-elf/8.2.0/../../../../sh-none-elf/lib/libc.a(lib_a-reent.o)
 .debug_frame   0x000000000000159c       0xe8 /joengine/Compiler/LINUX/bin/../lib/gcc/sh-none-elf/8.2.0/libgcc.a(_addsub_df.o)
 .debug_frame   0x0000000000001684       0x98 /joengine/Compiler/LINUX/bin/../lib/gcc/sh-none-elf/8.2.0/libgcc.a(_mul_df.o)
 .debug_frame   0x000000000000171c       0x50 /joengine/Compiler/LINUX/bin/../lib/gcc/sh-none-elf/8.2.0/libgcc.a(_div_df.o)
 .debug_frame   0x000000000000176c       0x48 /joengine/Compiler/LINUX/bin/../lib/gcc/sh-none-elf/8.2.0/libgcc.a(_eq_df.o)
 .debug_frame   0x00000000000017b4       0x48 /joengine/Compiler/LINUX/bin/../lib/gcc/sh-none-elf/8.2.0/libgcc.a(_ne_df.o)
 .debug_frame   0x00000000000017fc       0x3c /joengine/Compiler/LINUX/bin/../lib/gcc/sh-none-elf/8.2.0/libgcc.a(_gt_df.o)
 .debug_frame   0x0000000000001838       0x3c /joengine/Compiler/LINUX/bin/../lib/gcc/sh-none-elf/8.2.0/libgcc.a(_ge_df.o)
 .debug_frame   0x0000000000001874       0x48 /joengine/Compiler/LINUX/bin/../lib/gcc/sh-none-elf/8.2.0/libgcc.a(_lt_df.o)
 .debug_frame   0x00000000000018bc       0x48 /joengine/Compiler/LINUX/bin/../lib/gcc/sh-none-elf/8.2.0/libgcc.a(_le_df.o)
 .debug_frame   0x0000000000001904       0x38 /joengine/Compiler/LINUX/bin/../lib/gcc/sh-none-elf/8.2.0/libgcc.a(_unord_df.o)
 .debug_frame   0x000000000000193c       0x3c /joengine/Compiler/LINUX/bin/../lib/gcc/sh-none-elf/8.2.0/libgcc.a(_si_to_df.o)
 .debug_frame   0x0000000000001978       0x44 /joengine/Compiler/LINUX/bin/../lib/gcc/sh-none-elf/8.2.0/libgcc.a(_df_to_si.o)
 .debug_frame   0x00000000000019bc       0x58 /joengine/Compiler/LINUX/bin/../lib/gcc/sh-none-elf/8.2.0/libgcc.a(_usi_to_df.o)
 .debug_frame   0x0000000000001a14       0x20 /joengine/Compiler/LINUX/bin/../lib/gcc/sh-none-elf/8.2.0/libgcc.a(_clzsi2.o)
 .debug_frame   0x0000000000001a34       0x70 /joengine/Compiler/LINUX/bin/../lib/gcc/sh-none-elf/8.2.0/libgcc.a(_pack_df.o)
 .debug_frame   0x0000000000001aa4       0x20 /joengine/Compiler/LINUX/bin/../lib/gcc/sh-none-elf/8.2.0/libgcc.a(_unpack_df.o)
 .debug_frame   0x0000000000001ac4       0x20 /joengine/Compiler/LINUX/bin/../lib/gcc/sh-none-elf/8.2.0/libgcc.a(_fpcmp_parts_df.o)
