Archive member included to satisfy reference by file (symbol)

D:/joengine-master/Compiler/COMMON/SGL_302j/LIB_ELF/SEGA_SYS.A(sys_exit.o)
                              D:/joengine-master/jo_engine/core.o (SYS_Exit)
D:/joengine-master/Compiler/COMMON/SGL_302j/LIB_ELF/SEGA_SYS.A(sys_sub.o)
                              D:/joengine-master/Compiler/COMMON/SGL_302j/LIB_ELF/SEGA_SYS.A(sys_exit.o) (SYSUB_SetStackptr)
D:/joengine-master/Compiler/COMMON/SGL_302j/LIB_ELF/LIBCD.A(CDC_CMN.O)
                              D:/joengine-master/Compiler/COMMON/SGL_302j/LIB_ELF/SEGA_SYS.A(sys_exit.o) (CDC_GetCurStat)
D:/joengine-master/Compiler/COMMON/SGL_302j/LIB_ELF/LIBCD.A(CDC_DRV.O)
                              pcmsys.o (CDC_CdPlay)
D:/joengine-master/Compiler/COMMON/SGL_302j/LIB_ELF/LIBCD.A(CDC_CFS.O)
                              D:/joengine-master/Compiler/COMMON/SGL_302j/LIB_ELF/SEGA_SYS.A(sys_exit.o) (CDC_ChgDir)
D:/joengine-master/Compiler/COMMON/SGL_302j/LIB_ELF/LIBCD.A(CDC_REG.O)
                              D:/joengine-master/Compiler/COMMON/SGL_302j/LIB_ELF/SEGA_SYS.A(sys_exit.o) (CDC_GetHirqReq)
D:/joengine-master/Compiler/COMMON/SGL_302j/LIB_ELF/LIBCD.A(CDC_SUB.O)
                              D:/joengine-master/Compiler/COMMON/SGL_302j/LIB_ELF/LIBCD.A(CDC_CMN.O) (CDSUB_UpdStatus)
D:/joengine-master/Compiler/COMMON/SGL_302j/LIB_ELF/LIBCD.A(GFS.O)
                              pcmsys.o (GFS_Init)
D:/joengine-master/Compiler/COMMON/SGL_302j/LIB_ELF/LIBCD.A(GFS_BUF.O)
                              D:/joengine-master/Compiler/COMMON/SGL_302j/LIB_ELF/LIBCD.A(GFS.O) (GFBF_GetNumData)
D:/joengine-master/Compiler/COMMON/SGL_302j/LIB_ELF/LIBCD.A(GFS_CDB.O)
                              D:/joengine-master/Compiler/COMMON/SGL_302j/LIB_ELF/LIBCD.A(GFS.O) (GFCB_Close)
D:/joengine-master/Compiler/COMMON/SGL_302j/LIB_ELF/LIBCD.A(GFS_CDC.O)
                              D:/joengine-master/Compiler/COMMON/SGL_302j/LIB_ELF/LIBCD.A(GFS.O) (GFCD_SetCdbfs)
D:/joengine-master/Compiler/COMMON/SGL_302j/LIB_ELF/LIBCD.A(GFS_CDF.O)
                              D:/joengine-master/Compiler/COMMON/SGL_302j/LIB_ELF/LIBCD.A(GFS.O) (GFCF_Init)
D:/joengine-master/Compiler/COMMON/SGL_302j/LIB_ELF/LIBCD.A(GFS_DIR.O)
                              D:/joengine-master/Compiler/COMMON/SGL_302j/LIB_ELF/LIBCD.A(GFS.O) (GFDR_SetupDirTbl)
D:/joengine-master/Compiler/COMMON/SGL_302j/LIB_ELF/LIBCD.A(GFS_TRN.O)
                              D:/joengine-master/Compiler/COMMON/SGL_302j/LIB_ELF/LIBCD.A(GFS.O) (GFTR_Setup)
D:/joengine-master/Compiler/COMMON/SGL_302j/LIB_ELF/LIBCD.A(CDC_DEV.O)
                              D:/joengine-master/Compiler/COMMON/SGL_302j/LIB_ELF/LIBCD.A(GFS_CDC.O) (CDC_CdSetCon)
D:/joengine-master/Compiler/COMMON/SGL_302j/LIB_ELF/LIBCD.A(CDC_SEL.O)
                              D:/joengine-master/Compiler/COMMON/SGL_302j/LIB_ELF/LIBCD.A(GFS_CDC.O) (CDC_SetFiltRange)
D:/joengine-master/Compiler/COMMON/SGL_302j/LIB_ELF/LIBCD.A(CDC_BIF.O)
                              D:/joengine-master/Compiler/COMMON/SGL_302j/LIB_ELF/LIBCD.A(GFS_CDC.O) (CDC_GetBufSiz)
D:/joengine-master/Compiler/COMMON/SGL_302j/LIB_ELF/LIBCD.A(CDC_BIO.O)
                              D:/joengine-master/Compiler/COMMON/SGL_302j/LIB_ELF/LIBCD.A(GFS_CDC.O) (CDC_SetSctLen)
D:/joengine-master/Compiler/COMMON/SGL_302j/LIB_ELF/LIBSGL.A(sglA01.o)
                              D:/joengine-master/jo_engine/math.o (slSin)
D:/joengine-master/Compiler/COMMON/SGL_302j/LIB_ELF/LIBSGL.A(sglA15.o)
                              D:/joengine-master/jo_engine/slave.o (slSlaveFunc)
D:/joengine-master/Compiler/COMMON/SGL_302j/LIB_ELF/LIBSGL.A(sglA16.o)
                              main.o (slLookAt)
D:/joengine-master/Compiler/COMMON/SGL_302j/LIB_ELF/LIBSGL.A(sglA17.o)
                              main.o (slRotZ)
D:/joengine-master/Compiler/COMMON/SGL_302j/LIB_ELF/LIBSGL.A(sglA18.o)
                              main.o (slRotY)
D:/joengine-master/Compiler/COMMON/SGL_302j/LIB_ELF/LIBSGL.A(sglA19.o)
                              main.o (slRotX)
D:/joengine-master/Compiler/COMMON/SGL_302j/LIB_ELF/LIBSGL.A(sglA20.o)
                              main.o (slUnitMatrix)
D:/joengine-master/Compiler/COMMON/SGL_302j/LIB_ELF/LIBSGL.A(sglA21.o)
                              main.o (slPushMatrix)
D:/joengine-master/Compiler/COMMON/SGL_302j/LIB_ELF/LIBSGL.A(sglA27.o)
                              main.o (slTranslate)
D:/joengine-master/Compiler/COMMON/SGL_302j/LIB_ELF/LIBSGL.A(sglA28.o)
                              main.o (slScale)
D:/joengine-master/Compiler/COMMON/SGL_302j/LIB_ELF/LIBSGL.A(sglA40.o)
                              main.o (slCalcVector)
D:/joengine-master/Compiler/COMMON/SGL_302j/LIB_ELF/LIBSGL.A(sglB001.o)
                              main.o (slTVOn)
D:/joengine-master/Compiler/COMMON/SGL_302j/LIB_ELF/LIBSGL.A(sglB011.o)
                              D:/joengine-master/jo_engine/vdp2.o (slBitMapNbg1)
D:/joengine-master/Compiler/COMMON/SGL_302j/LIB_ELF/LIBSGL.A(sglB014.o)
                              D:/joengine-master/jo_engine/vdp2.o (slScrTransparent)
D:/joengine-master/Compiler/COMMON/SGL_302j/LIB_ELF/LIBSGL.A(sglB015.o)
                              D:/joengine-master/jo_engine/vdp2.o (slScrAutoDisp)
D:/joengine-master/Compiler/COMMON/SGL_302j/LIB_ELF/LIBSGL.A(sglB016.o)
                              D:/joengine-master/jo_engine/vdp2.o (slBack1ColSet)
D:/joengine-master/Compiler/COMMON/SGL_302j/LIB_ELF/LIBSGL.A(sglB020.o)
                              D:/joengine-master/jo_engine/vdp2.o (slColorCalc)
D:/joengine-master/Compiler/COMMON/SGL_302j/LIB_ELF/LIBSGL.A(sglB021.o)
                              D:/joengine-master/jo_engine/vdp2.o (slColorCalcOn)
D:/joengine-master/Compiler/COMMON/SGL_302j/LIB_ELF/LIBSGL.A(sglB023.o)
                              D:/joengine-master/jo_engine/vdp2.o (slColRate)
D:/joengine-master/Compiler/COMMON/SGL_302j/LIB_ELF/LIBSGL.A(sglB031.o)
                              D:/joengine-master/jo_engine/vdp2.o (slMapNbg0)
D:/joengine-master/Compiler/COMMON/SGL_302j/LIB_ELF/LIBSGL.A(sglB032.o)
                              D:/joengine-master/jo_engine/vdp2.o (slMapNbg1)
D:/joengine-master/Compiler/COMMON/SGL_302j/LIB_ELF/LIBSGL.A(sglB033.o)
                              D:/joengine-master/jo_engine/vdp2.o (slMapNbg2)
D:/joengine-master/Compiler/COMMON/SGL_302j/LIB_ELF/LIBSGL.A(sglB034.o)
                              D:/joengine-master/jo_engine/vdp2.o (slMapNbg3)
D:/joengine-master/Compiler/COMMON/SGL_302j/LIB_ELF/LIBSGL.A(sglB035.o)
                              D:/joengine-master/jo_engine/vdp2.o (sl1MapRA)
D:/joengine-master/Compiler/COMMON/SGL_302j/LIB_ELF/LIBSGL.A(sglB036.o)
                              D:/joengine-master/jo_engine/vdp2.o (sl1MapRB)
D:/joengine-master/Compiler/COMMON/SGL_302j/LIB_ELF/LIBSGL.A(sglB038.o)
                              D:/joengine-master/jo_engine/vdp2.o (slRparaInitSet)
D:/joengine-master/Compiler/COMMON/SGL_302j/LIB_ELF/LIBSGL.A(sglB039.o)
                              D:/joengine-master/jo_engine/vdp2.o (slMakeKtable)
D:/joengine-master/Compiler/COMMON/SGL_302j/LIB_ELF/LIBSGL.A(sglB040.o)
                              D:/joengine-master/jo_engine/vdp2.o (slKtableRA)
D:/joengine-master/Compiler/COMMON/SGL_302j/LIB_ELF/LIBSGL.A(sglB041.o)
                              D:/joengine-master/jo_engine/vdp2.o (slKtableRB)
D:/joengine-master/Compiler/COMMON/SGL_302j/LIB_ELF/LIBSGL.A(sglB042.o)
                              main.o (slCurRpara)
D:/joengine-master/Compiler/COMMON/SGL_302j/LIB_ELF/LIBSGL.A(sglB043.o)
                              D:/joengine-master/jo_engine/vdp2.o (slRparaMode)
D:/joengine-master/Compiler/COMMON/SGL_302j/LIB_ELF/LIBSGL.A(sglB044.o)
                              main.o (slScrMatSet)
D:/joengine-master/Compiler/COMMON/SGL_302j/LIB_ELF/LIBSGL.A(sglB045.o)
                              main.o (slScrMatConv)
D:/joengine-master/Compiler/COMMON/SGL_302j/LIB_ELF/LIBSGL.A(sglB047.o)
                              D:/joengine-master/jo_engine/vdp2.o (slOverRA)
D:/joengine-master/Compiler/COMMON/SGL_302j/LIB_ELF/LIBSGL.A(sglB048.o)
                              D:/joengine-master/jo_engine/vdp2.o (slOverRB)
D:/joengine-master/Compiler/COMMON/SGL_302j/LIB_ELF/LIBSGL.A(sglB055.o)
                              D:/joengine-master/jo_engine/vdp2.o (slPlaneNbg0)
D:/joengine-master/Compiler/COMMON/SGL_302j/LIB_ELF/LIBSGL.A(sglB056.o)
                              D:/joengine-master/jo_engine/vdp2.o (slPlaneNbg1)
D:/joengine-master/Compiler/COMMON/SGL_302j/LIB_ELF/LIBSGL.A(sglB057.o)
                              D:/joengine-master/jo_engine/vdp2.o (slPlaneNbg2)
D:/joengine-master/Compiler/COMMON/SGL_302j/LIB_ELF/LIBSGL.A(sglB058.o)
                              D:/joengine-master/jo_engine/vdp2.o (slPlaneNbg3)
D:/joengine-master/Compiler/COMMON/SGL_302j/LIB_ELF/LIBSGL.A(sglB059.o)
                              D:/joengine-master/jo_engine/vdp2.o (slPlaneRA)
D:/joengine-master/Compiler/COMMON/SGL_302j/LIB_ELF/LIBSGL.A(sglB060.o)
                              D:/joengine-master/jo_engine/vdp2.o (slPlaneRB)
D:/joengine-master/Compiler/COMMON/SGL_302j/LIB_ELF/LIBSGL.A(sglB063.o)
                              D:/joengine-master/jo_engine/core.o (slPriority)
D:/joengine-master/Compiler/COMMON/SGL_302j/LIB_ELF/LIBSGL.A(sglB087.o)
                              D:/joengine-master/jo_engine/vdp2.o (slLineScrollTable0)
D:/joengine-master/Compiler/COMMON/SGL_302j/LIB_ELF/LIBSGL.A(sglB088.o)
                              D:/joengine-master/jo_engine/vdp2.o (slLineScrollTable1)
D:/joengine-master/Compiler/COMMON/SGL_302j/LIB_ELF/LIBSGL.A(sglB090.o)
                              D:/joengine-master/jo_engine/vdp2.o (slLineScrollMode)
D:/joengine-master/Compiler/COMMON/SGL_302j/LIB_ELF/LIBSGL.A(sglB200.o)
                              D:/joengine-master/jo_engine/vdp2.o (slCharNbg0)
D:/joengine-master/Compiler/COMMON/SGL_302j/LIB_ELF/LIBSGL.A(sglC01.o)
                              main.o (slPerspective)
D:/joengine-master/Compiler/COMMON/SGL_302j/LIB_ELF/LIBSGL.A(sglC03.o)
                              main.o (slWindow)
D:/joengine-master/Compiler/COMMON/SGL_302j/LIB_ELF/LIBSGL.A(sglC04.o)
                              main.o (slZdspLevel)
D:/joengine-master/Compiler/COMMON/SGL_302j/LIB_ELF/LIBSGL.A(sglC05.o)
                              D:/joengine-master/jo_engine/sprites.o (slSetSprite)
D:/joengine-master/Compiler/COMMON/SGL_302j/LIB_ELF/LIBSGL.A(sglC06.o)
                              D:/joengine-master/jo_engine/sprites.o (slDispSprite)
D:/joengine-master/Compiler/COMMON/SGL_302j/LIB_ELF/LIBSGL.A(sglC07.o)
                              main.o (slPutSprite)
D:/joengine-master/Compiler/COMMON/SGL_302j/LIB_ELF/LIBSGL.A(sglC08.o)
                              main.o (slPutPolygon)
D:/joengine-master/Compiler/COMMON/SGL_302j/LIB_ELF/LIBSGL.A(sglC14.o)
                              main.o (slCurWindow)
D:/joengine-master/Compiler/COMMON/SGL_302j/LIB_ELF/LIBSGL.A(sglC16.o)
                              main.o (slDynamicFrame)
D:/joengine-master/Compiler/COMMON/SGL_302j/LIB_ELF/LIBSGL.A(sglC17.o)
                              D:/joengine-master/jo_engine/sprites.o (slDispSpriteHV)
D:/joengine-master/Compiler/COMMON/SGL_302j/LIB_ELF/LIBSGL.A(sglC19.o)
                              D:/joengine-master/jo_engine/sprites.o (slDispSprite4P)
D:/joengine-master/Compiler/COMMON/SGL_302j/LIB_ELF/LIBSGL.A(sglC20.o)
                              D:/joengine-master/Compiler/COMMON/SGL_302j/LIB_ELF/LIBSGL.A(sglC05.o) (SpriteEntry)
D:/joengine-master/Compiler/COMMON/SGL_302j/LIB_ELF/LIBSGL.A(sglC21.o)
                              D:/joengine-master/Compiler/COMMON/SGL_302j/LIB_ELF/LIBSGL.A(sglC17.o) (RotSprite)
D:/joengine-master/Compiler/COMMON/SGL_302j/LIB_ELF/LIBSGL.A(sglD00.o)
                              main.o (slDMACopy)
D:/joengine-master/Compiler/COMMON/SGL_302j/LIB_ELF/LIBSGL.A(sglD01.o)
                              D:/joengine-master/Compiler/COMMON/SGL_302j/LIB_ELF/LIBCD.A(GFS_TRN.O) (slDMAXCopy)
D:/joengine-master/Compiler/COMMON/SGL_302j/LIB_ELF/LIBSGL.A(sglD02.o)
                              pcmsys.o (slDMAWait)
D:/joengine-master/Compiler/COMMON/SGL_302j/LIB_ELF/LIBSGL.A(sglD03.o)
                              D:/joengine-master/Compiler/COMMON/SGL_302j/LIB_ELF/LIBCD.A(GFS_TRN.O) (slDMAStatus)
D:/joengine-master/Compiler/COMMON/SGL_302j/LIB_ELF/LIBSGL.A(sglD15.o)
                              D:/joengine-master/Compiler/COMMON/SGL_302j/LIB_ELF/LIBCD.A(GFS_TRN.O) (CSH_Purge)
D:/joengine-master/Compiler/COMMON/SGL_302j/LIB_ELF/LIBSGL.A(sglD16.o)
                              D:/joengine-master/Compiler/COMMON/SGL_302j/LIB_ELF/LIBCD.A(GFS_TRN.O) (DMA_ScuSetPrm)
D:/joengine-master/Compiler/COMMON/SGL_302j/LIB_ELF/LIBSGL.A(sglD17.o)
                              D:/joengine-master/Compiler/COMMON/SGL_302j/LIB_ELF/LIBCD.A(GFS_TRN.O) (DMA_ScuStart)
D:/joengine-master/Compiler/COMMON/SGL_302j/LIB_ELF/LIBSGL.A(sglD18.o)
                              D:/joengine-master/Compiler/COMMON/SGL_302j/LIB_ELF/LIBCD.A(GFS_TRN.O) (DMA_ScuGetStatus)
D:/joengine-master/Compiler/COMMON/SGL_302j/LIB_ELF/LIBSGL.A(sglF08.o)
                              main.o (slDec2Hex)
D:/joengine-master/Compiler/COMMON/SGL_302j/LIB_ELF/LIBSGL.A(sglH00.o)
                              main.o (slRequestCommand)
D:/joengine-master/Compiler/COMMON/SGL_302j/LIB_ELF/LIBSGL.A(sglH01.o)
                              D:/joengine-master/jo_engine/tools.o (slGetLanguage)
D:/joengine-master/Compiler/COMMON/SGL_302j/LIB_ELF/LIBSGL.A(sglH02.o)
                              D:/joengine-master/Compiler/COMMON/SGL_302j/LIB_ELF/LIBSGL.A(sglH00.o) (smpc_pfr_tbl)
D:/joengine-master/Compiler/COMMON/SGL_302j/LIB_ELF/LIBSGL.A(sglH04.o)
                              D:/joengine-master/Compiler/COMMON/SGL_302j/LIB_ELF/LIBSGL.A(sglH00.o) (slComPrmIntBack)
D:/joengine-master/Compiler/COMMON/SGL_302j/LIB_ELF/LIBSGL.A(sglI01.o)
                              main.o (slSynch)
D:/joengine-master/Compiler/COMMON/SGL_302j/LIB_ELF/LIBSGL.A(sglI04.o)
                              main.o (slIntFunction)
D:/joengine-master/Compiler/COMMON/SGL_302j/LIB_ELF/LIBSGL.A(sglIc0.o)
                              D:/joengine-master/jo_engine/core.o (slInitSystem)
D:/joengine-master/Compiler/COMMON/SGL_302j/LIB_ELF/LIBSGL.A(sglJ00.o)
                              D:/joengine-master/Compiler/COMMON/SGL_302j/LIB_ELF/LIBSGL.A(sglIc0.o) (InitSlaveSH)
D:/joengine-master/Compiler/COMMON/SGL_302j/LIB_ELF/LIBSGL.A(sglJ01.o)
                              D:/joengine-master/Compiler/COMMON/SGL_302j/LIB_ELF/LIBSGL.A(sglIc0.o) (SlaveControl)
D:/joengine-master/Compiler/COMMON/SGL_302j/LIB_ELF/LIBSGL.A(sglJ02.o)
                              D:/joengine-master/Compiler/COMMON/SGL_302j/LIB_ELF/LIBSGL.A(sglJ01.o) (sbMakePolygon)
D:/joengine-master/Compiler/COMMON/SGL_302j/LIB_ELF/LIBSGL.A(sglJ03.o)
                              D:/joengine-master/Compiler/COMMON/SGL_302j/LIB_ELF/LIBSGL.A(sglJ01.o) (sbMakeDMATable)
D:/joengine-master/Compiler/COMMON/SGL_302j/LIB_ELF/LIBSGL.A(sglJ04.o)
                              D:/joengine-master/Compiler/COMMON/SGL_302j/LIB_ELF/LIBSGL.A(sglJ01.o) (sbMakeSprite)
D:/joengine-master/Compiler/COMMON/SGL_302j/LIB_ELF/LIBSGL.A(sglJ05.o)
                              D:/joengine-master/Compiler/COMMON/SGL_302j/LIB_ELF/LIBSGL.A(sglJ01.o) (sbSortEntry)
D:/joengine-master/Compiler/COMMON/SGL_302j/LIB_ELF/LIBSGL.A(sglK01.o)
                              main.o (SynchConst)
D:/joengine-master/Compiler/COMMON/SGL_302j/LIB_ELF/LIBSGL.A(sglM00.o)
                              main.o (slInitGouraud)
D:/joengine-master/Compiler/COMMON/SGL_302j/LIB_ELF/LIBSGL.A(sglM01.o)
                              main.o (slSetDepthLimit)
D:/joengine-master/Compiler/COMMON/SGL_302j/LIB_ELF/LIBSGL.A(sglA00.o)
                              D:/joengine-master/Compiler/COMMON/SGL_302j/LIB_ELF/LIBSGL.A(sglIc0.o) (_builtin_set_imask)
D:/joengine-master/Compiler/COMMON/SGL_302j/LIB_ELF/LIBSGL.A(sglA03.o)
                              D:/joengine-master/Compiler/COMMON/SGL_302j/LIB_ELF/LIBSGL.A(sglC01.o) (slTan)
D:/joengine-master/Compiler/COMMON/SGL_302j/LIB_ELF/LIBSGL.A(sglA10.o)
                              D:/joengine-master/Compiler/COMMON/SGL_302j/LIB_ELF/LIBSGL.A(sglA16.o) (slSquartDbl)
D:/joengine-master/Compiler/COMMON/SGL_302j/LIB_ELF/LIBSGL.A(sglA24.o)
                              D:/joengine-master/Compiler/COMMON/SGL_302j/LIB_ELF/LIBSGL.A(sglB045.o) (slInversMatrix)
D:/joengine-master/Compiler/COMMON/SGL_302j/LIB_ELF/LIBSGL.A(sglA25.o)
                              D:/joengine-master/Compiler/COMMON/SGL_302j/LIB_ELF/LIBSGL.A(sglM00.o) (slTransposeMatrix)
D:/joengine-master/Compiler/COMMON/SGL_302j/LIB_ELF/LIBSGL.A(sglB000.o)
                              D:/joengine-master/Compiler/COMMON/SGL_302j/LIB_ELF/LIBSGL.A(sglIc0.o) (slInitScroll)
D:/joengine-master/Compiler/COMMON/SGL_302j/LIB_ELF/LIBSGL.A(sglC00.o)
                              D:/joengine-master/Compiler/COMMON/SGL_302j/LIB_ELF/LIBSGL.A(sglIc0.o) (slInitSprite)
D:/joengine-master/Compiler/COMMON/SGL_302j/LIB_ELF/LIBSGL.A(sglC13.o)
                              D:/joengine-master/Compiler/COMMON/SGL_302j/LIB_ELF/LIBSGL.A(sglM00.o) (slPutPolygonS)
D:/joengine-master/Compiler/COMMON/SGL_302j/LIB_ELF/LIBSGL.A(sglD19.o)
                              D:/joengine-master/Compiler/COMMON/SGL_302j/LIB_ELF/LIBSGL.A(sglM00.o) (DMA_ScuMemCopy)
D:/joengine-master/Compiler/COMMON/SGL_302j/LIB_ELF/LIBSGL.A(sglI00.o)
                              D:/joengine-master/Compiler/COMMON/SGL_302j/LIB_ELF/LIBSGL.A(sglIc0.o) (slInitInterrupt)
D:/joengine-master/Compiler/COMMON/SGL_302j/LIB_ELF/LIBSGL.A(sglH03.o)
                              D:/joengine-master/Compiler/COMMON/SGL_302j/LIB_ELF/LIBSGL.A(sglI00.o) (slSmpcIntBack)
d:/joengine-master/compiler/windows/bin/../lib/gcc/sh-elf/9.3.0\libgcc.a(_ashiftrt.o)
                              D:/joengine-master/jo_engine/time.o (__ashiftrt_r4_6)
d:/joengine-master/compiler/windows/bin/../lib/gcc/sh-elf/9.3.0\libgcc.a(_ashiftrt_n.o)
                              pcmsys.o (__ashrsi3)
d:/joengine-master/compiler/windows/bin/../lib/gcc/sh-elf/9.3.0\libgcc.a(_ashiftlt.o)
                              D:/joengine-master/jo_engine/math.o (__ashlsi3_r0)
d:/joengine-master/compiler/windows/bin/../lib/gcc/sh-elf/9.3.0\libgcc.a(_lshiftrt.o)
                              D:/joengine-master/jo_engine/sprites.o (__lshrsi3_r0)
d:/joengine-master/compiler/windows/bin/../lib/gcc/sh-elf/9.3.0\libgcc.a(_movmem.o)
                              main.o (__movmemSI12)
d:/joengine-master/compiler/windows/bin/../lib/gcc/sh-elf/9.3.0\libgcc.a(_sdivsi3.o)
                              main.o (__sdivsi3)
d:/joengine-master/compiler/windows/bin/../lib/gcc/sh-elf/9.3.0\libgcc.a(_udivsi3.o)
                              D:/joengine-master/jo_engine/fs.o (__udivsi3)
d:/joengine-master/compiler/windows/bin/../lib/gcc/sh-elf/9.3.0\libgcc.a(_addsub_sf.o)
                              main.o (__addsf3)
d:/joengine-master/compiler/windows/bin/../lib/gcc/sh-elf/9.3.0\libgcc.a(_mul_sf.o)
                              main.o (__mulsf3)
d:/joengine-master/compiler/windows/bin/../lib/gcc/sh-elf/9.3.0\libgcc.a(_div_sf.o)
                              collision.o (__divsf3)
d:/joengine-master/compiler/windows/bin/../lib/gcc/sh-elf/9.3.0\libgcc.a(_eq_sf.o)
                              main.o (__eqsf2)
d:/joengine-master/compiler/windows/bin/../lib/gcc/sh-elf/9.3.0\libgcc.a(_ne_sf.o)
                              main.o (__nesf2)
d:/joengine-master/compiler/windows/bin/../lib/gcc/sh-elf/9.3.0\libgcc.a(_gt_sf.o)
                              main.o (__gtsf2)
d:/joengine-master/compiler/windows/bin/../lib/gcc/sh-elf/9.3.0\libgcc.a(_ge_sf.o)
                              main.o (__gesf2)
d:/joengine-master/compiler/windows/bin/../lib/gcc/sh-elf/9.3.0\libgcc.a(_lt_sf.o)
                              main.o (__ltsf2)
d:/joengine-master/compiler/windows/bin/../lib/gcc/sh-elf/9.3.0\libgcc.a(_le_sf.o)
                              main.o (__lesf2)
d:/joengine-master/compiler/windows/bin/../lib/gcc/sh-elf/9.3.0\libgcc.a(_si_to_sf.o)
                              main.o (__floatsisf)
d:/joengine-master/compiler/windows/bin/../lib/gcc/sh-elf/9.3.0\libgcc.a(_sf_to_si.o)
                              main.o (__fixsfsi)
d:/joengine-master/compiler/windows/bin/../lib/gcc/sh-elf/9.3.0\libgcc.a(_sf_to_df.o)
                              main.o (__extendsfdf2)
d:/joengine-master/compiler/windows/bin/../lib/gcc/sh-elf/9.3.0\libgcc.a(_thenan_sf.o)
                              d:/joengine-master/compiler/windows/bin/../lib/gcc/sh-elf/9.3.0\libgcc.a(_addsub_sf.o) (__thenan_sf)
d:/joengine-master/compiler/windows/bin/../lib/gcc/sh-elf/9.3.0\libgcc.a(_usi_to_sf.o)
                              main.o (__floatunsisf)
d:/joengine-master/compiler/windows/bin/../lib/gcc/sh-elf/9.3.0\libgcc.a(_addsub_df.o)
                              main.o (__adddf3)
d:/joengine-master/compiler/windows/bin/../lib/gcc/sh-elf/9.3.0\libgcc.a(_mul_df.o)
                              main.o (__muldf3)
d:/joengine-master/compiler/windows/bin/../lib/gcc/sh-elf/9.3.0\libgcc.a(_si_to_df.o)
                              main.o (__floatsidf)
d:/joengine-master/compiler/windows/bin/../lib/gcc/sh-elf/9.3.0\libgcc.a(_df_to_si.o)
                              main.o (__fixdfsi)
d:/joengine-master/compiler/windows/bin/../lib/gcc/sh-elf/9.3.0\libgcc.a(_make_df.o)
                              d:/joengine-master/compiler/windows/bin/../lib/gcc/sh-elf/9.3.0\libgcc.a(_sf_to_df.o) (__make_dp)
d:/joengine-master/compiler/windows/bin/../lib/gcc/sh-elf/9.3.0\libgcc.a(_df_to_sf.o)
                              main.o (__truncdfsf2)
d:/joengine-master/compiler/windows/bin/../lib/gcc/sh-elf/9.3.0\libgcc.a(_thenan_df.o)
                              d:/joengine-master/compiler/windows/bin/../lib/gcc/sh-elf/9.3.0\libgcc.a(_addsub_df.o) (__thenan_df)
d:/joengine-master/compiler/windows/bin/../lib/gcc/sh-elf/9.3.0\libgcc.a(_clzsi2.o)
                              d:/joengine-master/compiler/windows/bin/../lib/gcc/sh-elf/9.3.0\libgcc.a(_si_to_sf.o) (__clzsi2)
d:/joengine-master/compiler/windows/bin/../lib/gcc/sh-elf/9.3.0\libgcc.a(_pack_sf.o)
                              d:/joengine-master/compiler/windows/bin/../lib/gcc/sh-elf/9.3.0\libgcc.a(_addsub_sf.o) (__pack_f)
d:/joengine-master/compiler/windows/bin/../lib/gcc/sh-elf/9.3.0\libgcc.a(_unpack_sf.o)
                              d:/joengine-master/compiler/windows/bin/../lib/gcc/sh-elf/9.3.0\libgcc.a(_addsub_sf.o) (__unpack_f)
d:/joengine-master/compiler/windows/bin/../lib/gcc/sh-elf/9.3.0\libgcc.a(_fpcmp_parts_sf.o)
                              d:/joengine-master/compiler/windows/bin/../lib/gcc/sh-elf/9.3.0\libgcc.a(_eq_sf.o) (__fpcmp_parts_f)
d:/joengine-master/compiler/windows/bin/../lib/gcc/sh-elf/9.3.0\libgcc.a(_make_sf.o)
                              d:/joengine-master/compiler/windows/bin/../lib/gcc/sh-elf/9.3.0\libgcc.a(_df_to_sf.o) (__make_fp)
d:/joengine-master/compiler/windows/bin/../lib/gcc/sh-elf/9.3.0\libgcc.a(_pack_df.o)
                              d:/joengine-master/compiler/windows/bin/../lib/gcc/sh-elf/9.3.0\libgcc.a(_addsub_df.o) (__pack_d)
d:/joengine-master/compiler/windows/bin/../lib/gcc/sh-elf/9.3.0\libgcc.a(_unpack_df.o)
                              d:/joengine-master/compiler/windows/bin/../lib/gcc/sh-elf/9.3.0\libgcc.a(_addsub_df.o) (__unpack_d)
d:/joengine-master/compiler/windows/bin/../lib/gcc/sh-elf/9.3.0\libgcc.a(_clz.o)
                              d:/joengine-master/compiler/windows/bin/../lib/gcc/sh-elf/9.3.0\libgcc.a(_clzsi2.o) (__clz_tab)
d:/joengine-master/compiler/windows/bin/../lib/gcc/sh-elf/9.3.0/../../../../sh-elf/lib\libc.a(lib_a-impure.o)
                              net/mmm_net.o (_impure_ptr)
d:/joengine-master/compiler/windows/bin/../lib/gcc/sh-elf/9.3.0/../../../../sh-elf/lib\libc.a(lib_a-memcmp.o)
                              D:/joengine-master/Compiler/COMMON/SGL_302j/LIB_ELF/LIBCD.A(GFS.O) (memcmp)
d:/joengine-master/compiler/windows/bin/../lib/gcc/sh-elf/9.3.0/../../../../sh-elf/lib\libc.a(lib_a-memcpy.o)
                              main.o (memcpy)
d:/joengine-master/compiler/windows/bin/../lib/gcc/sh-elf/9.3.0/../../../../sh-elf/lib\libc.a(lib_a-memset.o)
                              net/mmm_net.o (memset)
d:/joengine-master/compiler/windows/bin/../lib/gcc/sh-elf/9.3.0/../../../../sh-elf/lib\libc.a(lib_a-rand.o)
                              main.o (srand)
d:/joengine-master/compiler/windows/bin/../lib/gcc/sh-elf/9.3.0/../../../../sh-elf/lib\libc.a(lib_a-rget.o)
                              net/mmm_net.o (__srget_r)
d:/joengine-master/compiler/windows/bin/../lib/gcc/sh-elf/9.3.0/../../../../sh-elf/lib\libc.a(lib_a-sprintf.o)
                              main.o (sprintf)
d:/joengine-master/compiler/windows/bin/../lib/gcc/sh-elf/9.3.0/../../../../sh-elf/lib\libc.a(lib_a-strcat.o)
                              main.o (strcat)
d:/joengine-master/compiler/windows/bin/../lib/gcc/sh-elf/9.3.0/../../../../sh-elf/lib\libc.a(lib_a-strcmp.o)
                              main.o (strcmp)
d:/joengine-master/compiler/windows/bin/../lib/gcc/sh-elf/9.3.0/../../../../sh-elf/lib\libc.a(lib_a-strcpy.o)
                              main.o (strcpy)
d:/joengine-master/compiler/windows/bin/../lib/gcc/sh-elf/9.3.0/../../../../sh-elf/lib\libc.a(lib_a-strlen.o)
                              main.o (strlen)
d:/joengine-master/compiler/windows/bin/../lib/gcc/sh-elf/9.3.0/../../../../sh-elf/lib\libc.a(lib_a-strncmp.o)
                              D:/joengine-master/Compiler/COMMON/SGL_302j/LIB_ELF/LIBCD.A(GFS_DIR.O) (strncmp)
d:/joengine-master/compiler/windows/bin/../lib/gcc/sh-elf/9.3.0/../../../../sh-elf/lib\libc.a(lib_a-strncpy.o)
                              D:/joengine-master/Compiler/COMMON/SGL_302j/LIB_ELF/LIBCD.A(GFS_DIR.O) (strncpy)
d:/joengine-master/compiler/windows/bin/../lib/gcc/sh-elf/9.3.0/../../../../sh-elf/lib\libc.a(lib_a-strstr.o)
                              main.o (strstr)
d:/joengine-master/compiler/windows/bin/../lib/gcc/sh-elf/9.3.0/../../../../sh-elf/lib\libc.a(lib_a-wbuf.o)
                              net/mmm_net.o (__swbuf_r)
d:/joengine-master/compiler/windows/bin/../lib/gcc/sh-elf/9.3.0/../../../../sh-elf/lib\libc.a(lib_a-wsetup.o)
                              d:/joengine-master/compiler/windows/bin/../lib/gcc/sh-elf/9.3.0/../../../../sh-elf/lib\libc.a(lib_a-wbuf.o) (__swsetup_r)
d:/joengine-master/compiler/windows/bin/../lib/gcc/sh-elf/9.3.0/../../../../sh-elf/lib\libc.a(lib_a-fflush.o)
                              d:/joengine-master/compiler/windows/bin/../lib/gcc/sh-elf/9.3.0/../../../../sh-elf/lib\libc.a(lib_a-wbuf.o) (_fflush_r)
d:/joengine-master/compiler/windows/bin/../lib/gcc/sh-elf/9.3.0/../../../../sh-elf/lib\libc.a(lib_a-findfp.o)
                              d:/joengine-master/compiler/windows/bin/../lib/gcc/sh-elf/9.3.0/../../../../sh-elf/lib\libc.a(lib_a-rget.o) (__sinit)
d:/joengine-master/compiler/windows/bin/../lib/gcc/sh-elf/9.3.0/../../../../sh-elf/lib\libc.a(lib_a-fwalk.o)
                              d:/joengine-master/compiler/windows/bin/../lib/gcc/sh-elf/9.3.0/../../../../sh-elf/lib\libc.a(lib_a-fflush.o) (_fwalk_reent)
d:/joengine-master/compiler/windows/bin/../lib/gcc/sh-elf/9.3.0/../../../../sh-elf/lib\libc.a(lib_a-makebuf.o)
                              d:/joengine-master/compiler/windows/bin/../lib/gcc/sh-elf/9.3.0/../../../../sh-elf/lib\libc.a(lib_a-wsetup.o) (__smakebuf_r)
d:/joengine-master/compiler/windows/bin/../lib/gcc/sh-elf/9.3.0/../../../../sh-elf/lib\libc.a(lib_a-nano-svfprintf.o)
                              d:/joengine-master/compiler/windows/bin/../lib/gcc/sh-elf/9.3.0/../../../../sh-elf/lib\libc.a(lib_a-sprintf.o) (_svfprintf_r)
d:/joengine-master/compiler/windows/bin/../lib/gcc/sh-elf/9.3.0/../../../../sh-elf/lib\libc.a(lib_a-nano-vfprintf_i.o)
                              d:/joengine-master/compiler/windows/bin/../lib/gcc/sh-elf/9.3.0/../../../../sh-elf/lib\libc.a(lib_a-nano-svfprintf.o) (_printf_i)
d:/joengine-master/compiler/windows/bin/../lib/gcc/sh-elf/9.3.0/../../../../sh-elf/lib\libc.a(lib_a-refill.o)
                              d:/joengine-master/compiler/windows/bin/../lib/gcc/sh-elf/9.3.0/../../../../sh-elf/lib\libc.a(lib_a-rget.o) (__srefill_r)
d:/joengine-master/compiler/windows/bin/../lib/gcc/sh-elf/9.3.0/../../../../sh-elf/lib\libc.a(lib_a-stdio.o)
                              d:/joengine-master/compiler/windows/bin/../lib/gcc/sh-elf/9.3.0/../../../../sh-elf/lib\libc.a(lib_a-findfp.o) (__sread)
d:/joengine-master/compiler/windows/bin/../lib/gcc/sh-elf/9.3.0/../../../../sh-elf/lib\libc.a(lib_a-writer.o)
                              d:/joengine-master/compiler/windows/bin/../lib/gcc/sh-elf/9.3.0/../../../../sh-elf/lib\libc.a(lib_a-stdio.o) (_write_r)
d:/joengine-master/compiler/windows/bin/../lib/gcc/sh-elf/9.3.0/../../../../sh-elf/lib\libc.a(lib_a-closer.o)
                              d:/joengine-master/compiler/windows/bin/../lib/gcc/sh-elf/9.3.0/../../../../sh-elf/lib\libc.a(lib_a-stdio.o) (_close_r)
d:/joengine-master/compiler/windows/bin/../lib/gcc/sh-elf/9.3.0/../../../../sh-elf/lib\libc.a(lib_a-fstatr.o)
                              d:/joengine-master/compiler/windows/bin/../lib/gcc/sh-elf/9.3.0/../../../../sh-elf/lib\libc.a(lib_a-makebuf.o) (_fstat_r)
d:/joengine-master/compiler/windows/bin/../lib/gcc/sh-elf/9.3.0/../../../../sh-elf/lib\libc.a(lib_a-isattyr.o)
                              d:/joengine-master/compiler/windows/bin/../lib/gcc/sh-elf/9.3.0/../../../../sh-elf/lib\libc.a(lib_a-makebuf.o) (_isatty_r)
d:/joengine-master/compiler/windows/bin/../lib/gcc/sh-elf/9.3.0/../../../../sh-elf/lib\libc.a(lib_a-lseekr.o)
                              d:/joengine-master/compiler/windows/bin/../lib/gcc/sh-elf/9.3.0/../../../../sh-elf/lib\libc.a(lib_a-stdio.o) (_lseek_r)
d:/joengine-master/compiler/windows/bin/../lib/gcc/sh-elf/9.3.0/../../../../sh-elf/lib\libc.a(lib_a-memchr.o)
                              d:/joengine-master/compiler/windows/bin/../lib/gcc/sh-elf/9.3.0/../../../../sh-elf/lib\libc.a(lib_a-nano-svfprintf.o) (memchr)
d:/joengine-master/compiler/windows/bin/../lib/gcc/sh-elf/9.3.0/../../../../sh-elf/lib\libc.a(lib_a-memmove.o)
                              d:/joengine-master/compiler/windows/bin/../lib/gcc/sh-elf/9.3.0/../../../../sh-elf/lib\libc.a(lib_a-nano-svfprintf.o) (memmove)
d:/joengine-master/compiler/windows/bin/../lib/gcc/sh-elf/9.3.0/../../../../sh-elf/lib\libc.a(lib_a-readr.o)
                              d:/joengine-master/compiler/windows/bin/../lib/gcc/sh-elf/9.3.0/../../../../sh-elf/lib\libc.a(lib_a-stdio.o) (_read_r)
d:/joengine-master/compiler/windows/bin/../lib/gcc/sh-elf/9.3.0/../../../../sh-elf/lib\libc.a(lib_a-reent.o)
                              d:/joengine-master/compiler/windows/bin/../lib/gcc/sh-elf/9.3.0/../../../../sh-elf/lib\libc.a(lib_a-writer.o) (errno)

Allocating common symbols
Common symbol       size              file

GFMC_base           0x4               D:/joengine-master/Compiler/COMMON/SGL_302j/LIB_ELF/LIBCD.A(GFS.O)
gfs_mng_ptr         0x4               D:/joengine-master/Compiler/COMMON/SGL_302j/LIB_ELF/LIBCD.A(GFS.O)
gfcf_fad            0x4               D:/joengine-master/Compiler/COMMON/SGL_302j/LIB_ELF/LIBCD.A(GFS_CDF.O)
gfcd_fatal_err      0x4               D:/joengine-master/Compiler/COMMON/SGL_302j/LIB_ELF/LIBCD.A(GFS_CDC.O)
gfs_use_scudma      0x4               D:/joengine-master/Compiler/COMMON/SGL_302j/LIB_ELF/LIBCD.A(GFS.O)
errno               0x4               d:/joengine-master/compiler/windows/bin/../lib/gcc/sh-elf/9.3.0/../../../../sh-elf/lib\libc.a(lib_a-reent.o)
gfcd_work           0x4               D:/joengine-master/Compiler/COMMON/SGL_302j/LIB_ELF/LIBCD.A(GFS_CDC.O)
gfcf_stat           0x4               D:/joengine-master/Compiler/COMMON/SGL_302j/LIB_ELF/LIBCD.A(GFS_CDF.O)
gfcd_playflag       0x4               D:/joengine-master/Compiler/COMMON/SGL_302j/LIB_ELF/LIBCD.A(GFS_CDC.O)

Memory Configuration

Name             Origin             Length             Attributes
*default*        0x00000000         0xffffffff

Linker script and memory map


SLSTART         0x06004000       0x30
                0x06004000                ___Start = .
 *(SLSTART)
 SLSTART        0x06004000       0x28 D:/joengine-master/Compiler/COMMON/SGL_302j/LIB_ELF/LIBSGL.A(sglI00.o)
                0x06004000                SGL_Start
                0x06004002                slStartSGL

.text           0x06004040    0x23310
 *(.text)
 .text          0x06004040        0x0 D:/joengine-master/Compiler/COMMON/SGL_302j/LIB_ELF/SGLAREA.O
 .text          0x06004040     0xdcf8 main.o
                0x06004040                my_vblank
                0x06004ed4                mmm_set_game_state
                0x06004ee0                mmm_get_game_state
                0x06004eec                mmm_get_p2_port
                0x06004f2c                mmm_set_player_net_info
                0x06004f4c                mmm_diag_race_state
                0x06005310                ztClearText
                0x06005350                count_char
                0x06005360                render_CLUT_sprite_HT
                0x060053b0                render_CLUT_sprite
                0x06005400                render_CLUT_sprite_MESH
                0x06005450                render_CLUT_sprite2
                0x060054c4                replace_texture
                0x06005500                change_player_volume
                0x060055b0                stop_engine_sound
                0x0600561c                stop_sounds
                0x0600569c                init_2p_display
                0x0600572c                init_1p_display
                0x060057b4                effect
                0x06005830                create_checkpoint
                0x0600584c                create_waypoint
                0x0600586c                roundUp
                0x060058b0                animate_texture
                0x06005900                apply_player_gravity
                0x06005954                getTime
                0x060059b4                getSeconds
                0x06005a04                reset_demo
                0x06005bf0                reset_to_last_checkpoint
                0x06005ce8                player_jump
                0x06005d0c                player_high_bounce
                0x06005d4c                player_bounce
                0x06005d8c                player_ramp_jump
                0x06005df0                pup_timer_counter
                0x06005e9c                player_hurt
                0x06005efc                set_player_position
                0x06006000                set_player_total_position
                0x06006060                transition_to_end_level
                0x06006190                race_ended
                0x060061b0                player_collision_handling
                0x06007c60                create_enemy
                0x06007d34                create_powerup
                0x06007d5c                create_player
                0x06007f44                create_map_section
                0x06007f80                computeLight
                0x06007ff4                create_particles
                0x0600809c                create_clouds
                0x0600812c                animate_player
                0x06008294                draw_powerups
                0x06008398                draw_player
                0x06009080                map_builder_draw_section
                0x06009560                map_builder_draw_powerup
                0x060096b8                draw_walls
                0x060096e4                draw_map
                0x06009850                draw_hud
                0x0600a298                move_camera
                0x0600a87c                race_start
                0x0600ab14                my_draw
                0x0600b204                load_car
                0x0600b37c                load_binary
                0x0600bc88                load_textures
                0x0600bd7c                load_level
                0x0600be88                load_preview
                0x0600bf18                load_trackmap
                0x0600bfa8                set_palette
                0x0600bfc4                change_player_palette
                0x0600c0bc                transition_to_title_screen
                0x0600c124                transition_to_player_select
                0x0600c2a4                transition_to_level_select
                0x0600c394                clear_level
                0x0600c3e8                menu
                0x0600c578                object_viewer
                0x0600c9dc                pause_game
                0x0600ccdc                attract_mode
                0x0600cce0                title_screen
                0x0600d0c4                init_display
                0x0600d138                cpu_control
                0x0600d320                my_gamepad
                0x0600e3dc                load_background
                0x0600e41c                draw_3d_planes
                0x0600e7c0                init_3d_planes
                0x0600e934                mmm_online_start_race
                0x0600ed30                load_hud
                0x0600ed68                load_4bits_car_textures
                0x0600edf0                load_4bits_player_textures
                0x0600efb0                total_table
                0x0600f104                race_table
                0x0600f314                end_level
                0x0600fa14                extra_select
                0x0600fafc                player_select
                0x06010f9c                level_select
                0x060115d0                gameLoop
                0x060117f0                load_player_and_enemies
                0x0601183c                load_sound
                0x06011a6e                load_nbg2_font
                0x06011acc                jo_main
 .text          0x06011d38      0x618 collision.o
                0x06011d8e                Lerp
                0x06011dc4                has_collision
                0x06011e3a                has_horizontal_collision
                0x06011ed8                has_vertical_collision
                0x06011f72                has_ramp_collision
                0x06012134                has_trigger_collision
                0x060121c0                has_shadow_collision
                0x0601223a                has_ceiling_collision
                0x060122dc                has_object_collision
 .text          0x06012350      0x7cc pcmsys.o
                0x060123a6                pcm_play
                0x060123cc                pcm_parameter_change
                0x060123ec                pcm_cease
                0x06012414                cd_init
                0x0601244c                smpc_wait_till_ready
                0x0601245c                smpc_issue_command
                0x06012470                load_driver_binary
                0x06012590                load_drv
                0x060125dc                calculate_bytes_per_blank
                0x0601260c                convert_bitrate_to_pitchword
                0x06012668                load_16bit_pcm
                0x0601278c                load_8bit_pcm
                0x060128ac                gcd
                0x060128dc                lcm
                0x0601290c                load_adx
                0x06012a90                sdrv_vblank_rq
                0x06012aa0                CDDASetVolume
                0x06012ab4                CDDAPlay
                0x06012af4                CDDAPlaySingle
                0x06012b00                CDDAStop
 .text          0x06012b1c      0x69c name_entry.o
                0x06012c5a                name_entry_init
                0x06012c68                name_entry_screen
 .text          0x060131b8     0x1260 connecting.o
                0x06013fd4                connecting_init
                0x06013fe0                connecting_screen
 .text          0x06014418      0xc2c lobby.o
                0x060148f2                lobby_init
                0x06014900                lobby_screen
 .text          0x06015044     0x1a40 net/mmm_net.o
                0x06015536                mnet_init
                0x060155b4                mnet_set_modem_available
                0x060155c0                mnet_set_transport
                0x060155cc                mnet_set_username
                0x060155f0                mnet_set_username_2
                0x06015620                mnet_get_state
                0x0601562c                mnet_log
                0x060156c4                mnet_clear_log
                0x060156ec                mnet_client_log
                0x06016294                mnet_enter_offline
                0x060162b0                mnet_on_connected
                0x0601636a                mnet_tick
                0x060164d0                mnet_send_input_state
                0x06016558                mnet_send_input_state_p2
                0x060165f0                mnet_send_player_state
                0x06016690                mnet_send_player_state_p2
                0x0601674c                mnet_send_lap_complete
                0x0601678c                mnet_send_powerup_pickup
                0x060167c8                mnet_send_ready_toggle
                0x06016808                mnet_request_start_game
                0x0601683c                mnet_send_car_select
                0x06016878                mnet_send_add_local_player
                0x060168ec                mnet_send_remove_local_player
                0x06016960                mnet_send_disconnect
                0x060169c0                mnet_request_leaderboard
                0x060169f4                mnet_get_remote_input
                0x06016a34                mnet_get_remote_state
                0x06016a68                mnet_get_powerup_type
 .text          0x06016a84      0x168 libc_stubs.o
                0x06016ada                malloc
                0x06016ae4                free
                0x06016af8                calloc
                0x06016b28                realloc
                0x06016b90                _malloc_r
                0x06016b9c                _free_r
                0x06016ba8                _calloc_r
                0x06016bb4                _realloc_r
                0x06016bc0                _sbrk
                0x06016bc4                _read
                0x06016bc8                _write
                0x06016bcc                _close
                0x06016bd0                _open
                0x06016bd4                _fstat
                0x06016bd8                _isatty
                0x06016bdc                _lseek
                0x06016be0                _kill
                0x06016be4                _getpid
                0x06016be8                _exit
 .text          0x06016bec      0xd50 D:/joengine-master/jo_engine/backup.o
                0x06016c42                jo_backup_get_free_block_count
                0x06016c64                jo_backup_get_total_block_count
                0x06016c88                jo_backup_format_device
                0x06016d20                jo_backup_mount
                0x06016e24                jo_backup_read_device
                0x06016f70                jo_backup_file_exists
                0x0601702c                jo_backup_get_file_partition
                0x060170e4                jo_backup_init_file
                0x06017124                jo_backup_save
                0x06017360                jo_backup_load_file_comment
                0x060173f4                jo_backup_load_file_contents
                0x06017564                jo_backup_delete_file
                0x06017670                jo_backup_unmount
                0x060176f0                jo_backup_get_file_last_modified_date
                0x060177d8                jo_backup_get_file_info
                0x060178e8                jo_backup_get_file_size
                0x06017908                jo_backup_get_last_status
 .text          0x0601793c      0x8cc D:/joengine-master/jo_engine/tga.o
                0x06017b62                jo_set_tga_default_palette
                0x06017b6c                jo_set_tga_palette_handling
                0x06017b78                __jo_tga_load
                0x06017c40                __jo_tga_any_loader_from_stream
                0x06017c8c                jo_tga_8bits_loader_from_stream
                0x06017ca4                jo_tga_loader_from_stream
                0x06017cbc                __jo_tga_any_loader
                0x06017d10                jo_tga_8bits_loader
                0x06017d2c                jo_tga_loader
                0x06017d48                jo_tga_8bits_tileset_loader
                0x06017f34                jo_sprite_add_tga_tileset
                0x06018128                jo_sprite_add_tga_from_stream
                0x0601817c                jo_sprite_add_tga
 .text          0x06018208      0x620 D:/joengine-master/jo_engine/3d.o
                0x0601825e                jo_3d_init
                0x0601828c                jo_3d_create_triangle
                0x060182cc                jo_3d_create_plane
                0x0601830c                jo_3d_create_mesh_from_vertices_and_normals
                0x060183fc                jo_3d_free_mesh
                0x06018420                jo_3d_create_cube
                0x0601847c                jo_3d_set_mesh_polygon_transparency
                0x0601849c                jo_3d_set_mesh_transparency
                0x060184d4                jo_3d_set_mesh_polygon_screen_doors
                0x060184fa                jo_3d_set_mesh_polygon_high_speed_shrink
                0x06018520                jo_3d_set_mesh_high_speed_shrink
                0x06018558                jo_3d_set_mesh_screen_doors
                0x06018590                jo_3d_set_mesh_polygon_light
                0x060185ae                jo_3d_set_mesh_light
                0x060185e4                jo_3d_set_mesh_polygon_texture
                0x06018650                jo_3d_set_mesh_texture
                0x06018688                jo_3d_set_mesh_polygon_wireframe
                0x060186aa                jo_3d_set_mesh_polygon_color_ex
                0x060186fa                jo_3d_set_mesh_color
                0x06018734                jo_3d_free_sprite_quad
                0x06018760                jo_3d_create_sprite_quad
 .text          0x06018828      0x5a4 D:/joengine-master/jo_engine/fs.o
                0x0601887e                jo_fs_init
                0x060188c8                jo_fs_do_background_jobs
                0x0601895c                jo_fs_read_file_async_ptr
                0x06018a58                jo_fs_cd
                0x06018a98                jo_fs_read_file_ptr
                0x06018b78                jo_fs_read_file_in_dir
                0x06018bc0                jo_fs_open
                0x06018c3c                jo_fs_seek_forward
                0x06018cfc                jo_fs_read_next_bytes
                0x06018d9c                jo_fs_close
                0x06018dbc                jo_fs_set_read_sector_count
 .text          0x06018dcc       0xec D:/joengine-master/jo_engine/slave.o
                0x06018e3a                jo_core_add_slave_callback
                0x06018e60                jo_core_remove_slave_callback
                0x06018e74                jo_core_slave_init
                0x06018e84                jo_core_wait_for_slave
                0x06018ea4                jo_core_exec_on_slave
 .text          0x06018eb8      0x3f4 D:/joengine-master/jo_engine/font.o
                0x06018f0e                jo_font_load
                0x060190d0                jo_font_print
                0x060191a8                jo_font_print_centered
 .text          0x060192ac      0x1bc D:/joengine-master/jo_engine/input.o
                0x06019302                jo_get_inputs_vblank
                0x06019348                jo_get_input_type
                0x060193b0                jo_get_input_count
                0x060193e0                jo_get_input_axis
 .text          0x06019468        0x0 D:/joengine-master/jo_engine/physics.o
 .text          0x06019468      0x450 D:/joengine-master/jo_engine/core.o
                0x060194fe                __jo_core_set_screens_order
                0x060195c4                jo_core_add_vblank_callback
                0x06019604                jo_core_init
                0x06019794                jo_core_remove_vblank_callback
                0x060197c4                jo_core_add_callback
                0x060197e8                jo_core_remove_callback
                0x060197fc                jo_goto_boot_menu
                0x06019808                jo_core_set_restart_game_callback
                0x06019814                jo_core_run
 .text          0x060198b8      0x9c0 D:/joengine-master/jo_engine/math.o
                0x0601990e                jo_fixed_mult
                0x06019920                jo_fixed_dot
                0x06019938                jo_fixed_pow
                0x06019974                jo_fixed_div
                0x0601999c                jo_fixed_sin
                0x060199f8                jo_fixed_cos
                0x06019a54                jo_gcd
                0x06019a6a                jo_atan2f_rad
                0x06019c04                jo_planar_rotate
                0x06019ce4                jo_random
                0x06019d5c                jo_vector_fixed_compute_bezier_point
                0x06019eec                jo_vectorf_compute_bezier_point
                0x0601a03c                jo_fixed_sqrt
                0x0601a0c8                jo_sqrt
                0x0601a0fe                jo_fixed_rsqrt
                0x0601a208                jo_rsqrt
 .text          0x0601a278      0x1a0 D:/joengine-master/jo_engine/malloc.o
                0x0601a2ce                jo_add_memory_zone
                0x0601a30c                jo_malloc_with_behaviour
                0x0601a3a4                jo_reduce_memory_fragmentation
                0x0601a3f0                jo_free
 .text          0x0601a418      0x258 D:/joengine-master/jo_engine/tools.o
                0x0601a46e                jo_getdate
                0x0601a4d8                jo_get_current_language
                0x0601a4fc                jo_tools_atoi
                0x0601a526                jo_strlen
                0x0601a536                jo_endwith
                0x0601a588                jo_strcmp
                0x0601a5b4                jo_memset
                0x0601a61e                jo_map_to_vram
 .text          0x0601a670       0xa4 D:/joengine-master/jo_engine/palette.o
                0x0601a6c6                jo_create_palette
                0x0601a6ec                jo_set_palette_register
                0x0601a700                jo_get_palette_register
 .text          0x0601a714      0x7a8 D:/joengine-master/jo_engine/sprites.o
                0x0601a852                jo_sprite_usage_percent
                0x0601a8d8                jo_get_last_sprite_id
                0x0601a8e4                jo_sprite_init
                0x0601a908                jo_sprite_name2id
                0x0601a94c                jo_sprite_replace
                0x0601a9e0                jo_sprite_add
                0x0601a9f4                jo_sprite_add_8bits_image
                0x0601aa08                jo_sprite_free_from
                0x0601aaac                jo_set_gouraud_shading_colors
                0x0601aad4                jo_set_gouraud_shading_brightness
                0x0601ab00                jo_sprite_draw_4p_fixed
                0x0601ac18                jo_sprite_draw
                0x0601ad2c                jo_sprite_draw_rotate
                0x0601ae88                jo_sprite_set_clipping_area
 .text          0x0601aebc      0x910 D:/joengine-master/jo_engine/map.o
                0x0601afd6                jo_map_per_pixel_vertical_collision
                0x0601b164                jo_map_hitbox_detection_custom_boundaries
                0x0601b1d4                jo_map_create
                0x0601b220                jo_map_add_tile
                0x0601b244                jo_map_add_animated_tile
                0x0601b268                jo_map_draw_background
                0x0601b2ec                jo_map_3d_draw
                0x0601b3fc                jo_map_draw
                0x0601b4d0                jo_map_free
                0x0601b4e8                jo_map_load_from_file
                0x0601b75c                jo_map_move_tiles_by_attribute
 .text          0x0601b7cc      0x15c D:/joengine-master/jo_engine/list.o
                0x0601b822                jo_list_init
                0x0601b830                jo_list_add
                0x0601b874                jo_list_insert_at
                0x0601b8e4                jo_list_remove
 .text          0x0601b928      0x254 D:/joengine-master/jo_engine/sprite_animator.o
                0x0601b9e2                jo_replace_sprite_anim
                0x0601ba44                jo_create_sprite_anim
                0x0601bac0                jo_remove_sprite_anim
                0x0601bb4c                jo_clear_all_sprite_anim
 .text          0x0601bb7c      0x4ac D:/joengine-master/jo_engine/image.o
                0x0601bbd2                __jo_bin_load
                0x0601bc18                jo_free_img
                0x0601bc34                jo_bin_loader_from_stream
                0x0601bcc4                jo_bin_loader
                0x0601bd34                jo_replace_color
                0x0601bd62                jo_sprite_add_bin_tileset
                0x0601be60                jo_sprite_add_bin
                0x0601bed4                jo_sprite_add_bin_from_stream
                0x0601bf14                jo_sprite_add_image_pack
 .text          0x0601c028      0xfd0 D:/joengine-master/jo_engine/vdp2.o
                0x0601c0de                jo_set_default_background_color
                0x0601c114                __jo_init_vdp2
                0x0601c170                jo_img_to_vdp2_cells
                0x0601c1ec                jo_vdp2_replace_rbg0_plane_a_8bits_image
                0x0601c200                jo_vdp2_replace_rbg0_plane_b_8bits_image
                0x0601c214                jo_vdp2_set_rbg0_plane_a_8bits_image
                0x0601c2d8                jo_vdp2_set_rbg0_plane_b_8bits_image
                0x0601c39c                jo_vdp2_enable_rbg0
                0x0601c468                jo_vdp2_disable_rbg0
                0x0601c4c4                jo_vdp2_set_nbg0_8bits_image
                0x0601c5d0                jo_vdp2_disable_nbg0_line_scroll
                0x0601c5f4                jo_vdp2_compute_nbg0_line_scroll
                0x0601c60c                jo_vdp2_enable_nbg0_line_scroll
                0x0601c668                jo_vdp2_draw_bitmap_nbg1_line
                0x0601c704                jo_vdp2_clear_bitmap_nbg1
                0x0601c770                jo_vdp2_set_nbg1_8bits_image
                0x0601c860                jo_vdp2_set_nbg1_image
                0x0601ca54                jo_vdp2_disable_nbg1_line_scroll
                0x0601ca78                jo_vdp2_compute_nbg1_line_scroll
                0x0601ca90                jo_vdp2_enable_nbg1_line_scroll
                0x0601caec                jo_nbg2_clear
                0x0601cb18                __jo_set_nbg2_8bits_image
                0x0601cbbc                jo_nbg2_print
                0x0601cc18                jo_vdp2_set_nbg2_8bits_font
                0x0601cc88                jo_vdp2_set_nbg2_8bits_image
                0x0601ccf4                jo_nbg3_clear
                0x0601cd20                __jo_set_nbg3_8bits_image
                0x0601cdc4                jo_nbg3_print
                0x0601ce20                jo_vdp2_set_nbg3_8bits_font
                0x0601ce90                jo_vdp2_set_nbg3_8bits_image
                0x0601cefc                jo_set_displayed_screens
                0x0601cf0c                jo_disable_all_screens_transparency
                0x0601cf30                jo_enable_screen_transparency
 .text          0x0601cff8      0x26c D:/joengine-master/jo_engine/time.o
                0x0601d04e                jo_time_init
                0x0601d078                jo_get_ticks
                0x0601d158                jo_fixed_point_time
 .text          0x0601d264       0x56 D:/joengine-master/jo_engine/vdp1_command_pipeline.o
 *fill*         0x0601d2ba        0x2 
 .text          0x0601d2bc      0x258 D:/joengine-master/jo_engine/vdp2_malloc.o
                0x0601d312                jo_vdp2_malloc_init
                0x0601d348                jo_vdp2_free
                0x0601d3ec                jo_vdp2_malloc
 *fill*         0x0601d514        0xc 
 .text          0x0601d520      0x238 D:/joengine-master/Compiler/COMMON/SGL_302j/LIB_ELF/SEGA_SYS.A(sys_exit.o)
                0x0601d520                sys_version
                0x0601d540                SYS_Exit
 *fill*         0x0601d758        0x8 
 .text          0x0601d760        0x6 D:/joengine-master/Compiler/COMMON/SGL_302j/LIB_ELF/SEGA_SYS.A(sys_sub.o)
                0x0601d760                SYSUB_SetStackptr
 *fill*         0x0601d766        0xa 
 .text          0x0601d770      0x3a0 D:/joengine-master/Compiler/COMMON/SGL_302j/LIB_ELF/LIBCD.A(CDC_CMN.O)
                0x0601d770                CDC_GetCurStat
                0x0601d7c0                CDC_GetLastStat
                0x0601d7d8                CDC_GetPeriStat
                0x0601d8ac                CDC_GetHwInfo
                0x0601d914                CDC_TgetToc
                0x0601d964                CDC_GetSes
                0x0601d9a0                CDC_CdInit
                0x0601da24                CDC_CdOpen
                0x0601da4c                CDC_DataReady
                0x0601dab8                CDC_DataEnd
 .text          0x0601db10      0x130 D:/joengine-master/Compiler/COMMON/SGL_302j/LIB_ELF/LIBCD.A(CDC_DRV.O)
                0x0601db10                CDC_CdPlay
                0x0601dbdc                CDC_CdSeek
                0x0601dc10                CDC_CdScan
 .text          0x0601dc40      0x194 D:/joengine-master/Compiler/COMMON/SGL_302j/LIB_ELF/LIBCD.A(CDC_CFS.O)
                0x0601dc40                CDC_ChgDir
                0x0601dc74                CDC_ReadDir
                0x0601dca8                CDC_GetFileScope
                0x0601dd08                CDC_TgetFileInfo
                0x0601dd64                CDC_ReadFile
                0x0601dd98                CDC_AbortFile
 *fill*         0x0601ddd4        0xc 
 .text          0x0601dde0      0x2dc D:/joengine-master/Compiler/COMMON/SGL_302j/LIB_ELF/LIBCD.A(CDC_REG.O)
                0x0601dde0                CDC_GetDataPtr
                0x0601ddf0                CDC_GetHirqReq
                0x0601de04                CDC_ClrHirqReq
                0x0601de34                CDREG_ClrHirqReq
                0x0601de44                CDREG_InitHirqReq
                0x0601de6c                CDREG_SetHirqFlag
                0x0601de80                CDC_GetHirqMsk
                0x0601de94                CDC_SetHirqMsk
                0x0601dea4                CDC_GetMpegPtr
                0x0601deb4                CDREG_TgetData
                0x0601df10                CDREG_CmdRsp
                0x0601e010                CDREG_WaitHirq
                0x0601e080                CDREG_ReadRsp
 *fill*         0x0601e0bc        0x4 
 .text          0x0601e0c0      0x152 D:/joengine-master/Compiler/COMMON/SGL_302j/LIB_ELF/LIBCD.A(CDC_SUB.O)
                0x0601e0c0                CDSUB_UpdStatus
                0x0601e0d8                CDSUB_UpdCdstat
                0x0601e0f8                CDSUB_CdCmd
                0x0601e168                CDSUB_GetCdstat
                0x0601e1a8                CDSUB_RspToCdstat
                0x0601e1f0                CDSUB_SoftTimer
 *fill*         0x0601e212        0xe 
 .text          0x0601e220     0x1adc D:/joengine-master/Compiler/COMMON/SGL_302j/LIB_ELF/LIBCD.A(GFS.O)
                0x0601e220                gfs_version
                0x0601e240                GFS_Init
                0x0601e328                GFS_LoadDir
                0x0601e3d0                GFS_SetDir
                0x0601e438                GFS_NameToId
                0x0601e49c                GFS_IdToName
                0x0601e508                GFS_GetDirInfo
                0x0601e578                GFS_Reset
                0x0601e5fc                GFS_Open
                0x0601e6b0                GFS_Close
                0x0601e6e8                GFS_Seek
                0x0601e79c                GFS_Tell
                0x0601e7ec                GFS_IsEof
                0x0601e840                GFS_ByteToSct
                0x0601e89c                GFS_GetFileSize
                0x0601e8f8                GFS_GetFileInfo
                0x0601e96c                GFS_GetNumCdbuf
                0x0601e994                GFS_Load
                0x0601ea58                GFS_Fread
                0x0601eaf4                gfs_waitRead
                0x0601eb9c                GFS_NwFread
                0x0601eca8                GFS_NwCdRead
                0x0601ed20                GFS_NwIsComplete
                0x0601ed58                GFS_NwStop
                0x0601edc4                GFS_NwGetStat
                0x0601ee40                gfs_recovRdErr
                0x0601ee70                GFS_NwExecOne
                0x0601ef30                GFS_NwExecServer
                0x0601efac                GFS_SetGmode
                0x0601f010                GFS_SetTmode
                0x0601f07c                GFS_SetReadPara
                0x0601f0e0                GFS_SetTransPara
                0x0601f14c                GFS_SetTrFunc
                0x0601f1b0                GFS_StartTrans
                0x0601f1fc                GFS_CdMovePickup
                0x0601f268                GFS_SetErrFunc
                0x0601f294                GFS_GetErrStat
                0x0601f2b8                GFS_ConvTno
                0x0601f2e0                gfs_chgRoot
                0x0601f3ac                gfs_aborttrans
                0x0601f3b8                gfs_mngSetupFuncTbl
                0x0601f3ec                gfs_mngInitWork
                0x0601f490                gfs_mngGetNumFile
                0x0601f4f8                GFS_mngAllocGrp
                0x0601f540                gfs_mngFreeGrp
                0x0601f54c                gfs_mngTermAccess
                0x0601f5d0                gfs_mngSetErrCode
                0x0601f650                gfs_svrSearchHndl
                0x0601f690                gfs_svrAddHndl
                0x0601f6cc                gfs_svrRemoveHndl
                0x0601f728                GFS_OpenSub
                0x0601f780                gfs_loadVol
                0x0601f844                gfs_getRootDir
                0x0601f940                gfs_loadRootDir
                0x0601f9c8                gfs_flowIn
                0x0601fa70                gfs_transData
                0x0601fb14                GFS_GetFad
                0x0601fb6c                gfs_SetSct
                0x0601fbac                gfs_GetFinfo
                0x0601fbec                gfs_closeSub
                0x0601fc28                gfs_getGmode
                0x0601fc34                gfs_isTaskDone
                0x0601fc88                gfs_convFinStat
 *fill*         0x0601fcfc        0x4 
 .text          0x0601fd00      0x106 D:/joengine-master/Compiler/COMMON/SGL_302j/LIB_ELF/LIBCD.A(GFS_BUF.O)
                0x0601fd30                GFBF_GetTranData
                0x0601fd58                GFBF_GetNumData
                0x0601fd88                GFBF_GetSrcPk
                0x0601fdb0                GFBF_GetSctData
                0x0601fdd4                GFBF_RtnPk
                0x0601fdfc                gfbf_getSctDt
 *fill*         0x0601fe06        0xa 
 .text          0x0601fe10      0x600 D:/joengine-master/Compiler/COMMON/SGL_302j/LIB_ELF/LIBCD.A(GFS_CDB.O)
                0x0601fe10                GFCB_Setup
                0x0601ff30                GFCB_Close
                0x0601ff58                GFCB_GetLenData
                0x06020004                GFCB_GetLenRoom
                0x06020010                GFCB_SetFilt
                0x06020078                GFCB_DeleteAllData
                0x060200a0                GFCB_Tell
                0x060200b0                gfcb_getSctNum
                0x06020100                GFCB_Seek
                0x060201fc                GFCB_GetSrcPack
                0x060202dc                GFCB_GetSctData
                0x06020314                GFCB_GetDstPack
                0x06020320                GFCB_RtnPk
                0x06020368                GFCB_MovePickup
                0x06020384                GFCB_SetCon
                0x060203b8                GFCB_GetPickup
                0x060203e0                GFCB_IsPuOwner
                0x060203f8                GFCB_UngetPickup
 .text          0x06020410     0x1a10 D:/joengine-master/Compiler/COMMON/SGL_302j/LIB_ELF/LIBCD.A(GFS_CDC.O)
                0x06020410                GFCD_SetCdbfs
                0x0602043c                GFCD_Init
                0x06020640                GFCD_AllocFilt
                0x0602067c                GFCD_FreeFilt
                0x060206ac                GFCD_AllocBuf
                0x060206e0                GFCD_FreeBuf
                0x06020784                GFCD_GetBaseFad
                0x060207b8                GFCD_GetPickup
                0x060207ec                GFCD_UngetPickup
                0x06020818                GFCD_IsPuOwner
                0x0602083c                GFCD_SetFilt
                0x06020900                GFCD_GetFilt
                0x06020948                GFCD_SetCon
                0x060209a0                GFCD_Play
                0x06020a00                GFCD_GetLenData
                0x06020a68                GFCD_ReqData
                0x06020ac4                GFCD_EndData
                0x06020b0c                GFCD_DelSctData
                0x06020b64                GFCD_CheckDelSctData
                0x06020b94                GFCD_GetStat
                0x06020c48                GFCD_MovePickup
                0x06020c94                GFCD_MoveSctData
                0x06020d08                GFCD_CheckMove
                0x06020d2c                GFCD_GetSctInfo
                0x06020d74                GFCD_ChgDir
                0x06020de8                GFCD_SetFiltCon
                0x06020ed0                GFCD_GetFileInfo
                0x06020fac                GFCD_GetBufSiz
                0x06020fe4                GFCD_ExecServer
                0x060210b8                gfcd_isIdleTask
                0x06021144                gfcd_doTask
                0x060211f0                GFCD_SetTimer
                0x06021204                GFCD_WaitServer
                0x06021240                gfcd_doSetFiltTsk
                0x06021404                gfcd_doSetConTsk
                0x06021494                gfcd_doGetLenDataTsk
                0x060215e8                gfcd_doReqDataTsk
                0x06021688                gfcd_doDelSctDataTsk
                0x060217bc                gfcd_doMoveSctTsk
                0x06021920                gfcd_doChgDirTsk
                0x06021b1c                gfcd_doSetFiltConTsk
                0x06021c60                gfcd_checkEflag
                0x06021c84                gfcd_initCdbMng
                0x06021d04                gfcd_setStat
                0x06021d30                GFCD_SetCsctFunc
                0x06021d4c                GFCD_ChkScdqFlag
                0x06021d70                GFCD_ClrScdqFlag
                0x06021d8c                GFCD_WaitScdqFlag
                0x06021dd0                GFCD_WaitPause
 .text          0x06021e20      0x8d8 D:/joengine-master/Compiler/COMMON/SGL_302j/LIB_ELF/LIBCD.A(GFS_CDF.O)
                0x06021e20                GFCF_Init
                0x06021ec0                GFCF_Setup
                0x06022008                GFCF_SetSct
                0x0602204c                GFCF_GetFileInfo
                0x060220c0                GFCF_FlowInBuf
                0x06022214                GFCF_StopInBuf
                0x060222b4                GFCF_Recover
                0x060222fc                GFCF_Tell
                0x06022314                GFCF_Seek
                0x0602232c                GFCF_MovePickup
                0x060223c8                GFCF_cnvIntlvOfs
                0x0602241c                GFCF_GetStat
                0x060224b4                gfcf_getSctSize
                0x060224f0                gfcf_isCdOk
                0x060225b0                gfcf_getPlayRange
 *fill*         0x060226f8        0x8 
 .text          0x06022700      0x92c D:/joengine-master/Compiler/COMMON/SGL_302j/LIB_ELF/LIBCD.A(GFS_DIR.O)
                0x06022700                GFDR_SetupDirTbl
                0x06022774                GFDR_NameToId
                0x060227d4                GFDR_GetInfoDirId
                0x060227e8                GFDR_GetInfoDirName
                0x060227fc                GFDR_GetAtrDirId
                0x06022814                GFDR_GetAtrDirName
                0x0602282c                GFDR_ChgRoot
                0x06022844                GFDR_ChgDir
                0x060228b8                gfdr_setupDirIdTbl
                0x0602293c                gfdr_setupDirNameTbl
                0x060229e8                gfdr_open
                0x06022a10                gfdr_read
                0x06022ad0                gfdr_readByte
                0x06022afc                gfdr_readWord
                0x06022b28                gfdr_readWordNB
                0x06022b7c                gfdr_readLongNB
                0x06022bc8                gfdr_readLongNM
                0x06022bf0                gfdr_setNextRec
                0x06022c74                gfdr_readDirEnt
                0x06022ff0                gfdr_setDirrecCd
 *fill*         0x0602302c        0x4 
 .text          0x06023030      0x9c6 D:/joengine-master/Compiler/COMMON/SGL_302j/LIB_ELF/LIBCD.A(GFS_TRN.O)
                0x06023060                GFTR_Setup
                0x060230a4                GFTR_SetMode
                0x060230b8                GFTR_SetUnit
                0x060230c4                GFTR_SetTransPara
                0x060230f8                GFTR_GetTransPara
                0x06023104                GFTR_GetNumTrans
                0x06023110                GFTR_SetTransMax
                0x0602311c                GFTR_Start
                0x06023128                GFTR_Pause
                0x06023134                GFTR_Stop
                0x060231ec                GFTR_Exec
                0x06023270                GFTR_Idle
                0x060232e8                GFTR_ExecSvr
                0x060233f0                gftr_getSrcPack
                0x06023478                gftr_getDstPack
                0x060234d4                gftr_reqScu
                0x060234e0                gftr_execScu
                0x0602357c                gftr_remScu
                0x060235b0                gfdma_canUse
                0x060235bc                gfdma_exec
                0x0602362c                gfdma_getBytecnt
                0x06023664                gftr_reqDma0
                0x0602367c                gftr_execSdma0
                0x060236a0                gftr_remDma0
                0x060236b8                gftr_reqDma1
                0x060236d0                gftr_execSdma1
                0x060236f4                gftr_remDma1
                0x0602370c                gftr_reqCpu
                0x06023718                gftr_execCpu
                0x06023758                gftr_remCpu
                0x06023764                gftr_reqTrn
                0x060237d4                gftr_execTrn
                0x060238ac                gftr_remTrn
                0x06023920                gftr_copyFrac
                0x06023948                GFTR_GetLenData
                0x06023954                GFTR_GetLenRoom
                0x0602396c                GFTR_GetDstPack
                0x060239a0                GFTR_RtnDstPk
                0x060239bc                GFTR_GetData
                0x060239d0                GFTR_SetData
                0x060239e4                GFTR_SetTransFunc
 *fill*         0x060239f6        0xa 
 .text          0x06023a00       0xa8 D:/joengine-master/Compiler/COMMON/SGL_302j/LIB_ELF/LIBCD.A(CDC_DEV.O)
                0x06023a00                CDC_CdSetCon
                0x06023a30                CDC_CdGetCon
                0x06023a6c                CDC_CdGetLastBuf
 *fill*         0x06023aa8        0x8 
 .text          0x06023ab0      0x2b8 D:/joengine-master/Compiler/COMMON/SGL_302j/LIB_ELF/LIBCD.A(CDC_SEL.O)
                0x06023ab0                CDC_SetFiltRange
                0x06023ae4                CDC_GetFiltRange
                0x06023b3c                CDC_SetFiltSubh
                0x06023bac                CDC_GetFiltSubh
                0x06023c28                CDC_SetFiltMode
                0x06023c5c                CDC_GetFiltMode
                0x06023ca0                CDC_SetFiltCon
                0x06023ce0                CDC_GetFiltCon
                0x06023d34                CDC_ResetSelector
 *fill*         0x06023d68        0x8 
 .text          0x06023d70      0x270 D:/joengine-master/Compiler/COMMON/SGL_302j/LIB_ELF/LIBCD.A(CDC_BIF.O)
                0x06023d70                CDC_GetBufSiz
                0x06023dcc                CDC_GetSctNum
                0x06023e10                CDC_CalActSiz
                0x06023e4c                CDC_GetActSiz
                0x06023ecc                CDC_GetSctInfo
                0x06023f4c                CDC_ExeFadSearch
                0x06023f84                CDC_GetFadSearch
 .text          0x06023fe0      0x1e4 D:/joengine-master/Compiler/COMMON/SGL_302j/LIB_ELF/LIBCD.A(CDC_BIO.O)
                0x06023fe0                CDC_SetSctLen
                0x06024014                CDC_GetSctData
                0x06024050                CDC_DelSctData
                0x0602408c                CDC_GetdelSctData
                0x060240c8                CDC_PutSctData
                0x06024100                CDC_CopySctData
                0x06024144                CDC_MoveSctData
                0x06024188                CDC_GetCopyErr
 *fill*         0x060241c4        0xc 
 .text          0x060241d0        0x0 D:/joengine-master/Compiler/COMMON/SGL_302j/LIB_ELF/LIBSGL.A(sglA01.o)
 .text          0x060241d0        0x0 D:/joengine-master/Compiler/COMMON/SGL_302j/LIB_ELF/LIBSGL.A(sglA15.o)
 .text          0x060241d0        0x0 D:/joengine-master/Compiler/COMMON/SGL_302j/LIB_ELF/LIBSGL.A(sglA16.o)
 .text          0x060241d0        0x0 D:/joengine-master/Compiler/COMMON/SGL_302j/LIB_ELF/LIBSGL.A(sglA17.o)
 .text          0x060241d0        0x0 D:/joengine-master/Compiler/COMMON/SGL_302j/LIB_ELF/LIBSGL.A(sglA18.o)
 .text          0x060241d0        0x0 D:/joengine-master/Compiler/COMMON/SGL_302j/LIB_ELF/LIBSGL.A(sglA19.o)
 .text          0x060241d0        0x0 D:/joengine-master/Compiler/COMMON/SGL_302j/LIB_ELF/LIBSGL.A(sglA20.o)
 .text          0x060241d0        0x0 D:/joengine-master/Compiler/COMMON/SGL_302j/LIB_ELF/LIBSGL.A(sglA21.o)
 .text          0x060241d0        0x0 D:/joengine-master/Compiler/COMMON/SGL_302j/LIB_ELF/LIBSGL.A(sglA27.o)
 .text          0x060241d0        0x0 D:/joengine-master/Compiler/COMMON/SGL_302j/LIB_ELF/LIBSGL.A(sglA28.o)
 .text          0x060241d0        0x0 D:/joengine-master/Compiler/COMMON/SGL_302j/LIB_ELF/LIBSGL.A(sglA40.o)
 .text          0x060241d0        0x0 D:/joengine-master/Compiler/COMMON/SGL_302j/LIB_ELF/LIBSGL.A(sglB001.o)
 .text          0x060241d0        0x0 D:/joengine-master/Compiler/COMMON/SGL_302j/LIB_ELF/LIBSGL.A(sglB011.o)
 .text          0x060241d0        0x0 D:/joengine-master/Compiler/COMMON/SGL_302j/LIB_ELF/LIBSGL.A(sglB014.o)
 .text          0x060241d0        0x0 D:/joengine-master/Compiler/COMMON/SGL_302j/LIB_ELF/LIBSGL.A(sglB015.o)
 .text          0x060241d0        0x0 D:/joengine-master/Compiler/COMMON/SGL_302j/LIB_ELF/LIBSGL.A(sglB016.o)
 .text          0x060241d0        0x0 D:/joengine-master/Compiler/COMMON/SGL_302j/LIB_ELF/LIBSGL.A(sglB020.o)
 .text          0x060241d0        0x0 D:/joengine-master/Compiler/COMMON/SGL_302j/LIB_ELF/LIBSGL.A(sglB021.o)
 .text          0x060241d0        0x0 D:/joengine-master/Compiler/COMMON/SGL_302j/LIB_ELF/LIBSGL.A(sglB023.o)
 .text          0x060241d0        0x0 D:/joengine-master/Compiler/COMMON/SGL_302j/LIB_ELF/LIBSGL.A(sglB031.o)
 .text          0x060241d0        0x0 D:/joengine-master/Compiler/COMMON/SGL_302j/LIB_ELF/LIBSGL.A(sglB032.o)
 .text          0x060241d0        0x0 D:/joengine-master/Compiler/COMMON/SGL_302j/LIB_ELF/LIBSGL.A(sglB033.o)
 .text          0x060241d0        0x0 D:/joengine-master/Compiler/COMMON/SGL_302j/LIB_ELF/LIBSGL.A(sglB034.o)
 .text          0x060241d0        0x0 D:/joengine-master/Compiler/COMMON/SGL_302j/LIB_ELF/LIBSGL.A(sglB035.o)
 .text          0x060241d0        0x0 D:/joengine-master/Compiler/COMMON/SGL_302j/LIB_ELF/LIBSGL.A(sglB036.o)
 .text          0x060241d0        0x0 D:/joengine-master/Compiler/COMMON/SGL_302j/LIB_ELF/LIBSGL.A(sglB038.o)
 .text          0x060241d0        0x0 D:/joengine-master/Compiler/COMMON/SGL_302j/LIB_ELF/LIBSGL.A(sglB039.o)
 .text          0x060241d0        0x0 D:/joengine-master/Compiler/COMMON/SGL_302j/LIB_ELF/LIBSGL.A(sglB040.o)
 .text          0x060241d0        0x0 D:/joengine-master/Compiler/COMMON/SGL_302j/LIB_ELF/LIBSGL.A(sglB041.o)
 .text          0x060241d0        0x0 D:/joengine-master/Compiler/COMMON/SGL_302j/LIB_ELF/LIBSGL.A(sglB042.o)
 .text          0x060241d0        0x0 D:/joengine-master/Compiler/COMMON/SGL_302j/LIB_ELF/LIBSGL.A(sglB043.o)
 .text          0x060241d0        0x0 D:/joengine-master/Compiler/COMMON/SGL_302j/LIB_ELF/LIBSGL.A(sglB044.o)
 .text          0x060241d0        0x0 D:/joengine-master/Compiler/COMMON/SGL_302j/LIB_ELF/LIBSGL.A(sglB045.o)
 .text          0x060241d0        0x0 D:/joengine-master/Compiler/COMMON/SGL_302j/LIB_ELF/LIBSGL.A(sglB047.o)
 .text          0x060241d0        0x0 D:/joengine-master/Compiler/COMMON/SGL_302j/LIB_ELF/LIBSGL.A(sglB048.o)
 .text          0x060241d0        0x0 D:/joengine-master/Compiler/COMMON/SGL_302j/LIB_ELF/LIBSGL.A(sglB055.o)
 .text          0x060241d0        0x0 D:/joengine-master/Compiler/COMMON/SGL_302j/LIB_ELF/LIBSGL.A(sglB056.o)
 .text          0x060241d0        0x0 D:/joengine-master/Compiler/COMMON/SGL_302j/LIB_ELF/LIBSGL.A(sglB057.o)
 .text          0x060241d0        0x0 D:/joengine-master/Compiler/COMMON/SGL_302j/LIB_ELF/LIBSGL.A(sglB058.o)
 .text          0x060241d0        0x0 D:/joengine-master/Compiler/COMMON/SGL_302j/LIB_ELF/LIBSGL.A(sglB059.o)
 .text          0x060241d0        0x0 D:/joengine-master/Compiler/COMMON/SGL_302j/LIB_ELF/LIBSGL.A(sglB060.o)
 .text          0x060241d0        0x0 D:/joengine-master/Compiler/COMMON/SGL_302j/LIB_ELF/LIBSGL.A(sglB063.o)
 .text          0x060241d0        0x0 D:/joengine-master/Compiler/COMMON/SGL_302j/LIB_ELF/LIBSGL.A(sglB087.o)
 .text          0x060241d0        0x0 D:/joengine-master/Compiler/COMMON/SGL_302j/LIB_ELF/LIBSGL.A(sglB088.o)
 .text          0x060241d0        0x0 D:/joengine-master/Compiler/COMMON/SGL_302j/LIB_ELF/LIBSGL.A(sglB090.o)
 .text          0x060241d0        0x0 D:/joengine-master/Compiler/COMMON/SGL_302j/LIB_ELF/LIBSGL.A(sglB200.o)
 .text          0x060241d0        0x0 D:/joengine-master/Compiler/COMMON/SGL_302j/LIB_ELF/LIBSGL.A(sglC01.o)
 .text          0x060241d0        0x0 D:/joengine-master/Compiler/COMMON/SGL_302j/LIB_ELF/LIBSGL.A(sglC03.o)
 .text          0x060241d0        0x0 D:/joengine-master/Compiler/COMMON/SGL_302j/LIB_ELF/LIBSGL.A(sglC04.o)
 .text          0x060241d0        0x0 D:/joengine-master/Compiler/COMMON/SGL_302j/LIB_ELF/LIBSGL.A(sglC05.o)
 .text          0x060241d0        0x0 D:/joengine-master/Compiler/COMMON/SGL_302j/LIB_ELF/LIBSGL.A(sglC06.o)
 .text          0x060241d0        0x0 D:/joengine-master/Compiler/COMMON/SGL_302j/LIB_ELF/LIBSGL.A(sglC07.o)
 .text          0x060241d0        0x0 D:/joengine-master/Compiler/COMMON/SGL_302j/LIB_ELF/LIBSGL.A(sglC08.o)
 .text          0x060241d0        0x0 D:/joengine-master/Compiler/COMMON/SGL_302j/LIB_ELF/LIBSGL.A(sglC14.o)
 .text          0x060241d0        0x0 D:/joengine-master/Compiler/COMMON/SGL_302j/LIB_ELF/LIBSGL.A(sglC16.o)
 .text          0x060241d0        0x0 D:/joengine-master/Compiler/COMMON/SGL_302j/LIB_ELF/LIBSGL.A(sglC17.o)
 .text          0x060241d0        0x0 D:/joengine-master/Compiler/COMMON/SGL_302j/LIB_ELF/LIBSGL.A(sglC19.o)
 .text          0x060241d0        0x0 D:/joengine-master/Compiler/COMMON/SGL_302j/LIB_ELF/LIBSGL.A(sglC20.o)
 .text          0x060241d0        0x0 D:/joengine-master/Compiler/COMMON/SGL_302j/LIB_ELF/LIBSGL.A(sglC21.o)
 .text          0x060241d0        0x0 D:/joengine-master/Compiler/COMMON/SGL_302j/LIB_ELF/LIBSGL.A(sglD00.o)
 .text          0x060241d0        0x0 D:/joengine-master/Compiler/COMMON/SGL_302j/LIB_ELF/LIBSGL.A(sglD01.o)
 .text          0x060241d0        0x0 D:/joengine-master/Compiler/COMMON/SGL_302j/LIB_ELF/LIBSGL.A(sglD02.o)
 .text          0x060241d0        0x0 D:/joengine-master/Compiler/COMMON/SGL_302j/LIB_ELF/LIBSGL.A(sglD03.o)
 .text          0x060241d0        0x0 D:/joengine-master/Compiler/COMMON/SGL_302j/LIB_ELF/LIBSGL.A(sglD15.o)
 .text          0x060241d0        0x0 D:/joengine-master/Compiler/COMMON/SGL_302j/LIB_ELF/LIBSGL.A(sglD16.o)
 .text          0x060241d0        0x0 D:/joengine-master/Compiler/COMMON/SGL_302j/LIB_ELF/LIBSGL.A(sglD17.o)
 .text          0x060241d0        0x0 D:/joengine-master/Compiler/COMMON/SGL_302j/LIB_ELF/LIBSGL.A(sglD18.o)
 .text          0x060241d0        0x0 D:/joengine-master/Compiler/COMMON/SGL_302j/LIB_ELF/LIBSGL.A(sglF08.o)
 .text          0x060241d0        0x0 D:/joengine-master/Compiler/COMMON/SGL_302j/LIB_ELF/LIBSGL.A(sglH00.o)
 .text          0x060241d0        0x0 D:/joengine-master/Compiler/COMMON/SGL_302j/LIB_ELF/LIBSGL.A(sglH01.o)
 .text          0x060241d0        0x0 D:/joengine-master/Compiler/COMMON/SGL_302j/LIB_ELF/LIBSGL.A(sglH02.o)
 .text          0x060241d0        0x0 D:/joengine-master/Compiler/COMMON/SGL_302j/LIB_ELF/LIBSGL.A(sglH04.o)
 .text          0x060241d0        0x0 D:/joengine-master/Compiler/COMMON/SGL_302j/LIB_ELF/LIBSGL.A(sglI01.o)
 .text          0x060241d0        0x0 D:/joengine-master/Compiler/COMMON/SGL_302j/LIB_ELF/LIBSGL.A(sglI04.o)
 .text          0x060241d0      0x128 D:/joengine-master/Compiler/COMMON/SGL_302j/LIB_ELF/LIBSGL.A(sglIc0.o)
                0x060241d0                slInitSystem
 *fill*         0x060242f8        0x8 
 .text          0x06024300        0x0 D:/joengine-master/Compiler/COMMON/SGL_302j/LIB_ELF/LIBSGL.A(sglJ00.o)
 .text          0x06024300        0x0 D:/joengine-master/Compiler/COMMON/SGL_302j/LIB_ELF/LIBSGL.A(sglJ01.o)
 .text          0x06024300        0x0 D:/joengine-master/Compiler/COMMON/SGL_302j/LIB_ELF/LIBSGL.A(sglJ02.o)
 .text          0x06024300        0x0 D:/joengine-master/Compiler/COMMON/SGL_302j/LIB_ELF/LIBSGL.A(sglJ03.o)
 .text          0x06024300        0x0 D:/joengine-master/Compiler/COMMON/SGL_302j/LIB_ELF/LIBSGL.A(sglJ04.o)
 .text          0x06024300        0x0 D:/joengine-master/Compiler/COMMON/SGL_302j/LIB_ELF/LIBSGL.A(sglJ05.o)
 .text          0x06024300        0x0 D:/joengine-master/Compiler/COMMON/SGL_302j/LIB_ELF/LIBSGL.A(sglK01.o)
 .text          0x06024300        0x0 D:/joengine-master/Compiler/COMMON/SGL_302j/LIB_ELF/LIBSGL.A(sglM00.o)
 .text          0x06024300        0x0 D:/joengine-master/Compiler/COMMON/SGL_302j/LIB_ELF/LIBSGL.A(sglM01.o)
 .text          0x06024300        0x0 D:/joengine-master/Compiler/COMMON/SGL_302j/LIB_ELF/LIBSGL.A(sglA00.o)
 .text          0x06024300        0x0 D:/joengine-master/Compiler/COMMON/SGL_302j/LIB_ELF/LIBSGL.A(sglA03.o)
 .text          0x06024300        0x0 D:/joengine-master/Compiler/COMMON/SGL_302j/LIB_ELF/LIBSGL.A(sglA10.o)
 .text          0x06024300        0x0 D:/joengine-master/Compiler/COMMON/SGL_302j/LIB_ELF/LIBSGL.A(sglA24.o)
 .text          0x06024300        0x0 D:/joengine-master/Compiler/COMMON/SGL_302j/LIB_ELF/LIBSGL.A(sglA25.o)
 .text          0x06024300        0x0 D:/joengine-master/Compiler/COMMON/SGL_302j/LIB_ELF/LIBSGL.A(sglB000.o)
 .text          0x06024300        0x0 D:/joengine-master/Compiler/COMMON/SGL_302j/LIB_ELF/LIBSGL.A(sglC00.o)
 .text          0x06024300        0x0 D:/joengine-master/Compiler/COMMON/SGL_302j/LIB_ELF/LIBSGL.A(sglC13.o)
 .text          0x06024300        0x0 D:/joengine-master/Compiler/COMMON/SGL_302j/LIB_ELF/LIBSGL.A(sglD19.o)
 .text          0x06024300        0x0 D:/joengine-master/Compiler/COMMON/SGL_302j/LIB_ELF/LIBSGL.A(sglI00.o)
 .text          0x06024300        0x0 D:/joengine-master/Compiler/COMMON/SGL_302j/LIB_ELF/LIBSGL.A(sglH03.o)
 .text          0x06024300       0x52 d:/joengine-master/compiler/windows/bin/../lib/gcc/sh-elf/9.3.0\libgcc.a(_ashiftrt.o)
                0x06024300                __ashiftrt_r4_31
                0x06024300                __ashiftrt_r4_32
                0x06024306                __ashiftrt_r4_30
                0x06024308                __ashiftrt_r4_29
                0x0602430a                __ashiftrt_r4_28
                0x0602430c                __ashiftrt_r4_27
                0x0602430e                __ashiftrt_r4_26
                0x06024310                __ashiftrt_r4_25
                0x06024312                __ashiftrt_r4_24
                0x0602431a                __ashiftrt_r4_23
                0x0602431c                __ashiftrt_r4_22
                0x0602431e                __ashiftrt_r4_21
                0x06024320                __ashiftrt_r4_20
                0x06024322                __ashiftrt_r4_19
                0x06024324                __ashiftrt_r4_18
                0x06024326                __ashiftrt_r4_17
                0x06024328                __ashiftrt_r4_16
                0x0602432e                __ashiftrt_r4_15
                0x06024330                __ashiftrt_r4_14
                0x06024332                __ashiftrt_r4_13
                0x06024334                __ashiftrt_r4_12
                0x06024336                __ashiftrt_r4_11
                0x06024338                __ashiftrt_r4_10
                0x0602433a                __ashiftrt_r4_9
                0x0602433c                __ashiftrt_r4_8
                0x0602433e                __ashiftrt_r4_7
                0x06024340                __ashiftrt_r4_6
                0x06024342                __ashiftrt_r4_5
                0x06024344                __ashiftrt_r4_4
                0x06024346                __ashiftrt_r4_3
                0x06024348                __ashiftrt_r4_2
                0x0602434a                __ashiftrt_r4_1
                0x0602434e                __ashiftrt_r4_0
 *fill*         0x06024352        0x2 
 .text          0x06024354       0x80 d:/joengine-master/compiler/windows/bin/../lib/gcc/sh-elf/9.3.0\libgcc.a(_ashiftrt_n.o)
                0x06024354                __ashrsi3
 .text          0x060243d4       0xbc d:/joengine-master/compiler/windows/bin/../lib/gcc/sh-elf/9.3.0\libgcc.a(_ashiftlt.o)
                0x060243d4                __ashlsi3
                0x060243d8                __ashlsi3_r0
 .text          0x06024490       0xbc d:/joengine-master/compiler/windows/bin/../lib/gcc/sh-elf/9.3.0\libgcc.a(_lshiftrt.o)
                0x06024490                __lshrsi3
                0x06024494                __lshrsi3_r0
 .text          0x0602454c       0x78 d:/joengine-master/compiler/windows/bin/../lib/gcc/sh-elf/9.3.0\libgcc.a(_movmem.o)
                0x0602454c                __movmem
                0x0602454c                __movstr
                0x06024580                __movstrSI64
                0x06024580                __movmemSI64
                0x06024584                __movstrSI60
                0x06024584                __movmemSI60
                0x06024588                __movstrSI56
                0x06024588                __movmemSI56
                0x0602458c                __movstrSI52
                0x0602458c                __movmemSI52
                0x06024590                __movstrSI48
                0x06024590                __movmemSI48
                0x06024594                __movmemSI44
                0x06024594                __movstrSI44
                0x06024598                __movstrSI40
                0x06024598                __movmemSI40
                0x0602459c                __movmemSI36
                0x0602459c                __movstrSI36
                0x060245a0                __movmemSI32
                0x060245a0                __movstrSI32
                0x060245a4                __movstrSI28
                0x060245a4                __movmemSI28
                0x060245a8                __movmemSI24
                0x060245a8                __movstrSI24
                0x060245ac                __movstrSI20
                0x060245ac                __movmemSI20
                0x060245b0                __movstrSI16
                0x060245b0                __movmemSI16
                0x060245b4                __movstrSI12
                0x060245b4                __movmemSI12
                0x060245b8                __movmemSI8
                0x060245b8                __movstrSI8
                0x060245bc                __movmemSI4
                0x060245bc                __movstrSI4
 .text          0x060245c4       0xa0 d:/joengine-master/compiler/windows/bin/../lib/gcc/sh-elf/9.3.0\libgcc.a(_sdivsi3.o)
                0x060245c4                __sdivsi3
 .text          0x06024664       0x6c d:/joengine-master/compiler/windows/bin/../lib/gcc/sh-elf/9.3.0\libgcc.a(_udivsi3.o)
                0x06024686                __udivsi3
 .text          0x060246d0      0x21c d:/joengine-master/compiler/windows/bin/../lib/gcc/sh-elf/9.3.0\libgcc.a(_addsub_sf.o)
                0x06024850                __addsf3
                0x0602489c                __subsf3
 .text          0x060248ec      0x134 d:/joengine-master/compiler/windows/bin/../lib/gcc/sh-elf/9.3.0\libgcc.a(_mul_sf.o)
                0x060248ec                __mulsf3
 .text          0x06024a20       0xdc d:/joengine-master/compiler/windows/bin/../lib/gcc/sh-elf/9.3.0\libgcc.a(_div_sf.o)
                0x06024a20                __divsf3
 .text          0x06024afc       0x54 d:/joengine-master/compiler/windows/bin/../lib/gcc/sh-elf/9.3.0\libgcc.a(_eq_sf.o)
                0x06024afc                __eqsf2
 .text          0x06024b50       0x54 d:/joengine-master/compiler/windows/bin/../lib/gcc/sh-elf/9.3.0\libgcc.a(_ne_sf.o)
                0x06024b50                __nesf2
 .text          0x06024ba4       0x54 d:/joengine-master/compiler/windows/bin/../lib/gcc/sh-elf/9.3.0\libgcc.a(_gt_sf.o)
                0x06024ba4                __gtsf2
 .text          0x06024bf8       0x54 d:/joengine-master/compiler/windows/bin/../lib/gcc/sh-elf/9.3.0\libgcc.a(_ge_sf.o)
                0x06024bf8                __gesf2
 .text          0x06024c4c       0x54 d:/joengine-master/compiler/windows/bin/../lib/gcc/sh-elf/9.3.0\libgcc.a(_lt_sf.o)
                0x06024c4c                __ltsf2
 .text          0x06024ca0       0x54 d:/joengine-master/compiler/windows/bin/../lib/gcc/sh-elf/9.3.0\libgcc.a(_le_sf.o)
                0x06024ca0                __lesf2
 .text          0x06024cf4       0x84 d:/joengine-master/compiler/windows/bin/../lib/gcc/sh-elf/9.3.0\libgcc.a(_si_to_sf.o)
                0x06024cf4                __floatsisf
 .text          0x06024d78       0x70 d:/joengine-master/compiler/windows/bin/../lib/gcc/sh-elf/9.3.0\libgcc.a(_sf_to_si.o)
                0x06024d78                __fixsfsi
 .text          0x06024de8       0x3c d:/joengine-master/compiler/windows/bin/../lib/gcc/sh-elf/9.3.0\libgcc.a(_sf_to_df.o)
                0x06024de8                __extendsfdf2
 .text          0x06024e24        0x0 d:/joengine-master/compiler/windows/bin/../lib/gcc/sh-elf/9.3.0\libgcc.a(_thenan_sf.o)
 .text          0x06024e24       0x94 d:/joengine-master/compiler/windows/bin/../lib/gcc/sh-elf/9.3.0\libgcc.a(_usi_to_sf.o)
                0x06024e24                __floatunsisf
 .text          0x06024eb8      0x3e0 d:/joengine-master/compiler/windows/bin/../lib/gcc/sh-elf/9.3.0\libgcc.a(_addsub_df.o)
                0x060251f4                __adddf3
                0x06025244                __subdf3
 .text          0x06025298      0x208 d:/joengine-master/compiler/windows/bin/../lib/gcc/sh-elf/9.3.0\libgcc.a(_mul_df.o)
                0x06025298                __muldf3
 .text          0x060254a0       0xa8 d:/joengine-master/compiler/windows/bin/../lib/gcc/sh-elf/9.3.0\libgcc.a(_si_to_df.o)
                0x060254a0                __floatsidf
 .text          0x06025548       0xa0 d:/joengine-master/compiler/windows/bin/../lib/gcc/sh-elf/9.3.0\libgcc.a(_df_to_si.o)
                0x06025548                __fixdfsi
 .text          0x060255e8       0x28 d:/joengine-master/compiler/windows/bin/../lib/gcc/sh-elf/9.3.0\libgcc.a(_make_df.o)
                0x060255e8                __make_dp
 .text          0x06025610       0x4c d:/joengine-master/compiler/windows/bin/../lib/gcc/sh-elf/9.3.0\libgcc.a(_df_to_sf.o)
                0x06025610                __truncdfsf2
 .text          0x0602565c        0x0 d:/joengine-master/compiler/windows/bin/../lib/gcc/sh-elf/9.3.0\libgcc.a(_thenan_df.o)
 .text          0x0602565c       0x54 d:/joengine-master/compiler/windows/bin/../lib/gcc/sh-elf/9.3.0\libgcc.a(_clzsi2.o)
                0x0602565c                __clzsi2
 .text          0x060256b0      0x11c d:/joengine-master/compiler/windows/bin/../lib/gcc/sh-elf/9.3.0\libgcc.a(_pack_sf.o)
                0x060256b0                __pack_f
 .text          0x060257cc       0xa0 d:/joengine-master/compiler/windows/bin/../lib/gcc/sh-elf/9.3.0\libgcc.a(_unpack_sf.o)
                0x060257cc                __unpack_f
 .text          0x0602586c       0xac d:/joengine-master/compiler/windows/bin/../lib/gcc/sh-elf/9.3.0\libgcc.a(_fpcmp_parts_sf.o)
                0x0602586c                __fpcmp_parts_f
 .text          0x06025918       0x20 d:/joengine-master/compiler/windows/bin/../lib/gcc/sh-elf/9.3.0\libgcc.a(_make_sf.o)
                0x06025918                __make_fp
 .text          0x06025938      0x274 d:/joengine-master/compiler/windows/bin/../lib/gcc/sh-elf/9.3.0\libgcc.a(_pack_df.o)
                0x06025938                __pack_d
 .text          0x06025bac       0xcc d:/joengine-master/compiler/windows/bin/../lib/gcc/sh-elf/9.3.0\libgcc.a(_unpack_df.o)
                0x06025bac                __unpack_d
 .text          0x06025c78        0x0 d:/joengine-master/compiler/windows/bin/../lib/gcc/sh-elf/9.3.0\libgcc.a(_clz.o)
 .text          0x06025c78        0x0 d:/joengine-master/compiler/windows/bin/../lib/gcc/sh-elf/9.3.0/../../../../sh-elf/lib\libc.a(lib_a-impure.o)
 .text          0x06025c78       0x1e d:/joengine-master/compiler/windows/bin/../lib/gcc/sh-elf/9.3.0/../../../../sh-elf/lib\libc.a(lib_a-memcmp.o)
                0x06025c78                memcmp
 *fill*         0x06025c96        0x2 
 .text          0x06025c98       0x94 d:/joengine-master/compiler/windows/bin/../lib/gcc/sh-elf/9.3.0/../../../../sh-elf/lib\libc.a(lib_a-memcpy.o)
                0x06025c98                memcpy
 .text          0x06025d2c       0x40 d:/joengine-master/compiler/windows/bin/../lib/gcc/sh-elf/9.3.0/../../../../sh-elf/lib\libc.a(lib_a-memset.o)
                0x06025d2c                memset
 .text          0x06025d6c       0x58 d:/joengine-master/compiler/windows/bin/../lib/gcc/sh-elf/9.3.0/../../../../sh-elf/lib\libc.a(lib_a-rand.o)
                0x06025d6c                srand
                0x06025d80                rand
 .text          0x06025dc4       0x60 d:/joengine-master/compiler/windows/bin/../lib/gcc/sh-elf/9.3.0/../../../../sh-elf/lib\libc.a(lib_a-rget.o)
                0x06025dc4                __srget_r
                0x06025e10                __srget
 .text          0x06025e24       0x8c d:/joengine-master/compiler/windows/bin/../lib/gcc/sh-elf/9.3.0/../../../../sh-elf/lib\libc.a(lib_a-sprintf.o)
                0x06025e24                _siprintf_r
                0x06025e24                _sprintf_r
                0x06025e64                siprintf
                0x06025e64                sprintf
 .text          0x06025eb0       0x20 d:/joengine-master/compiler/windows/bin/../lib/gcc/sh-elf/9.3.0/../../../../sh-elf/lib\libc.a(lib_a-strcat.o)
                0x06025eb0                strcat
 .text          0x06025ed0       0x38 d:/joengine-master/compiler/windows/bin/../lib/gcc/sh-elf/9.3.0/../../../../sh-elf/lib\libc.a(lib_a-strcmp.o)
                0x06025ed0                strcmp
 .text          0x06025f08       0x3c d:/joengine-master/compiler/windows/bin/../lib/gcc/sh-elf/9.3.0/../../../../sh-elf/lib\libc.a(lib_a-strcpy.o)
                0x06025f08                strcpy
 .text          0x06025f44       0x20 d:/joengine-master/compiler/windows/bin/../lib/gcc/sh-elf/9.3.0/../../../../sh-elf/lib\libc.a(lib_a-strlen.o)
                0x06025f44                strlen
 .text          0x06025f64       0x2a d:/joengine-master/compiler/windows/bin/../lib/gcc/sh-elf/9.3.0/../../../../sh-elf/lib\libc.a(lib_a-strncmp.o)
                0x06025f64                strncmp
 .text          0x06025f8e       0x36 d:/joengine-master/compiler/windows/bin/../lib/gcc/sh-elf/9.3.0/../../../../sh-elf/lib\libc.a(lib_a-strncpy.o)
                0x06025f8e                strncpy
 .text          0x06025fc4       0x36 d:/joengine-master/compiler/windows/bin/../lib/gcc/sh-elf/9.3.0/../../../../sh-elf/lib\libc.a(lib_a-strstr.o)
                0x06025fc4                strstr
 *fill*         0x06025ffa        0x2 
 .text          0x06025ffc       0xdc d:/joengine-master/compiler/windows/bin/../lib/gcc/sh-elf/9.3.0/../../../../sh-elf/lib\libc.a(lib_a-wbuf.o)
                0x06025ffc                __swbuf_r
                0x060260c4                __swbuf
 .text          0x060260d8       0xcc d:/joengine-master/compiler/windows/bin/../lib/gcc/sh-elf/9.3.0/../../../../sh-elf/lib\libc.a(lib_a-wsetup.o)
                0x060260d8                __swsetup_r
 .text          0x060261a4      0x1a4 d:/joengine-master/compiler/windows/bin/../lib/gcc/sh-elf/9.3.0/../../../../sh-elf/lib\libc.a(lib_a-fflush.o)
                0x060261a4                __sflush_r
                0x060262e0                _fflush_r
                0x06026320                fflush
 .text          0x06026348      0x1d0 d:/joengine-master/compiler/windows/bin/../lib/gcc/sh-elf/9.3.0/../../../../sh-elf/lib\libc.a(lib_a-findfp.o)
                0x060263a0                _cleanup_r
                0x060263b0                __sfmoreglue
                0x060263fc                _cleanup
                0x06026410                __sinit
                0x06026464                __sfp
 .text          0x06026518       0xb0 d:/joengine-master/compiler/windows/bin/../lib/gcc/sh-elf/9.3.0/../../../../sh-elf/lib\libc.a(lib_a-fwalk.o)
                0x06026518                _fwalk
                0x0602656c                _fwalk_reent
 .text          0x060265c8      0x108 d:/joengine-master/compiler/windows/bin/../lib/gcc/sh-elf/9.3.0/../../../../sh-elf/lib\libc.a(lib_a-makebuf.o)
                0x060265c8                __swhatbuf_r
                0x06026624                __smakebuf_r
 .text          0x060266d0      0x444 d:/joengine-master/compiler/windows/bin/../lib/gcc/sh-elf/9.3.0/../../../../sh-elf/lib\libc.a(lib_a-nano-svfprintf.o)
                0x060266d0                __ssputs_r
                0x060267c4                __ssprint_r
                0x060268f8                _svfprintf_r
                0x060268f8                _svfiprintf_r
 .text          0x06026b14      0x380 d:/joengine-master/compiler/windows/bin/../lib/gcc/sh-elf/9.3.0/../../../../sh-elf/lib\libc.a(lib_a-nano-vfprintf_i.o)
                0x06026b14                _printf_common
                0x06026c14                _printf_i
 .text          0x06026e94      0x150 d:/joengine-master/compiler/windows/bin/../lib/gcc/sh-elf/9.3.0/../../../../sh-elf/lib\libc.a(lib_a-refill.o)
                0x06026eac                __srefill_r
 .text          0x06026fe4       0xe0 d:/joengine-master/compiler/windows/bin/../lib/gcc/sh-elf/9.3.0/../../../../sh-elf/lib\libc.a(lib_a-stdio.o)
                0x06026fe4                __sread
                0x06027020                __seofread
                0x06027024                __swrite
                0x06027074                __sseek
                0x060270b4                __sclose
 .text          0x060270c4       0x34 d:/joengine-master/compiler/windows/bin/../lib/gcc/sh-elf/9.3.0/../../../../sh-elf/lib\libc.a(lib_a-writer.o)
                0x060270c4                _write_r
 .text          0x060270f8       0x30 d:/joengine-master/compiler/windows/bin/../lib/gcc/sh-elf/9.3.0/../../../../sh-elf/lib\libc.a(lib_a-closer.o)
                0x060270f8                _close_r
 .text          0x06027128       0x34 d:/joengine-master/compiler/windows/bin/../lib/gcc/sh-elf/9.3.0/../../../../sh-elf/lib\libc.a(lib_a-fstatr.o)
                0x06027128                _fstat_r
 .text          0x0602715c       0x30 d:/joengine-master/compiler/windows/bin/../lib/gcc/sh-elf/9.3.0/../../../../sh-elf/lib\libc.a(lib_a-isattyr.o)
                0x0602715c                _isatty_r
 .text          0x0602718c       0x34 d:/joengine-master/compiler/windows/bin/../lib/gcc/sh-elf/9.3.0/../../../../sh-elf/lib\libc.a(lib_a-lseekr.o)
                0x0602718c                _lseek_r
 .text          0x060271c0       0x1c d:/joengine-master/compiler/windows/bin/../lib/gcc/sh-elf/9.3.0/../../../../sh-elf/lib\libc.a(lib_a-memchr.o)
                0x060271c0                memchr
 .text          0x060271dc       0x3c d:/joengine-master/compiler/windows/bin/../lib/gcc/sh-elf/9.3.0/../../../../sh-elf/lib\libc.a(lib_a-memmove.o)
                0x060271dc                memmove
 .text          0x06027218       0x34 d:/joengine-master/compiler/windows/bin/../lib/gcc/sh-elf/9.3.0/../../../../sh-elf/lib\libc.a(lib_a-readr.o)
                0x06027218                _read_r
 .text          0x0602724c      0x100 d:/joengine-master/compiler/windows/bin/../lib/gcc/sh-elf/9.3.0/../../../../sh-elf/lib\libc.a(lib_a-reent.o)
                0x0602724c                cleanup_glue
                0x06027278                _reclaim_reent
 *(.strings)
 *(SEGA_P)
 *(.eh_frame_hdr)
 *(.eh_frame)
                0x0602734c                __etext = .

.text.startup   0x06027350       0x40
 .text.startup  0x06027350       0x40 D:/joengine-master/jo_engine/core.o
                0x06027350                main

SLPROG          0x060273a0    0x158a0
                0x060273a0                __slprog_start = .
 *(SLPROG)
 SLPROG         0x060273a0     0x6540 D:/joengine-master/Compiler/COMMON/SGL_302j/LIB_ELF/SGLAREA.O
                0x060273a0                MasterStack
                0x060273a4                SlaveStack
                0x060273a8                MaxVertices
                0x060273aa                MaxPolygons
                0x060273ac                SortList
                0x060273b0                SortListSize
                0x060273b4                TransList
                0x060273b8                Zbuffer
                0x060273bc                SpriteBuf
                0x060273c0                SpriteBufSize
                0x060273c4                Pbuffer
                0x060273c8                CommandBuf
                0x060273cc                CLOfstBuf
                0x060273d0                PCM_Work
                0x060273d4                PCM_WkSize
                0x060273d8                MaxEvents
                0x060273da                EventSize
                0x060273dc                MaxWorks
                0x060273de                WorkSize
                0x060273e0                RemainEvent
                0x060274e0                RemainWork
                0x060278e0                EventBuf
                0x060298e0                WorkBuf
 SLPROG         0x0602d8e0     0x411e D:/joengine-master/Compiler/COMMON/SGL_302j/LIB_ELF/LIBSGL.A(sglA01.o)
                0x0602d8e0                slSin
                0x0602d904                slCos
                0x0602d928                GetSinCos
                0x0602d9bc                sin_cos_index_tbl
                0x0602d9fc                sin_tbl
 *fill*         0x060319fe        0x2 
 SLPROG         0x06031a00       0x18 D:/joengine-master/Compiler/COMMON/SGL_302j/LIB_ELF/LIBSGL.A(sglA15.o)
                0x06031a00                slSlaveFunc
 *fill*         0x06031a18        0x8 
 SLPROG         0x06031a20       0xd0 D:/joengine-master/Compiler/COMMON/SGL_302j/LIB_ELF/LIBSGL.A(sglA16.o)
                0x06031a20                slLookAt
 SLPROG         0x06031af0       0x78 D:/joengine-master/Compiler/COMMON/SGL_302j/LIB_ELF/LIBSGL.A(sglA17.o)
                0x06031af0                slRotZ
                0x06031afa                slRotZSC
 *fill*         0x06031b68        0x8 
 SLPROG         0x06031b70       0x78 D:/joengine-master/Compiler/COMMON/SGL_302j/LIB_ELF/LIBSGL.A(sglA18.o)
                0x06031b70                slRotY
                0x06031b7a                slRotYSC
 *fill*         0x06031be8        0x8 
 SLPROG         0x06031bf0       0x78 D:/joengine-master/Compiler/COMMON/SGL_302j/LIB_ELF/LIBSGL.A(sglA19.o)
                0x06031bf0                slRotX
                0x06031bfa                slRotXSC
 *fill*         0x06031c68        0x8 
 SLPROG         0x06031c70      0x42c D:/joengine-master/Compiler/COMMON/SGL_302j/LIB_ELF/LIBSGL.A(sglA20.o)
                0x06031c70                slInitMatrix
                0x06031c7a                slPushUnitMatrix
                0x06031c8e                slUnitMatrix
 *fill*         0x0603209c        0x4 
 SLPROG         0x060320a0       0x48 D:/joengine-master/Compiler/COMMON/SGL_302j/LIB_ELF/LIBSGL.A(sglA21.o)
                0x060320a0                slPushMatrix
                0x060320d4                slDecMatrixPtr
                0x060320d4                slPopMatrix
 *fill*         0x060320e8        0x8 
 SLPROG         0x060320f0       0x50 D:/joengine-master/Compiler/COMMON/SGL_302j/LIB_ELF/LIBSGL.A(sglA27.o)
                0x060320f0                slTranslate
 SLPROG         0x06032140       0x70 D:/joengine-master/Compiler/COMMON/SGL_302j/LIB_ELF/LIBSGL.A(sglA28.o)
                0x06032140                slScale
 SLPROG         0x060321b0       0x22 D:/joengine-master/Compiler/COMMON/SGL_302j/LIB_ELF/LIBSGL.A(sglA40.o)
                0x060321b0                slCalcVector
 *fill*         0x060321d2        0xe 
 SLPROG         0x060321e0       0x20 D:/joengine-master/Compiler/COMMON/SGL_302j/LIB_ELF/LIBSGL.A(sglB001.o)
                0x060321e0                slTVOn
                0x060321ea                slTVOff
 SLPROG         0x06032200       0x24 D:/joengine-master/Compiler/COMMON/SGL_302j/LIB_ELF/LIBSGL.A(sglB011.o)
                0x06032200                slBitMapNbg1
 *fill*         0x06032224        0xc 
 SLPROG         0x06032230        0x8 D:/joengine-master/Compiler/COMMON/SGL_302j/LIB_ELF/LIBSGL.A(sglB014.o)
                0x06032230                slScrTransparent
 *fill*         0x06032238        0x8 
 SLPROG         0x06032240      0x40c D:/joengine-master/Compiler/COMMON/SGL_302j/LIB_ELF/LIBSGL.A(sglB015.o)
                0x06032240                slScrAutoDisp
 *fill*         0x0603264c        0x4 
 SLPROG         0x06032650        0xc D:/joengine-master/Compiler/COMMON/SGL_302j/LIB_ELF/LIBSGL.A(sglB016.o)
                0x06032650                slBack1ColSet
 *fill*         0x0603265c        0x4 
 SLPROG         0x06032660       0x10 D:/joengine-master/Compiler/COMMON/SGL_302j/LIB_ELF/LIBSGL.A(sglB020.o)
                0x06032660                slColorCalc
 SLPROG         0x06032670        0xc D:/joengine-master/Compiler/COMMON/SGL_302j/LIB_ELF/LIBSGL.A(sglB021.o)
                0x06032670                slColorCalcOn
 *fill*         0x0603267c        0x4 
 SLPROG         0x06032680        0xc D:/joengine-master/Compiler/COMMON/SGL_302j/LIB_ELF/LIBSGL.A(sglB023.o)
                0x06032680                slColRate
 *fill*         0x0603268c        0x4 
 SLPROG         0x06032690       0xb0 D:/joengine-master/Compiler/COMMON/SGL_302j/LIB_ELF/LIBSGL.A(sglB031.o)
                0x06032690                slMapNbg0
 SLPROG         0x06032740       0xb4 D:/joengine-master/Compiler/COMMON/SGL_302j/LIB_ELF/LIBSGL.A(sglB032.o)
                0x06032740                slMapNbg1
 *fill*         0x060327f4        0xc 
 SLPROG         0x06032800       0xb0 D:/joengine-master/Compiler/COMMON/SGL_302j/LIB_ELF/LIBSGL.A(sglB033.o)
                0x06032800                slMapNbg2
 SLPROG         0x060328b0       0xb4 D:/joengine-master/Compiler/COMMON/SGL_302j/LIB_ELF/LIBSGL.A(sglB034.o)
                0x060328b0                slMapNbg3
 *fill*         0x06032964        0xc 
 SLPROG         0x06032970       0xd4 D:/joengine-master/Compiler/COMMON/SGL_302j/LIB_ELF/LIBSGL.A(sglB035.o)
                0x06032970                sl1MapRA
                0x06032a02                rbank_set
 *fill*         0x06032a44        0xc 
 SLPROG         0x06032a50       0xa0 D:/joengine-master/Compiler/COMMON/SGL_302j/LIB_ELF/LIBSGL.A(sglB036.o)
                0x06032a50                sl1MapRB
 SLPROG         0x06032af0       0x70 D:/joengine-master/Compiler/COMMON/SGL_302j/LIB_ELF/LIBSGL.A(sglB038.o)
                0x06032af0                slRparaInitSet
 SLPROG         0x06032b60       0x7e D:/joengine-master/Compiler/COMMON/SGL_302j/LIB_ELF/LIBSGL.A(sglB039.o)
                0x06032b60                slMakeKtable
 *fill*         0x06032bde        0x2 
 SLPROG         0x06032be0       0x58 D:/joengine-master/Compiler/COMMON/SGL_302j/LIB_ELF/LIBSGL.A(sglB040.o)
                0x06032be0                slKtableRA
 *fill*         0x06032c38        0x8 
 SLPROG         0x06032c40       0x5c D:/joengine-master/Compiler/COMMON/SGL_302j/LIB_ELF/LIBSGL.A(sglB041.o)
                0x06032c40                slKtableRB
 *fill*         0x06032c9c        0x4 
 SLPROG         0x06032ca0       0x10 D:/joengine-master/Compiler/COMMON/SGL_302j/LIB_ELF/LIBSGL.A(sglB042.o)
                0x06032ca0                slCurRpara
 SLPROG         0x06032cb0        0x8 D:/joengine-master/Compiler/COMMON/SGL_302j/LIB_ELF/LIBSGL.A(sglB043.o)
                0x06032cb0                slRparaMode
 *fill*         0x06032cb8        0x8 
 SLPROG         0x06032cc0      0x4e4 D:/joengine-master/Compiler/COMMON/SGL_302j/LIB_ELF/LIBSGL.A(sglB044.o)
                0x06032cc0                slScrMatSet
 *fill*         0x060331a4        0xc 
 SLPROG         0x060331b0       0x28 D:/joengine-master/Compiler/COMMON/SGL_302j/LIB_ELF/LIBSGL.A(sglB045.o)
                0x060331b0                slScrMatConv
 *fill*         0x060331d8        0x8 
 SLPROG         0x060331e0        0xc D:/joengine-master/Compiler/COMMON/SGL_302j/LIB_ELF/LIBSGL.A(sglB047.o)
                0x060331e0                slOverRA
 *fill*         0x060331ec        0x4 
 SLPROG         0x060331f0       0x10 D:/joengine-master/Compiler/COMMON/SGL_302j/LIB_ELF/LIBSGL.A(sglB048.o)
                0x060331f0                slOverRB
 SLPROG         0x06033200        0xc D:/joengine-master/Compiler/COMMON/SGL_302j/LIB_ELF/LIBSGL.A(sglB055.o)
                0x06033200                slPlaneNbg0
 *fill*         0x0603320c        0x4 
 SLPROG         0x06033210        0xc D:/joengine-master/Compiler/COMMON/SGL_302j/LIB_ELF/LIBSGL.A(sglB056.o)
                0x06033210                slPlaneNbg1
 *fill*         0x0603321c        0x4 
 SLPROG         0x06033220       0x10 D:/joengine-master/Compiler/COMMON/SGL_302j/LIB_ELF/LIBSGL.A(sglB057.o)
                0x06033220                slPlaneNbg2
 SLPROG         0x06033230       0x10 D:/joengine-master/Compiler/COMMON/SGL_302j/LIB_ELF/LIBSGL.A(sglB058.o)
                0x06033230                slPlaneNbg3
 SLPROG         0x06033240        0xc D:/joengine-master/Compiler/COMMON/SGL_302j/LIB_ELF/LIBSGL.A(sglB059.o)
                0x06033240                slPlaneRA
 *fill*         0x0603324c        0x4 
 SLPROG         0x06033250       0x10 D:/joengine-master/Compiler/COMMON/SGL_302j/LIB_ELF/LIBSGL.A(sglB060.o)
                0x06033250                slPlaneRB
 SLPROG         0x06033260        0xc D:/joengine-master/Compiler/COMMON/SGL_302j/LIB_ELF/LIBSGL.A(sglB063.o)
                0x06033260                slPriority
 *fill*         0x0603326c        0x4 
 SLPROG         0x06033270       0x18 D:/joengine-master/Compiler/COMMON/SGL_302j/LIB_ELF/LIBSGL.A(sglB087.o)
                0x06033270                slLineScrollTable0
 *fill*         0x06033288        0x8 
 SLPROG         0x06033290        0x8 D:/joengine-master/Compiler/COMMON/SGL_302j/LIB_ELF/LIBSGL.A(sglB088.o)
                0x06033290                slLineScrollTable1
 *fill*         0x06033298        0x8 
 SLPROG         0x060332a0        0xc D:/joengine-master/Compiler/COMMON/SGL_302j/LIB_ELF/LIBSGL.A(sglB090.o)
                0x060332a0                slLineScrollMode
 *fill*         0x060332ac        0x4 
 SLPROG         0x060332b0      0x114 D:/joengine-master/Compiler/COMMON/SGL_302j/LIB_ELF/LIBSGL.A(sglB200.o)
                0x060332b0                slCharRbg0
                0x060332bc                slCharNbg0
                0x060332c8                slCharNbg1
                0x060332d4                slCharNbg2
                0x060332ea                slCharNbg3
                0x06033302                slPageRbg0
                0x06033318                slPageNbg1
                0x06033320                slPageNbg2
                0x06033328                slPageNbg3
                0x06033334                slPageNbg0
 *fill*         0x060333c4        0xc 
 SLPROG         0x060333d0       0x6c D:/joengine-master/Compiler/COMMON/SGL_302j/LIB_ELF/LIBSGL.A(sglC01.o)
                0x060333d0                slPerspective
 *fill*         0x0603343c        0x4 
 SLPROG         0x06033440       0xc4 D:/joengine-master/Compiler/COMMON/SGL_302j/LIB_ELF/LIBSGL.A(sglC03.o)
                0x06033440                slWindow
 *fill*         0x06033504        0xc 
 SLPROG         0x06033510       0x2c D:/joengine-master/Compiler/COMMON/SGL_302j/LIB_ELF/LIBSGL.A(sglC04.o)
                0x06033510                slZdspLevel
 *fill*         0x0603353c        0x4 
 SLPROG         0x06033540       0x78 D:/joengine-master/Compiler/COMMON/SGL_302j/LIB_ELF/LIBSGL.A(sglC05.o)
                0x06033540                slSetSprite
 *fill*         0x060335b8        0x8 
 SLPROG         0x060335c0       0xfa D:/joengine-master/Compiler/COMMON/SGL_302j/LIB_ELF/LIBSGL.A(sglC06.o)
                0x060335c0                slDispSprite
 *fill*         0x060336ba        0x6 
 SLPROG         0x060336c0      0x162 D:/joengine-master/Compiler/COMMON/SGL_302j/LIB_ELF/LIBSGL.A(sglC07.o)
                0x060336c6                slPutSprite
 *fill*         0x06033822        0xe 
 SLPROG         0x06033830     0x1218 D:/joengine-master/Compiler/COMMON/SGL_302j/LIB_ELF/LIBSGL.A(sglC08.o)
                0x06033830                slPutPolygon
                0x060344ac                MsCalcDepthFlat
 *fill*         0x06034a48        0x8 
 SLPROG         0x06034a50       0x8c D:/joengine-master/Compiler/COMMON/SGL_302j/LIB_ELF/LIBSGL.A(sglC14.o)
                0x06034a50                slCurWindow
 *fill*         0x06034adc        0x4 
 SLPROG         0x06034ae0       0x54 D:/joengine-master/Compiler/COMMON/SGL_302j/LIB_ELF/LIBSGL.A(sglC16.o)
                0x06034ae0                slDynamicFrame
 *fill*         0x06034b34        0xc 
 SLPROG         0x06034b40       0x4c D:/joengine-master/Compiler/COMMON/SGL_302j/LIB_ELF/LIBSGL.A(sglC17.o)
                0x06034b40                slDispSpriteHV
 *fill*         0x06034b8c        0x4 
 SLPROG         0x06034b90       0xd4 D:/joengine-master/Compiler/COMMON/SGL_302j/LIB_ELF/LIBSGL.A(sglC19.o)
                0x06034b90                slDispSprite4P
 *fill*         0x06034c64        0xc 
 SLPROG         0x06034c70       0x40 D:/joengine-master/Compiler/COMMON/SGL_302j/LIB_ELF/LIBSGL.A(sglC20.o)
                0x06034c70                SpriteEntry
 SLPROG         0x06034cb0      0x4ae D:/joengine-master/Compiler/COMMON/SGL_302j/LIB_ELF/LIBSGL.A(sglC21.o)
                0x06034d38                RotSprite
                0x06034dc6                SetSprPosition
 *fill*         0x0603515e        0x2 
 SLPROG         0x06035160       0x84 D:/joengine-master/Compiler/COMMON/SGL_302j/LIB_ELF/LIBSGL.A(sglD00.o)
                0x06035160                slCpuDMACopy
                0x06035160                slDMACopy
                0x060351ba                CSH_AllClr
                0x060351ba                slCashPurge
 *fill*         0x060351e4        0xc 
 SLPROG         0x060351f0       0xa0 D:/joengine-master/Compiler/COMMON/SGL_302j/LIB_ELF/LIBSGL.A(sglD01.o)
                0x060351f0                slDMAXCopy
 SLPROG         0x06035290       0x10 D:/joengine-master/Compiler/COMMON/SGL_302j/LIB_ELF/LIBSGL.A(sglD02.o)
                0x06035290                slDMAWait
 SLPROG         0x060352a0        0xc D:/joengine-master/Compiler/COMMON/SGL_302j/LIB_ELF/LIBSGL.A(sglD03.o)
                0x060352a0                slDMAStatus
 *fill*         0x060352ac        0x4 
 SLPROG         0x060352b0       0x20 D:/joengine-master/Compiler/COMMON/SGL_302j/LIB_ELF/LIBSGL.A(sglD15.o)
                0x060352b0                CSH_Purge
 SLPROG         0x060352d0       0x84 D:/joengine-master/Compiler/COMMON/SGL_302j/LIB_ELF/LIBSGL.A(sglD16.o)
                0x060352d0                DMA_ScuSetPrm
                0x06035318                DMA_SCU_PRM0
 *fill*         0x06035354        0xc 
 SLPROG         0x06035360       0x88 D:/joengine-master/Compiler/COMMON/SGL_302j/LIB_ELF/LIBSGL.A(sglD17.o)
                0x06035360                DMA_ScuStart
 *fill*         0x060353e8        0x8 
 SLPROG         0x060353f0       0x34 D:/joengine-master/Compiler/COMMON/SGL_302j/LIB_ELF/LIBSGL.A(sglD18.o)
                0x060353f0                DMA_ScuGetStatus
 *fill*         0x06035424        0xc 
 SLPROG         0x06035430       0x34 D:/joengine-master/Compiler/COMMON/SGL_302j/LIB_ELF/LIBSGL.A(sglF08.o)
                0x06035430                slDec2Hex
 *fill*         0x06035464        0xc 
 SLPROG         0x06035470      0xfc8 D:/joengine-master/Compiler/COMMON/SGL_302j/LIB_ELF/LIBSGL.A(sglH00.o)
                0x06035488                slGetPortDir1
                0x06035490                slGetPortDir2
                0x06035498                slSetPortDir1
                0x060354c2                slSetPortDir2
                0x060354fc                slGetPortData1
                0x06035504                slGetPortData2
                0x0603550c                slSetPortData1
                0x06035516                slSetPortData2
                0x06035528                slGetPortSelect1
                0x06035532                slGetPortSelect2
                0x0603553c                slSetPortSelect1
                0x06035570                slSetPortSelect2
                0x060355ac                slGetPortExt1
                0x060355b6                slGetPortExt2
                0x060355c0                slSetPortExt1
                0x060355f0                slSetPortExt2
                0x06035764                slSmpcDirectAccess
                0x060357e4                slInitPeripheral
                0x06035876                slSetResultBuffer
                0x06035902                slCheckIntBackSet
                0x0603590e                slIntBackCancel
                0x06035938                slCheckReset
                0x06035942                slClearReset
                0x06035b08                slSmpcCashSend
                0x06035bc4                slSmpcCashBlow
                0x06035ca0                slGetOptimize
                0x06035caa                slSetOptimize
                0x06035cd0                slGetPortMode1
                0x06035cdc                slGetPortMode2
                0x06035cea                slSetPortMode1
                0x06035d28                slSetPortMode2
                0x06035eb4                slRequestCommand
                0x06035f24                Smpc_Status
                0x06035f28                Smpc_Result
                0x06035f2c                Smpc_Peripheral
                0x06035f32                Per_Connect1
                0x06035f33                Per_Connect2
                0x06035f54                SmpcStatusBuf
 *fill*         0x06036438        0x8 
 SLPROG         0x06036440       0xa8 D:/joengine-master/Compiler/COMMON/SGL_302j/LIB_ELF/LIBSGL.A(sglH01.o)
                0x06036440                slGetLanguage
                0x0603644a                slSetLanguage
                0x0603646c                slGetSoundEffect
                0x06036478                slSetSoundEffect
                0x06036494                slGetSoundOutput
                0x060364a0                slSetSoundOutput
                0x060364bc                slGetHelpWindow
                0x060364c8                slSetHelpWindow
 *fill*         0x060364e8        0x8 
 SLPROG         0x060364f0      0x470 D:/joengine-master/Compiler/COMMON/SGL_302j/LIB_ELF/LIBSGL.A(sglH02.o)
                0x060368e0                smpc_pfr_tbl
                0x06036920                smpc_ptf_tbl
 SLPROG         0x06036960       0x60 D:/joengine-master/Compiler/COMMON/SGL_302j/LIB_ELF/LIBSGL.A(sglH04.o)
                0x06036960                slComPrmIntBack
                0x06036974                slComPrmSetMemory
                0x0603698a                slComPrmSetTime
 SLPROG         0x060369c0      0x3a4 D:/joengine-master/Compiler/COMMON/SGL_302j/LIB_ELF/LIBSGL.A(sglI01.o)
                0x060369c0                slInitSynch
                0x060369da                slSynch
                0x06036ad0                slRandom
                0x06036aee                PCM_EndCheck
                0x06036baa                RetPCMBuf
                0x06036c44                PCM_Buf
                0x06036ce4                Sound_Buf
 *fill*         0x06036d64        0xc 
 SLPROG         0x06036d70       0x10 D:/joengine-master/Compiler/COMMON/SGL_302j/LIB_ELF/LIBSGL.A(sglI04.o)
                0x06036d70                slIntFunction
 SLPROG         0x06036d80       0x74 D:/joengine-master/Compiler/COMMON/SGL_302j/LIB_ELF/LIBSGL.A(sglJ00.o)
                0x06036d80                InitSlaveSH
                0x06036de8                SlaveCommand
 *fill*         0x06036df4        0xc 
 SLPROG         0x06036e00      0x3d0 D:/joengine-master/Compiler/COMMON/SGL_302j/LIB_ELF/LIBSGL.A(sglJ01.o)
                0x06036e00                SlaveControl
                0x060371bc                ErasePolygonData
 SLPROG         0x060371d0     0x12b8 D:/joengine-master/Compiler/COMMON/SGL_302j/LIB_ELF/LIBSGL.A(sglJ02.o)
                0x060371d0                sbMakePolygon
                0x060373b8                sbCalcPolygon
                0x060380f0                SetTexture
                0x060380fc                SetPolygon
                0x06038104                SetPosition
                0x0603813c                stvtc_4
                0x060381f4                stvtc_3
                0x06038404                stvtc_1
                0x06038418                stvtc_2
                0x0603842c                stvtc_0
 *fill*         0x06038488        0x8 
 SLPROG         0x06038490      0x140 D:/joengine-master/Compiler/COMMON/SGL_302j/LIB_ELF/LIBSGL.A(sglJ03.o)
                0x06038490                sbMakeDMATable
 SLPROG         0x060385d0      0x470 D:/joengine-master/Compiler/COMMON/SGL_302j/LIB_ELF/LIBSGL.A(sglJ04.o)
                0x0603862e                sbMakeSprite
                0x06038694                sbMakeRotSprite
 SLPROG         0x06038a40       0x3c D:/joengine-master/Compiler/COMMON/SGL_302j/LIB_ELF/LIBSGL.A(sglJ05.o)
                0x06038a40                sbSortEntry
 *fill*         0x06038a7c        0x4 
 SLPROG         0x06038a80      0x4b8 D:/joengine-master/Compiler/COMMON/SGL_302j/LIB_ELF/LIBSGL.A(sglM00.o)
                0x06038a80                slInitGouraud
                0x06038b74                slPutPolygonX
                0x06038bba                slGouraudTblCopy
                0x06038c12                slSetGouraudTbl
                0x06038c18                slSetGouraudColor
                0x06038c90                slSetAmbient
                0x06038cb4                slSetFlatColor
 *fill*         0x06038f38        0x8 
 SLPROG         0x06038f40       0x6a D:/joengine-master/Compiler/COMMON/SGL_302j/LIB_ELF/LIBSGL.A(sglM01.o)
                0x06038f40                slSetDepthLimit
                0x06038f6c                slSetDepthTbl
                0x06038f9c                DepthWorkArea
 *fill*         0x06038faa        0x6 
 SLPROG         0x06038fb0       0x20 D:/joengine-master/Compiler/COMMON/SGL_302j/LIB_ELF/LIBSGL.A(sglA00.o)
                0x06038fb0                set_imask
                0x06038fb0                _builtin_set_imask
                0x06038fc4                _builtin_get_imask
                0x06038fc4                get_imask
 SLPROG         0x06038fd0     0x215c D:/joengine-master/Compiler/COMMON/SGL_302j/LIB_ELF/LIBSGL.A(sglA03.o)
                0x06038fd0                slTan
 *fill*         0x0603b12c        0x4 
 SLPROG         0x0603b130       0x34 D:/joengine-master/Compiler/COMMON/SGL_302j/LIB_ELF/LIBSGL.A(sglA10.o)
                0x0603b130                slSquartDbl
 *fill*         0x0603b164        0xc 
 SLPROG         0x0603b170      0x3c2 D:/joengine-master/Compiler/COMMON/SGL_302j/LIB_ELF/LIBSGL.A(sglA24.o)
                0x0603b170                slInversMatrix
 *fill*         0x0603b532        0xe 
 SLPROG         0x0603b540       0x24 D:/joengine-master/Compiler/COMMON/SGL_302j/LIB_ELF/LIBSGL.A(sglA25.o)
                0x0603b540                slTransposeMatrix
 *fill*         0x0603b564        0xc 
 SLPROG         0x0603b570      0xbd0 D:/joengine-master/Compiler/COMMON/SGL_302j/LIB_ELF/LIBSGL.A(sglB000.o)
                0x0603b570                slInitScroll
                0x0603b690                setASC_1to8
                0x0603b6c0                setASC_4to8
                0x0603b7d0                TVSizeTbl
                0x0603b850                TVModeTbl
                0x0603ba28                SGL_ASCII_CG
 SLPROG         0x0603c140      0x134 D:/joengine-master/Compiler/COMMON/SGL_302j/LIB_ELF/LIBSGL.A(sglC00.o)
                0x0603c140                slInitSprite
 *fill*         0x0603c274        0xc 
 SLPROG         0x0603c280       0xac D:/joengine-master/Compiler/COMMON/SGL_302j/LIB_ELF/LIBSGL.A(sglC13.o)
                0x0603c280                slPutPolygonS
 *fill*         0x0603c32c        0x4 
 SLPROG         0x0603c330       0xc0 D:/joengine-master/Compiler/COMMON/SGL_302j/LIB_ELF/LIBSGL.A(sglD19.o)
                0x0603c330                DMA_ScuMemCopy
 SLPROG         0x0603c3f0      0x75c D:/joengine-master/Compiler/COMMON/SGL_302j/LIB_ELF/LIBSGL.A(sglI00.o)
                0x0603c6e0                slInitInterrupt
 *fill*         0x0603cb4c        0x4 
 SLPROG         0x0603cb50       0xf0 D:/joengine-master/Compiler/COMMON/SGL_302j/LIB_ELF/LIBSGL.A(sglH03.o)
                0x0603cbb4                slSmpcIntBack
                0x0603cc40                __slprog_end = .

.tors           0x0603cc40        0x0
                0x0603cc40                ___ctors = .
 *(.ctors)
                0x0603cc40                ___ctors_end = .
                0x0603cc40                ___dtors = .
 *(.dtors)
                0x0603cc40                ___dtors_end = .

.data           0x0603cc40    0x11860
 *(.data)
 .data          0x0603cc40        0x0 D:/joengine-master/Compiler/COMMON/SGL_302j/LIB_ELF/SGLAREA.O
 .data          0x0603cc40    0x11328 main.o
                0x0603cc44                music_vol
                0x0603cc45                sfx_volume
                0x0603cc46                saved_cam_mode
                0x0603cc47                cam_mode
                0x0603cc48                object_scale
                0x0603cc4c                gridsize
                0x0603cc50                wmax_gravity
                0x0603cc54                max_gravity
                0x0603cc59                enableRTG
                0x0603cc5c                g_saturn_transport
                0x0603cc78                player4_img_data
                0x0603ccfc                player3_img_data
                0x0603cd80                player2_img_data
                0x0603ce04                player1_img_data
                0x0603ce88                car_img_data
                0x0603ceb8                RLIGHT
                0x0603cec4                RLIGHT_PALETTE
                0x0603cee4                RLIGHT_DATA
                0x0603cf64                BOMB
                0x0603cf70                BOMB_PALETTE
                0x0603cf90                BOMB_DATA
                0x0603d010                GEM
                0x0603d01c                GEM_PALETTE
                0x0603d03c                GEM_DATA
                0x0603d0bc                BOX
                0x0603d0c8                BOX_PALETTE
                0x0603d0e8                BOX_DATA
                0x0603d168                FIRE
                0x0603d174                FIRE_PALETTE
                0x0603d194                FIRE_DATA
                0x0603d214                P4_FBIRD2
                0x0603d220                P3_FBIRD2
                0x0603d22c                P2_FBIRD2
                0x0603d238                P1_FBIRD2
                0x0603d244                FBIRD2_DATA
                0x0603d2c4                P4_FBIRD1
                0x0603d2d0                P3_FBIRD1
                0x0603d2dc                P2_FBIRD1
                0x0603d2e8                P1_FBIRD1
                0x0603d2f4                FBIRD1_DATA
                0x0603d374                P4_FIVE
                0x0603d380                P3_FIVE
                0x0603d38c                P2_FIVE
                0x0603d398                P1_FIVE
                0x0603d3a4                FIVE_DATA
                0x0603d424                P4_36
                0x0603d430                P3_36
                0x0603d43c                P2_36
                0x0603d448                P1_36
                0x0603d454                P1_36_DATA
                0x0603d458                P4_35
                0x0603d464                P3_35
                0x0603d470                P2_35
                0x0603d47c                P1_35
                0x0603d488                P1_35_DATA
                0x0603d48c                P4_34
                0x0603d498                P3_34
                0x0603d4a4                P2_34
                0x0603d4b0                P1_34
                0x0603d4bc                P1_34_DATA
                0x0603d4c0                P4_33
                0x0603d4cc                P3_33
                0x0603d4d8                P2_33
                0x0603d4e4                P1_33
                0x0603d4f0                P1_33_DATA
                0x0603d4f4                P4_32
                0x0603d500                P3_32
                0x0603d50c                P2_32
                0x0603d518                P1_32
                0x0603d524                P1_32_DATA
                0x0603d528                GUN2
                0x0603d534                GUN2_DATA
                0x0603d5b4                GUN1
                0x0603d5c0                GUN1_DATA
                0x0603d640                CLOUD
                0x0603d64c                CLOUD_PALETTE
                0x0603d66c                CLOUD_DATA
                0x0603d6ec                SHADOW
                0x0603d6f8                SHADOW_PALETTE
                0x0603d718                SHADOW_DATA
                0x0603d798                WHEEL
                0x0603d7a4                WHEEL_DATA
                0x0603d824                TYRE
                0x0603d830                TYRE_DATA
                0x0603d8b0                P4_25
                0x0603d8bc                P3_25
                0x0603d8c8                P2_25
                0x0603d8d4                P1_25
                0x0603d8e0                P1_25_DATA
                0x0603d960                P4_24
                0x0603d96c                P3_24
                0x0603d978                P2_24
                0x0603d984                P1_24
                0x0603d990                P1_24_DATA
                0x0603da10                P4_23
                0x0603da1c                P3_23
                0x0603da28                P2_23
                0x0603da34                P1_23
                0x0603da40                P1_23_DATA
                0x0603dac0                P4_22
                0x0603dacc                P3_22
                0x0603dad8                P2_22
                0x0603dae4                P1_22
                0x0603daf0                P1_22_DATA
                0x0603db70                P4_21
                0x0603db7c                P3_21
                0x0603db88                P2_21
                0x0603db94                P1_21
                0x0603dba0                P1_21_DATA
                0x0603dc20                P4_20
                0x0603dc2c                P3_20
                0x0603dc38                P2_20
                0x0603dc44                P1_20
                0x0603dc50                P1_20_DATA
                0x0603dcd0                P4_19
                0x0603dcdc                P3_19
                0x0603dce8                P2_19
                0x0603dcf4                P1_19
                0x0603dd00                P1_19_DATA
                0x0603dd80                P4_18
                0x0603dd8c                P3_18
                0x0603dd98                P2_18
                0x0603dda4                P1_18
                0x0603ddb0                P1_18_DATA
                0x0603de30                P4_17
                0x0603de3c                P3_17
                0x0603de48                P2_17
                0x0603de54                P1_17
                0x0603de60                P1_17_DATA
                0x0603dee0                P4_16
                0x0603deec                P3_16
                0x0603def8                P2_16
                0x0603df04                P1_16
                0x0603df10                P1_16_DATA
                0x0603df90                P4_15
                0x0603df9c                P3_15
                0x0603dfa8                P2_15
                0x0603dfb4                P1_15
                0x0603dfc0                P1_15_DATA
                0x0603e040                P4_14
                0x0603e04c                P3_14
                0x0603e058                P2_14
                0x0603e064                P1_14
                0x0603e070                P1_14_DATA
                0x0603e0f0                P4_13
                0x0603e0fc                P3_13
                0x0603e108                P2_13
                0x0603e114                P1_13
                0x0603e120                P1_13_DATA
                0x0603e1a0                P4_12
                0x0603e1ac                P3_12
                0x0603e1b8                P2_12
                0x0603e1c4                P1_12
                0x0603e1d0                P1_12_DATA
                0x0603e250                P4_11
                0x0603e25c                P3_11
                0x0603e268                P2_11
                0x0603e274                P1_11
                0x0603e280                P1_11_DATA
                0x0603e300                P4_10
                0x0603e30c                P3_10
                0x0603e318                P2_10
                0x0603e324                P1_10
                0x0603e330                P1_10_DATA
                0x0603e3b0                P4_09
                0x0603e3bc                P3_09
                0x0603e3c8                P2_09
                0x0603e3d4                P1_09
                0x0603e3e0                P1_09_DATA
                0x0603e460                P4_08
                0x0603e46c                P3_08
                0x0603e478                P2_08
                0x0603e484                P1_08
                0x0603e490                P1_08_DATA
                0x0603e510                P4_07
                0x0603e51c                P3_07
                0x0603e528                P2_07
                0x0603e534                P1_07
                0x0603e540                P1_07_DATA
                0x0603e5c0                P4_06
                0x0603e5cc                P3_06
                0x0603e5d8                P2_06
                0x0603e5e4                P1_06
                0x0603e5f0                P1_06_DATA
                0x0603e670                P4_05
                0x0603e67c                P3_05
                0x0603e688                P2_05
                0x0603e694                P1_05
                0x0603e6a0                P1_05_DATA
                0x0603e720                P4_04
                0x0603e72c                P3_04
                0x0603e738                P2_04
                0x0603e744                P1_04
                0x0603e750                P1_04_DATA
                0x0603e7d0                P4_03
                0x0603e7dc                P3_03
                0x0603e7e8                P2_03
                0x0603e7f4                P1_03
                0x0603e800                P1_03_DATA
                0x0603e880                P4_02
                0x0603e88c                P3_02
                0x0603e898                P2_02
                0x0603e8a4                P1_02
                0x0603e8b0                P1_02_DATA
                0x0603e930                P4_01
                0x0603e93c                P3_01
                0x0603e948                P2_01
                0x0603e954                P1_01
                0x0603e960                P1_01_DATA
                0x0603e9e0                P4_S_PALETTE
                0x0603ea00                P3_S_PALETTE
                0x0603ea20                P2_S_PALETTE
                0x0603ea40                P1_S_PALETTE
                0x0603ea60                PART
                0x0603ea6c                PART_PALETTE
                0x0603ea8c                PART_DATA
                0x0603eb0c                menu_endlevellose
                0x0603eb14                menu_endlevelwin
                0x0603eb1c                menu_endlevel
                0x0603eb24                menu_pause
                0x0603eb40                menu_extra
                0x0603eb4c                menu_titlescreen
                0x0603eb60                cam_modes
                0x0603eb6c                default_colour
                0x0603ebcc                shadow_colour
                0x0603ec1a                colour_options
                0x0603ec68                level_data
                0x0603f3c8                points_table
                0x0603f3dc                survival_target_time
                0x0603f3e0                survival_preview
                0x0603f3e4                car_name
                0x0603f404                track_layout
                0x06040508                car_data
                0x06040528                pup_data
                0x0604052c                map_data_lp
                0x06040530                map_data
                0x06040534                PD_ZERO
                0x06040548                pdata_WP
                0x0604055c                attribute_WP
                0x060405a4                polygon_WP
                0x0604061c                point_WP
                0x0604067c                pdata_CC
                0x06040690                attribute_CC
                0x060406d8                polygon_CC
                0x06040750                point_CC
                0x060407b0                xpdata_PUP_RANDOM
                0x060407c8                normal_PUP_RANDOM
                0x06040828                attribute_PUP_RANDOM
                0x06040870                polygon_PUP_RANDOM
                0x060408e8                point_PUP_RANDOM
                0x06040948                xpdata_invincible_effect
                0x06040960                normal_invincible_effect
                0x06040a08                attribute_invincible_effect
                0x06040a50                polygon_invincible_effect
                0x06040ac8                point_invincible_effect
                0x06040b70                xpdata_spin_effect
                0x06040b88                normal_spin_effect
                0x06040c30                attribute_spin_effect
                0x06040c78                polygon_spin_effect
                0x06040cf0                point_spin_effect
                0x06040d98                xpdata_die_effect
                0x06040db0                normal_die_effect
                0x06040e40                attribute_die_effect
                0x06040e88                polygon_die_effect
                0x06040f00                point_die_effect
                0x06040f90                xpdata_splash_effect
                0x06040fa8                normal_splash_effect
                0x06041038                attribute_splash_effect
                0x06041080                polygon_splash_effect
                0x060410f8                point_splash_effect
                0x06041188                xpdata_ham_shadow
                0x060411a0                normal_ham_shadow
                0x060411d0                attribute_ham_shadow
                0x060411dc                polygon_ham_shadow
                0x060411f0                point_ham_shadow
                0x06041220                xpdata_EXPLOSION
                0x06041238                normal_EXPLOSION
                0x06041328                attribute_EXPLOSION
                0x06041448                polygon_EXPLOSION
                0x06041628                point_EXPLOSION
                0x06041718                xpdata_WHEEL_FL
                0x06041730                normal_WHEEL_FL
                0x06041820                attribute_WHEEL_FL
                0x0604188c                polygon_WHEEL_FL
                0x06041940                point_WHEEL_FL
                0x06041a30                xpdata_WHEEL_FR
                0x06041a48                normal_WHEEL_FR
                0x06041b38                attribute_WHEEL_FR
                0x06041ba4                polygon_WHEEL_FR
                0x06041c58                point_WHEEL_FR
                0x06041d48                xpdata_WHEEL_RR
                0x06041d60                normal_WHEEL_RR
                0x06041e50                attribute_WHEEL_RR
                0x06041ebc                polygon_WHEEL_RR
                0x06041f70                point_WHEEL_RR
                0x06042060                xpdata_WHEEL_RL
                0x06042078                normal_WHEEL_RL
                0x06042168                attribute_WHEEL_RL
                0x060421d4                polygon_WHEEL_RL
                0x06042288                point_WHEEL_RL
                0x06042378                xpdata_ATT_ROCKET_FIRE
                0x06042390                normal_ATT_ROCKET_FIRE
                0x06042444                attribute_ATT_ROCKET_FIRE
                0x060424a4                polygon_ATT_ROCKET_FIRE
                0x06042544                point_ATT_ROCKET_FIRE
                0x060425f8                xpdata_ATT_ROCKET
                0x06042610                normal_ATT_ROCKET
                0x06042760                attribute_ATT_ROCKET
                0x06042838                polygon_ATT_ROCKET
                0x060429a0                point_ATT_ROCKET
                0x06042af0                xpdata_MISSILE
                0x06042b08                normal_MISSILE
                0x06042c28                attribute_MISSILE
                0x06042cdc                polygon_MISSILE
                0x06042e08                point_MISSILE
                0x06042f28                xpdata_ATT_GUN
                0x06042f40                normal_ATT_GUN
                0x06043000                attribute_ATT_GUN
                0x06043078                polygon_ATT_GUN
                0x06043140                point_ATT_GUN
                0x06043200                xpdata_P8_CAR
                0x06043218                normal_P8_CAR
                0x0604365c                attribute_P8_CAR
                0x0604398c                polygon_P8_CAR
                0x06043edc                point_P8_CAR
                0x06044320                xpdata_P7_CAR
                0x06044338                normal_P7_CAR
                0x0604477c                attribute_P7_CAR
                0x06044aac                polygon_P7_CAR
                0x06044ffc                point_P7_CAR
                0x06045440                xpdata_P6_CAR
                0x06045458                normal_P6_CAR
                0x0604589c                attribute_P6_CAR
                0x06045bcc                polygon_P6_CAR
                0x0604611c                point_P6_CAR
                0x06046560                xpdata_P5_CAR
                0x06046578                normal_P5_CAR
                0x060469bc                attribute_P5_CAR
                0x06046cec                polygon_P5_CAR
                0x0604723c                point_P5_CAR
                0x06047680                xpdata_P4_CAR
                0x06047698                normal_P4_CAR
                0x06047adc                attribute_P4_CAR
                0x06047e0c                polygon_P4_CAR
                0x0604835c                point_P4_CAR
                0x060487a0                xpdata_P3_CAR
                0x060487b8                normal_P3_CAR
                0x06048bfc                attribute_P3_CAR
                0x06048f2c                polygon_P3_CAR
                0x0604947c                point_P3_CAR
                0x060498c0                xpdata_P2_CAR
                0x060498d8                normal_P2_CAR
                0x06049d1c                attribute_P2_CAR
                0x0604a04c                polygon_P2_CAR
                0x0604a59c                point_P2_CAR
                0x0604a9e0                xpdata_P1_CAR
                0x0604a9f8                normal_P1_CAR
                0x0604ae3c                attribute_P1_CAR
                0x0604b16c                polygon_P1_CAR
                0x0604b6bc                point_P1_CAR
                0x0604bb00                xpdata_WALLS
                0x0604bb18                normal_WALLS
                0x0604bcc8                attribute_WALLS
                0x0604bde8                polygon_WALLS
                0x0604bfc8                point_WALLS
                0x0604c1b8                GRreal
 .data          0x0604df68        0x0 collision.o
 .data          0x0604df68        0xc pcmsys.o
                0x0604df68                master_volume
                0x0604df6c                scsp_load
                0x0604df70                m68k_com
 .data          0x0604df74       0x15 name_entry.o
 *fill*         0x0604df89        0x3 
 .data          0x0604df8c        0x4 connecting.o
 .data          0x0604df90        0x0 lobby.o
 .data          0x0604df90        0x0 net/mmm_net.o
 .data          0x0604df90        0x0 libc_stubs.o
 .data          0x0604df90        0x0 D:/joengine-master/jo_engine/backup.o
 .data          0x0604df90        0x0 D:/joengine-master/jo_engine/tga.o
 .data          0x0604df90       0x28 D:/joengine-master/jo_engine/3d.o
 .data          0x0604dfb8        0x4 D:/joengine-master/jo_engine/fs.o
 .data          0x0604dfbc        0x0 D:/joengine-master/jo_engine/slave.o
 .data          0x0604dfbc        0x0 D:/joengine-master/jo_engine/font.o
 .data          0x0604dfbc        0x0 D:/joengine-master/jo_engine/input.o
 .data          0x0604dfbc        0x0 D:/joengine-master/jo_engine/physics.o
 .data          0x0604dfbc        0x0 D:/joengine-master/jo_engine/core.o
 .data          0x0604dfbc        0x4 D:/joengine-master/jo_engine/math.o
                0x0604dfbc                jo_random_seed
 .data          0x0604dfc0        0x0 D:/joengine-master/jo_engine/malloc.o
 .data          0x0604dfc0        0x0 D:/joengine-master/jo_engine/tools.o
 .data          0x0604dfc0        0x0 D:/joengine-master/jo_engine/palette.o
 .data          0x0604dfc0       0x2c D:/joengine-master/jo_engine/sprites.o
                0x0604dfc4                __jo_gouraud_shading_runtime_index
                0x0604dfc8                __jo_sprite_pos
                0x0604dfd4                __jo_sprite_attributes
 .data          0x0604dfec        0x0 D:/joengine-master/jo_engine/map.o
 .data          0x0604dfec        0x0 D:/joengine-master/jo_engine/list.o
 .data          0x0604dfec        0x4 D:/joengine-master/jo_engine/sprite_animator.o
 .data          0x0604dff0        0x0 D:/joengine-master/jo_engine/image.o
 .data          0x0604dff0        0x0 D:/joengine-master/jo_engine/vdp2.o
 .data          0x0604dff0        0x0 D:/joengine-master/jo_engine/time.o
 .data          0x0604dff0        0x0 D:/joengine-master/jo_engine/vdp1_command_pipeline.o
 .data          0x0604dff0       0x10 D:/joengine-master/jo_engine/vdp2_malloc.o
 .data          0x0604e000        0x0 D:/joengine-master/Compiler/COMMON/SGL_302j/LIB_ELF/SEGA_SYS.A(sys_exit.o)
 .data          0x0604e000        0x0 D:/joengine-master/Compiler/COMMON/SGL_302j/LIB_ELF/SEGA_SYS.A(sys_sub.o)
 .data          0x0604e000        0x0 D:/joengine-master/Compiler/COMMON/SGL_302j/LIB_ELF/LIBCD.A(CDC_CMN.O)
 .data          0x0604e000        0x0 D:/joengine-master/Compiler/COMMON/SGL_302j/LIB_ELF/LIBCD.A(CDC_DRV.O)
 .data          0x0604e000        0x0 D:/joengine-master/Compiler/COMMON/SGL_302j/LIB_ELF/LIBCD.A(CDC_CFS.O)
 .data          0x0604e000        0x0 D:/joengine-master/Compiler/COMMON/SGL_302j/LIB_ELF/LIBCD.A(CDC_REG.O)
 .data          0x0604e000        0x0 D:/joengine-master/Compiler/COMMON/SGL_302j/LIB_ELF/LIBCD.A(CDC_SUB.O)
 .data          0x0604e000        0x0 D:/joengine-master/Compiler/COMMON/SGL_302j/LIB_ELF/LIBCD.A(GFS.O)
 .data          0x0604e000        0x0 D:/joengine-master/Compiler/COMMON/SGL_302j/LIB_ELF/LIBCD.A(GFS_BUF.O)
 .data          0x0604e000        0x0 D:/joengine-master/Compiler/COMMON/SGL_302j/LIB_ELF/LIBCD.A(GFS_CDB.O)
 .data          0x0604e000        0x0 D:/joengine-master/Compiler/COMMON/SGL_302j/LIB_ELF/LIBCD.A(GFS_CDC.O)
 .data          0x0604e000        0x0 D:/joengine-master/Compiler/COMMON/SGL_302j/LIB_ELF/LIBCD.A(GFS_CDF.O)
 .data          0x0604e000        0x0 D:/joengine-master/Compiler/COMMON/SGL_302j/LIB_ELF/LIBCD.A(GFS_DIR.O)
 .data          0x0604e000        0x0 D:/joengine-master/Compiler/COMMON/SGL_302j/LIB_ELF/LIBCD.A(GFS_TRN.O)
 .data          0x0604e000        0x0 D:/joengine-master/Compiler/COMMON/SGL_302j/LIB_ELF/LIBCD.A(CDC_DEV.O)
 .data          0x0604e000        0x0 D:/joengine-master/Compiler/COMMON/SGL_302j/LIB_ELF/LIBCD.A(CDC_SEL.O)
 .data          0x0604e000        0x0 D:/joengine-master/Compiler/COMMON/SGL_302j/LIB_ELF/LIBCD.A(CDC_BIF.O)
 .data          0x0604e000        0x0 D:/joengine-master/Compiler/COMMON/SGL_302j/LIB_ELF/LIBCD.A(CDC_BIO.O)
 .data          0x0604e000        0x0 D:/joengine-master/Compiler/COMMON/SGL_302j/LIB_ELF/LIBSGL.A(sglA01.o)
 .data          0x0604e000        0x0 D:/joengine-master/Compiler/COMMON/SGL_302j/LIB_ELF/LIBSGL.A(sglA15.o)
 .data          0x0604e000        0x0 D:/joengine-master/Compiler/COMMON/SGL_302j/LIB_ELF/LIBSGL.A(sglA16.o)
 .data          0x0604e000        0x0 D:/joengine-master/Compiler/COMMON/SGL_302j/LIB_ELF/LIBSGL.A(sglA17.o)
 .data          0x0604e000        0x0 D:/joengine-master/Compiler/COMMON/SGL_302j/LIB_ELF/LIBSGL.A(sglA18.o)
 .data          0x0604e000        0x0 D:/joengine-master/Compiler/COMMON/SGL_302j/LIB_ELF/LIBSGL.A(sglA19.o)
 .data          0x0604e000        0x0 D:/joengine-master/Compiler/COMMON/SGL_302j/LIB_ELF/LIBSGL.A(sglA20.o)
 .data          0x0604e000        0x0 D:/joengine-master/Compiler/COMMON/SGL_302j/LIB_ELF/LIBSGL.A(sglA21.o)
 .data          0x0604e000        0x0 D:/joengine-master/Compiler/COMMON/SGL_302j/LIB_ELF/LIBSGL.A(sglA27.o)
 .data          0x0604e000        0x0 D:/joengine-master/Compiler/COMMON/SGL_302j/LIB_ELF/LIBSGL.A(sglA28.o)
 .data          0x0604e000        0x0 D:/joengine-master/Compiler/COMMON/SGL_302j/LIB_ELF/LIBSGL.A(sglA40.o)
 .data          0x0604e000        0x0 D:/joengine-master/Compiler/COMMON/SGL_302j/LIB_ELF/LIBSGL.A(sglB001.o)
 .data          0x0604e000        0x0 D:/joengine-master/Compiler/COMMON/SGL_302j/LIB_ELF/LIBSGL.A(sglB011.o)
 .data          0x0604e000        0x0 D:/joengine-master/Compiler/COMMON/SGL_302j/LIB_ELF/LIBSGL.A(sglB014.o)
 .data          0x0604e000        0x0 D:/joengine-master/Compiler/COMMON/SGL_302j/LIB_ELF/LIBSGL.A(sglB015.o)
 .data          0x0604e000        0x0 D:/joengine-master/Compiler/COMMON/SGL_302j/LIB_ELF/LIBSGL.A(sglB016.o)
 .data          0x0604e000        0x0 D:/joengine-master/Compiler/COMMON/SGL_302j/LIB_ELF/LIBSGL.A(sglB020.o)
 .data          0x0604e000        0x0 D:/joengine-master/Compiler/COMMON/SGL_302j/LIB_ELF/LIBSGL.A(sglB021.o)
 .data          0x0604e000        0x0 D:/joengine-master/Compiler/COMMON/SGL_302j/LIB_ELF/LIBSGL.A(sglB023.o)
 .data          0x0604e000        0x0 D:/joengine-master/Compiler/COMMON/SGL_302j/LIB_ELF/LIBSGL.A(sglB031.o)
 .data          0x0604e000        0x0 D:/joengine-master/Compiler/COMMON/SGL_302j/LIB_ELF/LIBSGL.A(sglB032.o)
 .data          0x0604e000        0x0 D:/joengine-master/Compiler/COMMON/SGL_302j/LIB_ELF/LIBSGL.A(sglB033.o)
 .data          0x0604e000        0x0 D:/joengine-master/Compiler/COMMON/SGL_302j/LIB_ELF/LIBSGL.A(sglB034.o)
 .data          0x0604e000        0x0 D:/joengine-master/Compiler/COMMON/SGL_302j/LIB_ELF/LIBSGL.A(sglB035.o)
 .data          0x0604e000        0x0 D:/joengine-master/Compiler/COMMON/SGL_302j/LIB_ELF/LIBSGL.A(sglB036.o)
 .data          0x0604e000        0x0 D:/joengine-master/Compiler/COMMON/SGL_302j/LIB_ELF/LIBSGL.A(sglB038.o)
 .data          0x0604e000        0x0 D:/joengine-master/Compiler/COMMON/SGL_302j/LIB_ELF/LIBSGL.A(sglB039.o)
 .data          0x0604e000        0x0 D:/joengine-master/Compiler/COMMON/SGL_302j/LIB_ELF/LIBSGL.A(sglB040.o)
 .data          0x0604e000        0x0 D:/joengine-master/Compiler/COMMON/SGL_302j/LIB_ELF/LIBSGL.A(sglB041.o)
 .data          0x0604e000        0x0 D:/joengine-master/Compiler/COMMON/SGL_302j/LIB_ELF/LIBSGL.A(sglB042.o)
 .data          0x0604e000        0x0 D:/joengine-master/Compiler/COMMON/SGL_302j/LIB_ELF/LIBSGL.A(sglB043.o)
 .data          0x0604e000        0x0 D:/joengine-master/Compiler/COMMON/SGL_302j/LIB_ELF/LIBSGL.A(sglB044.o)
 .data          0x0604e000        0x0 D:/joengine-master/Compiler/COMMON/SGL_302j/LIB_ELF/LIBSGL.A(sglB045.o)
 .data          0x0604e000        0x0 D:/joengine-master/Compiler/COMMON/SGL_302j/LIB_ELF/LIBSGL.A(sglB047.o)
 .data          0x0604e000        0x0 D:/joengine-master/Compiler/COMMON/SGL_302j/LIB_ELF/LIBSGL.A(sglB048.o)
 .data          0x0604e000        0x0 D:/joengine-master/Compiler/COMMON/SGL_302j/LIB_ELF/LIBSGL.A(sglB055.o)
 .data          0x0604e000        0x0 D:/joengine-master/Compiler/COMMON/SGL_302j/LIB_ELF/LIBSGL.A(sglB056.o)
 .data          0x0604e000        0x0 D:/joengine-master/Compiler/COMMON/SGL_302j/LIB_ELF/LIBSGL.A(sglB057.o)
 .data          0x0604e000        0x0 D:/joengine-master/Compiler/COMMON/SGL_302j/LIB_ELF/LIBSGL.A(sglB058.o)
 .data          0x0604e000        0x0 D:/joengine-master/Compiler/COMMON/SGL_302j/LIB_ELF/LIBSGL.A(sglB059.o)
 .data          0x0604e000        0x0 D:/joengine-master/Compiler/COMMON/SGL_302j/LIB_ELF/LIBSGL.A(sglB060.o)
 .data          0x0604e000        0x0 D:/joengine-master/Compiler/COMMON/SGL_302j/LIB_ELF/LIBSGL.A(sglB063.o)
 .data          0x0604e000        0x0 D:/joengine-master/Compiler/COMMON/SGL_302j/LIB_ELF/LIBSGL.A(sglB087.o)
 .data          0x0604e000        0x0 D:/joengine-master/Compiler/COMMON/SGL_302j/LIB_ELF/LIBSGL.A(sglB088.o)
 .data          0x0604e000        0x0 D:/joengine-master/Compiler/COMMON/SGL_302j/LIB_ELF/LIBSGL.A(sglB090.o)
 .data          0x0604e000        0x0 D:/joengine-master/Compiler/COMMON/SGL_302j/LIB_ELF/LIBSGL.A(sglB200.o)
 .data          0x0604e000        0x0 D:/joengine-master/Compiler/COMMON/SGL_302j/LIB_ELF/LIBSGL.A(sglC01.o)
 .data          0x0604e000        0x0 D:/joengine-master/Compiler/COMMON/SGL_302j/LIB_ELF/LIBSGL.A(sglC03.o)
 .data          0x0604e000        0x0 D:/joengine-master/Compiler/COMMON/SGL_302j/LIB_ELF/LIBSGL.A(sglC04.o)
 .data          0x0604e000        0x0 D:/joengine-master/Compiler/COMMON/SGL_302j/LIB_ELF/LIBSGL.A(sglC05.o)
 .data          0x0604e000        0x0 D:/joengine-master/Compiler/COMMON/SGL_302j/LIB_ELF/LIBSGL.A(sglC06.o)
 .data          0x0604e000        0x0 D:/joengine-master/Compiler/COMMON/SGL_302j/LIB_ELF/LIBSGL.A(sglC07.o)
 .data          0x0604e000        0x0 D:/joengine-master/Compiler/COMMON/SGL_302j/LIB_ELF/LIBSGL.A(sglC08.o)
 .data          0x0604e000        0x0 D:/joengine-master/Compiler/COMMON/SGL_302j/LIB_ELF/LIBSGL.A(sglC14.o)
 .data          0x0604e000        0x0 D:/joengine-master/Compiler/COMMON/SGL_302j/LIB_ELF/LIBSGL.A(sglC16.o)
 .data          0x0604e000        0x0 D:/joengine-master/Compiler/COMMON/SGL_302j/LIB_ELF/LIBSGL.A(sglC17.o)
 .data          0x0604e000        0x0 D:/joengine-master/Compiler/COMMON/SGL_302j/LIB_ELF/LIBSGL.A(sglC19.o)
 .data          0x0604e000        0x0 D:/joengine-master/Compiler/COMMON/SGL_302j/LIB_ELF/LIBSGL.A(sglC20.o)
 .data          0x0604e000        0x0 D:/joengine-master/Compiler/COMMON/SGL_302j/LIB_ELF/LIBSGL.A(sglC21.o)
 .data          0x0604e000        0x0 D:/joengine-master/Compiler/COMMON/SGL_302j/LIB_ELF/LIBSGL.A(sglD00.o)
 .data          0x0604e000        0x0 D:/joengine-master/Compiler/COMMON/SGL_302j/LIB_ELF/LIBSGL.A(sglD01.o)
 .data          0x0604e000        0x0 D:/joengine-master/Compiler/COMMON/SGL_302j/LIB_ELF/LIBSGL.A(sglD02.o)
 .data          0x0604e000        0x0 D:/joengine-master/Compiler/COMMON/SGL_302j/LIB_ELF/LIBSGL.A(sglD03.o)
 .data          0x0604e000        0x0 D:/joengine-master/Compiler/COMMON/SGL_302j/LIB_ELF/LIBSGL.A(sglD15.o)
 .data          0x0604e000        0x0 D:/joengine-master/Compiler/COMMON/SGL_302j/LIB_ELF/LIBSGL.A(sglD16.o)
 .data          0x0604e000        0x0 D:/joengine-master/Compiler/COMMON/SGL_302j/LIB_ELF/LIBSGL.A(sglD17.o)
 .data          0x0604e000        0x0 D:/joengine-master/Compiler/COMMON/SGL_302j/LIB_ELF/LIBSGL.A(sglD18.o)
 .data          0x0604e000        0x0 D:/joengine-master/Compiler/COMMON/SGL_302j/LIB_ELF/LIBSGL.A(sglF08.o)
 .data          0x0604e000        0x0 D:/joengine-master/Compiler/COMMON/SGL_302j/LIB_ELF/LIBSGL.A(sglH00.o)
 .data          0x0604e000        0x0 D:/joengine-master/Compiler/COMMON/SGL_302j/LIB_ELF/LIBSGL.A(sglH01.o)
 .data          0x0604e000        0x0 D:/joengine-master/Compiler/COMMON/SGL_302j/LIB_ELF/LIBSGL.A(sglH02.o)
 .data          0x0604e000        0x0 D:/joengine-master/Compiler/COMMON/SGL_302j/LIB_ELF/LIBSGL.A(sglH04.o)
 .data          0x0604e000        0x0 D:/joengine-master/Compiler/COMMON/SGL_302j/LIB_ELF/LIBSGL.A(sglI01.o)
 .data          0x0604e000        0x0 D:/joengine-master/Compiler/COMMON/SGL_302j/LIB_ELF/LIBSGL.A(sglI04.o)
 .data          0x0604e000       0x80 D:/joengine-master/Compiler/COMMON/SGL_302j/LIB_ELF/LIBSGL.A(sglIc0.o)
                0x0604e000                IntPrioMask
 .data          0x0604e080        0x0 D:/joengine-master/Compiler/COMMON/SGL_302j/LIB_ELF/LIBSGL.A(sglJ00.o)
 .data          0x0604e080        0x0 D:/joengine-master/Compiler/COMMON/SGL_302j/LIB_ELF/LIBSGL.A(sglJ01.o)
 .data          0x0604e080        0x0 D:/joengine-master/Compiler/COMMON/SGL_302j/LIB_ELF/LIBSGL.A(sglJ02.o)
 .data          0x0604e080        0x0 D:/joengine-master/Compiler/COMMON/SGL_302j/LIB_ELF/LIBSGL.A(sglJ03.o)
 .data          0x0604e080        0x0 D:/joengine-master/Compiler/COMMON/SGL_302j/LIB_ELF/LIBSGL.A(sglJ04.o)
 .data          0x0604e080        0x0 D:/joengine-master/Compiler/COMMON/SGL_302j/LIB_ELF/LIBSGL.A(sglJ05.o)
 .data          0x0604e080        0x0 D:/joengine-master/Compiler/COMMON/SGL_302j/LIB_ELF/LIBSGL.A(sglK01.o)
 .data          0x0604e080        0x0 D:/joengine-master/Compiler/COMMON/SGL_302j/LIB_ELF/LIBSGL.A(sglM00.o)
 .data          0x0604e080        0x0 D:/joengine-master/Compiler/COMMON/SGL_302j/LIB_ELF/LIBSGL.A(sglM01.o)
 .data          0x0604e080        0x0 D:/joengine-master/Compiler/COMMON/SGL_302j/LIB_ELF/LIBSGL.A(sglA00.o)
 .data          0x0604e080        0x0 D:/joengine-master/Compiler/COMMON/SGL_302j/LIB_ELF/LIBSGL.A(sglA03.o)
 .data          0x0604e080        0x0 D:/joengine-master/Compiler/COMMON/SGL_302j/LIB_ELF/LIBSGL.A(sglA10.o)
 .data          0x0604e080        0x0 D:/joengine-master/Compiler/COMMON/SGL_302j/LIB_ELF/LIBSGL.A(sglA24.o)
 .data          0x0604e080        0x0 D:/joengine-master/Compiler/COMMON/SGL_302j/LIB_ELF/LIBSGL.A(sglA25.o)
 .data          0x0604e080        0x0 D:/joengine-master/Compiler/COMMON/SGL_302j/LIB_ELF/LIBSGL.A(sglB000.o)
 .data          0x0604e080        0x0 D:/joengine-master/Compiler/COMMON/SGL_302j/LIB_ELF/LIBSGL.A(sglC00.o)
 .data          0x0604e080        0x0 D:/joengine-master/Compiler/COMMON/SGL_302j/LIB_ELF/LIBSGL.A(sglC13.o)
 .data          0x0604e080        0x0 D:/joengine-master/Compiler/COMMON/SGL_302j/LIB_ELF/LIBSGL.A(sglD19.o)
 .data          0x0604e080        0x0 D:/joengine-master/Compiler/COMMON/SGL_302j/LIB_ELF/LIBSGL.A(sglI00.o)
 .data          0x0604e080        0x0 D:/joengine-master/Compiler/COMMON/SGL_302j/LIB_ELF/LIBSGL.A(sglH03.o)
 .data          0x0604e080        0x0 d:/joengine-master/compiler/windows/bin/../lib/gcc/sh-elf/9.3.0\libgcc.a(_ashiftrt.o)
 .data          0x0604e080        0x0 d:/joengine-master/compiler/windows/bin/../lib/gcc/sh-elf/9.3.0\libgcc.a(_ashiftrt_n.o)
 .data          0x0604e080        0x0 d:/joengine-master/compiler/windows/bin/../lib/gcc/sh-elf/9.3.0\libgcc.a(_ashiftlt.o)
 .data          0x0604e080        0x0 d:/joengine-master/compiler/windows/bin/../lib/gcc/sh-elf/9.3.0\libgcc.a(_lshiftrt.o)
 .data          0x0604e080        0x0 d:/joengine-master/compiler/windows/bin/../lib/gcc/sh-elf/9.3.0\libgcc.a(_movmem.o)
 .data          0x0604e080        0x0 d:/joengine-master/compiler/windows/bin/../lib/gcc/sh-elf/9.3.0\libgcc.a(_sdivsi3.o)
 .data          0x0604e080        0x0 d:/joengine-master/compiler/windows/bin/../lib/gcc/sh-elf/9.3.0\libgcc.a(_udivsi3.o)
 .data          0x0604e080        0x0 d:/joengine-master/compiler/windows/bin/../lib/gcc/sh-elf/9.3.0\libgcc.a(_addsub_sf.o)
 .data          0x0604e080        0x0 d:/joengine-master/compiler/windows/bin/../lib/gcc/sh-elf/9.3.0\libgcc.a(_mul_sf.o)
 .data          0x0604e080        0x0 d:/joengine-master/compiler/windows/bin/../lib/gcc/sh-elf/9.3.0\libgcc.a(_div_sf.o)
 .data          0x0604e080        0x0 d:/joengine-master/compiler/windows/bin/../lib/gcc/sh-elf/9.3.0\libgcc.a(_eq_sf.o)
 .data          0x0604e080        0x0 d:/joengine-master/compiler/windows/bin/../lib/gcc/sh-elf/9.3.0\libgcc.a(_ne_sf.o)
 .data          0x0604e080        0x0 d:/joengine-master/compiler/windows/bin/../lib/gcc/sh-elf/9.3.0\libgcc.a(_gt_sf.o)
 .data          0x0604e080        0x0 d:/joengine-master/compiler/windows/bin/../lib/gcc/sh-elf/9.3.0\libgcc.a(_ge_sf.o)
 .data          0x0604e080        0x0 d:/joengine-master/compiler/windows/bin/../lib/gcc/sh-elf/9.3.0\libgcc.a(_lt_sf.o)
 .data          0x0604e080        0x0 d:/joengine-master/compiler/windows/bin/../lib/gcc/sh-elf/9.3.0\libgcc.a(_le_sf.o)
 .data          0x0604e080        0x0 d:/joengine-master/compiler/windows/bin/../lib/gcc/sh-elf/9.3.0\libgcc.a(_si_to_sf.o)
 .data          0x0604e080        0x0 d:/joengine-master/compiler/windows/bin/../lib/gcc/sh-elf/9.3.0\libgcc.a(_sf_to_si.o)
 .data          0x0604e080        0x0 d:/joengine-master/compiler/windows/bin/../lib/gcc/sh-elf/9.3.0\libgcc.a(_sf_to_df.o)
 .data          0x0604e080        0x0 d:/joengine-master/compiler/windows/bin/../lib/gcc/sh-elf/9.3.0\libgcc.a(_thenan_sf.o)
 .data          0x0604e080        0x0 d:/joengine-master/compiler/windows/bin/../lib/gcc/sh-elf/9.3.0\libgcc.a(_usi_to_sf.o)
 .data          0x0604e080        0x0 d:/joengine-master/compiler/windows/bin/../lib/gcc/sh-elf/9.3.0\libgcc.a(_addsub_df.o)
 .data          0x0604e080        0x0 d:/joengine-master/compiler/windows/bin/../lib/gcc/sh-elf/9.3.0\libgcc.a(_mul_df.o)
 .data          0x0604e080        0x0 d:/joengine-master/compiler/windows/bin/../lib/gcc/sh-elf/9.3.0\libgcc.a(_si_to_df.o)
 .data          0x0604e080        0x0 d:/joengine-master/compiler/windows/bin/../lib/gcc/sh-elf/9.3.0\libgcc.a(_df_to_si.o)
 .data          0x0604e080        0x0 d:/joengine-master/compiler/windows/bin/../lib/gcc/sh-elf/9.3.0\libgcc.a(_make_df.o)
 .data          0x0604e080        0x0 d:/joengine-master/compiler/windows/bin/../lib/gcc/sh-elf/9.3.0\libgcc.a(_df_to_sf.o)
 .data          0x0604e080        0x0 d:/joengine-master/compiler/windows/bin/../lib/gcc/sh-elf/9.3.0\libgcc.a(_thenan_df.o)
 .data          0x0604e080        0x0 d:/joengine-master/compiler/windows/bin/../lib/gcc/sh-elf/9.3.0\libgcc.a(_clzsi2.o)
 .data          0x0604e080        0x0 d:/joengine-master/compiler/windows/bin/../lib/gcc/sh-elf/9.3.0\libgcc.a(_pack_sf.o)
 .data          0x0604e080        0x0 d:/joengine-master/compiler/windows/bin/../lib/gcc/sh-elf/9.3.0\libgcc.a(_unpack_sf.o)
 .data          0x0604e080        0x0 d:/joengine-master/compiler/windows/bin/../lib/gcc/sh-elf/9.3.0\libgcc.a(_fpcmp_parts_sf.o)
 .data          0x0604e080        0x0 d:/joengine-master/compiler/windows/bin/../lib/gcc/sh-elf/9.3.0\libgcc.a(_make_sf.o)
 .data          0x0604e080        0x0 d:/joengine-master/compiler/windows/bin/../lib/gcc/sh-elf/9.3.0\libgcc.a(_pack_df.o)
 .data          0x0604e080        0x0 d:/joengine-master/compiler/windows/bin/../lib/gcc/sh-elf/9.3.0\libgcc.a(_unpack_df.o)
 .data          0x0604e080        0x0 d:/joengine-master/compiler/windows/bin/../lib/gcc/sh-elf/9.3.0\libgcc.a(_clz.o)
 .data          0x0604e080      0x41c d:/joengine-master/compiler/windows/bin/../lib/gcc/sh-elf/9.3.0/../../../../sh-elf/lib\libc.a(lib_a-impure.o)
                0x0604e080                _impure_ptr
 .data          0x0604e49c        0x0 d:/joengine-master/compiler/windows/bin/../lib/gcc/sh-elf/9.3.0/../../../../sh-elf/lib\libc.a(lib_a-memcmp.o)
 .data          0x0604e49c        0x0 d:/joengine-master/compiler/windows/bin/../lib/gcc/sh-elf/9.3.0/../../../../sh-elf/lib\libc.a(lib_a-memcpy.o)
 .data          0x0604e49c        0x0 d:/joengine-master/compiler/windows/bin/../lib/gcc/sh-elf/9.3.0/../../../../sh-elf/lib\libc.a(lib_a-memset.o)
 .data          0x0604e49c        0x0 d:/joengine-master/compiler/windows/bin/../lib/gcc/sh-elf/9.3.0/../../../../sh-elf/lib\libc.a(lib_a-rand.o)
 .data          0x0604e49c        0x0 d:/joengine-master/compiler/windows/bin/../lib/gcc/sh-elf/9.3.0/../../../../sh-elf/lib\libc.a(lib_a-rget.o)
 .data          0x0604e49c        0x0 d:/joengine-master/compiler/windows/bin/../lib/gcc/sh-elf/9.3.0/../../../../sh-elf/lib\libc.a(lib_a-sprintf.o)
 .data          0x0604e49c        0x0 d:/joengine-master/compiler/windows/bin/../lib/gcc/sh-elf/9.3.0/../../../../sh-elf/lib\libc.a(lib_a-strcat.o)
 .data          0x0604e49c        0x0 d:/joengine-master/compiler/windows/bin/../lib/gcc/sh-elf/9.3.0/../../../../sh-elf/lib\libc.a(lib_a-strcmp.o)
 .data          0x0604e49c        0x0 d:/joengine-master/compiler/windows/bin/../lib/gcc/sh-elf/9.3.0/../../../../sh-elf/lib\libc.a(lib_a-strcpy.o)
 .data          0x0604e49c        0x0 d:/joengine-master/compiler/windows/bin/../lib/gcc/sh-elf/9.3.0/../../../../sh-elf/lib\libc.a(lib_a-strlen.o)
 .data          0x0604e49c        0x0 d:/joengine-master/compiler/windows/bin/../lib/gcc/sh-elf/9.3.0/../../../../sh-elf/lib\libc.a(lib_a-strncmp.o)
 .data          0x0604e49c        0x0 d:/joengine-master/compiler/windows/bin/../lib/gcc/sh-elf/9.3.0/../../../../sh-elf/lib\libc.a(lib_a-strncpy.o)
 .data          0x0604e49c        0x0 d:/joengine-master/compiler/windows/bin/../lib/gcc/sh-elf/9.3.0/../../../../sh-elf/lib\libc.a(lib_a-strstr.o)
 .data          0x0604e49c        0x0 d:/joengine-master/compiler/windows/bin/../lib/gcc/sh-elf/9.3.0/../../../../sh-elf/lib\libc.a(lib_a-wbuf.o)
 .data          0x0604e49c        0x0 d:/joengine-master/compiler/windows/bin/../lib/gcc/sh-elf/9.3.0/../../../../sh-elf/lib\libc.a(lib_a-wsetup.o)
 .data          0x0604e49c        0x0 d:/joengine-master/compiler/windows/bin/../lib/gcc/sh-elf/9.3.0/../../../../sh-elf/lib\libc.a(lib_a-fflush.o)
 .data          0x0604e49c        0x0 d:/joengine-master/compiler/windows/bin/../lib/gcc/sh-elf/9.3.0/../../../../sh-elf/lib\libc.a(lib_a-findfp.o)
 .data          0x0604e49c        0x0 d:/joengine-master/compiler/windows/bin/../lib/gcc/sh-elf/9.3.0/../../../../sh-elf/lib\libc.a(lib_a-fwalk.o)
 .data          0x0604e49c        0x0 d:/joengine-master/compiler/windows/bin/../lib/gcc/sh-elf/9.3.0/../../../../sh-elf/lib\libc.a(lib_a-makebuf.o)
 .data          0x0604e49c        0x0 d:/joengine-master/compiler/windows/bin/../lib/gcc/sh-elf/9.3.0/../../../../sh-elf/lib\libc.a(lib_a-nano-svfprintf.o)
 .data          0x0604e49c        0x0 d:/joengine-master/compiler/windows/bin/../lib/gcc/sh-elf/9.3.0/../../../../sh-elf/lib\libc.a(lib_a-nano-vfprintf_i.o)
 .data          0x0604e49c        0x0 d:/joengine-master/compiler/windows/bin/../lib/gcc/sh-elf/9.3.0/../../../../sh-elf/lib\libc.a(lib_a-refill.o)
 .data          0x0604e49c        0x0 d:/joengine-master/compiler/windows/bin/../lib/gcc/sh-elf/9.3.0/../../../../sh-elf/lib\libc.a(lib_a-stdio.o)
 .data          0x0604e49c        0x0 d:/joengine-master/compiler/windows/bin/../lib/gcc/sh-elf/9.3.0/../../../../sh-elf/lib\libc.a(lib_a-writer.o)
 .data          0x0604e49c        0x0 d:/joengine-master/compiler/windows/bin/../lib/gcc/sh-elf/9.3.0/../../../../sh-elf/lib\libc.a(lib_a-closer.o)
 .data          0x0604e49c        0x0 d:/joengine-master/compiler/windows/bin/../lib/gcc/sh-elf/9.3.0/../../../../sh-elf/lib\libc.a(lib_a-fstatr.o)
 .data          0x0604e49c        0x0 d:/joengine-master/compiler/windows/bin/../lib/gcc/sh-elf/9.3.0/../../../../sh-elf/lib\libc.a(lib_a-isattyr.o)
 .data          0x0604e49c        0x0 d:/joengine-master/compiler/windows/bin/../lib/gcc/sh-elf/9.3.0/../../../../sh-elf/lib\libc.a(lib_a-lseekr.o)
 .data          0x0604e49c        0x0 d:/joengine-master/compiler/windows/bin/../lib/gcc/sh-elf/9.3.0/../../../../sh-elf/lib\libc.a(lib_a-memchr.o)
 .data          0x0604e49c        0x0 d:/joengine-master/compiler/windows/bin/../lib/gcc/sh-elf/9.3.0/../../../../sh-elf/lib\libc.a(lib_a-memmove.o)
 .data          0x0604e49c        0x0 d:/joengine-master/compiler/windows/bin/../lib/gcc/sh-elf/9.3.0/../../../../sh-elf/lib\libc.a(lib_a-readr.o)
 .data          0x0604e49c        0x0 d:/joengine-master/compiler/windows/bin/../lib/gcc/sh-elf/9.3.0/../../../../sh-elf/lib\libc.a(lib_a-reent.o)
                0x0604e49c                __edata = .

.rodata         0x0604e4a0      0x980
 *(.rodata)
 .rodata        0x0604e4a0      0x3b0 main.o
 .rodata        0x0604e850      0x400 pcmsys.o
 .rodata        0x0604ec50       0x70 name_entry.o
 .rodata        0x0604ecc0        0x9 connecting.o
 *fill*         0x0604ecc9        0x3 
 .rodata        0x0604eccc        0x9 D:/joengine-master/jo_engine/backup.o
 *fill*         0x0604ecd5        0x1 
 .rodata        0x0604ecd6       0x10 D:/joengine-master/jo_engine/math.o
 .rodata        0x0604ece6        0xa D:/joengine-master/jo_engine/sprites.o
 .rodata        0x0604ecf0       0x10 d:/joengine-master/compiler/windows/bin/../lib/gcc/sh-elf/9.3.0\libgcc.a(_thenan_sf.o)
                0x0604ecf0                __thenan_sf
 .rodata        0x0604ed00       0x14 d:/joengine-master/compiler/windows/bin/../lib/gcc/sh-elf/9.3.0\libgcc.a(_thenan_df.o)
                0x0604ed00                __thenan_df
 .rodata        0x0604ed14      0x100 d:/joengine-master/compiler/windows/bin/../lib/gcc/sh-elf/9.3.0\libgcc.a(_clz.o)
                0x0604ed14                __clz_tab
 .rodata        0x0604ee14        0x4 d:/joengine-master/compiler/windows/bin/../lib/gcc/sh-elf/9.3.0/../../../../sh-elf/lib\libc.a(lib_a-impure.o)
                0x0604ee14                _global_impure_ptr

.rodata.str1.4  0x0604ee20     0x1950
 .rodata.str1.4
                0x0604ee20      0xf7d main.o
 *fill*         0x0604fd9d        0x3 
 .rodata.str1.4
                0x0604fda0        0x9 pcmsys.o
 *fill*         0x0604fda9        0x3 
 .rodata.str1.4
                0x0604fdac      0x1df name_entry.o
 *fill*         0x0604ff8b        0x1 
 .rodata.str1.4
                0x0604ff8c      0x262 connecting.o
 *fill*         0x060501ee        0x2 
 .rodata.str1.4
                0x060501f0      0x23c lobby.o
 .rodata.str1.4
                0x0605042c      0x2e1 net/mmm_net.o
 *fill*         0x0605070d        0x3 
 .rodata.str1.4
                0x06050710        0x1 D:/joengine-master/jo_engine/backup.o
 *fill*         0x06050711        0x3 
 .rodata.str1.4
                0x06050714        0x3 D:/joengine-master/jo_engine/fs.o
 *fill*         0x06050717        0x1 
 .rodata.str1.4
                0x06050718        0x5 D:/joengine-master/jo_engine/font.o
 *fill*         0x0605071d        0x3 
 .rodata.str1.4
                0x06050720        0x5 D:/joengine-master/jo_engine/image.o
 *fill*         0x06050725        0x3 
 .rodata.str1.4
                0x06050728       0x13 d:/joengine-master/compiler/windows/bin/../lib/gcc/sh-elf/9.3.0/../../../../sh-elf/lib\libc.a(lib_a-nano-svfprintf.o)
 *fill*         0x0605073b        0x1 
 .rodata.str1.4
                0x0605073c       0x25 d:/joengine-master/compiler/windows/bin/../lib/gcc/sh-elf/9.3.0/../../../../sh-elf/lib\libc.a(lib_a-nano-vfprintf_i.o)

.bss            0x06050770    0x6ef24
                0x06050770                __bstart = .
 *(.bss)
 .bss           0x06050770        0x0 D:/joengine-master/Compiler/COMMON/SGL_302j/LIB_ELF/SGLAREA.O
 .bss           0x06050770     0x34d0 main.o
                0x06050770                floor_z
                0x06050772                floor_x
                0x06050774                cd_track
                0x06050775                total_waypoints
                0x06050776                target_player
                0x06050778                rotate_cam
                0x0605077a                map_rx
                0x0605077c                current_players
                0x0605077e                gouraud_counter
                0x06050780                anim_frame_counter
                0x06050782                anim_tex_num
                0x06050784                object_show_poly
                0x06050786                object_last_pol_num
                0x06050788                object_last_texture
                0x0605078a                object_pol_num
                0x0605078c                object_number
                0x0605078e                total_sections
                0x06050790                map_builder_powerup
                0x06050792                map_builder_car
                0x06050794                map_builder_model
                0x06050796                map_builder_mode
                0x06050797                map_builder_delete_mode
                0x06050798                trackmap_tex
                0x0605079c                preview_tex
                0x060507a0                model_total
                0x060507a2                is_cd_playing
                0x060507a4                vwork
                0x06050b5a                gourRealMax
                0x0605290c                font_pal
                0x06052914                trackmap_pal
                0x0605291c                preview_pal
                0x06052924                floor_pal
                0x0605292c                sky_pal
                0x06052934                rot
                0x06052940                pos
                0x0605294c                game
                0x0605298a                waypoints
                0x06052caa                checkpoints
                0x06052cd4                powerups
                0x06052d74                enemies
                0x06052e38                g_player_name_2
                0x06052e4c                g_player_name
                0x06052e5d                g_local_p2_active
                0x06052e5e                g_online_mode
                0x06052e5f                g_modem_detected
                0x06052e60                g_uart
                0x06052e68                players
                0x060535b8                framerate
                0x060535bc                attribute_ZERO
                0x060535c0                polygon_ZERO
                0x060535c4                point_ZERO
                0x060535c8                map_section
 .bss           0x06053c40        0x0 collision.o
 .bss           0x06053c40     0x6fd0 pcmsys.o
                0x06053c40                gfsDirN
                0x06053c44                gfsLibWork
                0x06054bec                gfsDirName
                0x0605abec                gfsDirTbl
                0x0605abf8                numberPCMs
 .bss           0x0605ac10       0x21 name_entry.o
 *fill*         0x0605ac31        0x3 
 .bss           0x0605ac34       0x8c connecting.o
 .bss           0x0605acc0       0x18 lobby.o
 .bss           0x0605acd8      0x704 net/mmm_net.o
                0x0605acd8                g_mnet
 .bss           0x0605b3dc        0x0 libc_stubs.o
 .bss           0x0605b3dc       0x78 D:/joengine-master/jo_engine/backup.o
 .bss           0x0605b454        0x8 D:/joengine-master/jo_engine/tga.o
 .bss           0x0605b45c      0x3fc D:/joengine-master/jo_engine/3d.o
                0x0605b45c                __jo_sprite_quad
 .bss           0x0605b858     0x2534 D:/joengine-master/jo_engine/fs.o
                0x0605b858                __jo_fs_background_job_count
 .bss           0x0605dd8c       0x14 D:/joengine-master/jo_engine/slave.o
                0x0605dd8c                __jo_slave_done_flag
                0x0605dd90                __slave_callbacks
 .bss           0x0605dda0        0x0 D:/joengine-master/jo_engine/font.o
 .bss           0x0605dda0      0x120 D:/joengine-master/jo_engine/input.o
                0x0605dda0                jo_inputs
 .bss           0x0605dec0        0x0 D:/joengine-master/jo_engine/physics.o
 .bss           0x0605dec0    0x60024 D:/joengine-master/jo_engine/core.o
 .bss           0x060bdee4        0x0 D:/joengine-master/jo_engine/math.o
 .bss           0x060bdee4       0x70 D:/joengine-master/jo_engine/malloc.o
 .bss           0x060bdf54       0x40 D:/joengine-master/jo_engine/tools.o
                0x060bdf54                __jo_sprintf_buf
 .bss           0x060bdf94        0x0 D:/joengine-master/jo_engine/palette.o
 .bss           0x060bdf94     0x13f0 D:/joengine-master/jo_engine/sprites.o
                0x060bdf94                __jo_hash_table
                0x060be390                __jo_sprite_pic
                0x060beb88                __jo_sprite_def
 .bss           0x060bf384       0x50 D:/joengine-master/jo_engine/map.o
 .bss           0x060bf3d4        0x0 D:/joengine-master/jo_engine/list.o
 .bss           0x060bf3d4       0xc1 D:/joengine-master/jo_engine/sprite_animator.o
                0x060bf3d4                __jo_sprite_anim_tab
 .bss           0x060bf495        0x0 D:/joengine-master/jo_engine/image.o
 *fill*         0x060bf495        0x3 
 .bss           0x060bf498       0x64 D:/joengine-master/jo_engine/vdp2.o
                0x060bf498                nbg1_bitmap
 .bss           0x060bf4fc        0xc D:/joengine-master/jo_engine/time.o
                0x060bf4fc                delta_time
                0x060bf500                time_in_seconds
 .bss           0x060bf508        0x0 D:/joengine-master/jo_engine/vdp1_command_pipeline.o
 .bss           0x060bf508      0x124 D:/joengine-master/jo_engine/vdp2_malloc.o
                0x060bf508                __jo_current_palette_id
 *fill*         0x060bf62c        0x4 
 .bss           0x060bf630        0x4 D:/joengine-master/Compiler/COMMON/SGL_302j/LIB_ELF/SEGA_SYS.A(sys_exit.o)
 *fill*         0x060bf634        0xc 
 .bss           0x060bf640        0x0 D:/joengine-master/Compiler/COMMON/SGL_302j/LIB_ELF/SEGA_SYS.A(sys_sub.o)
 .bss           0x060bf640        0x0 D:/joengine-master/Compiler/COMMON/SGL_302j/LIB_ELF/LIBCD.A(CDC_CMN.O)
 .bss           0x060bf640        0x0 D:/joengine-master/Compiler/COMMON/SGL_302j/LIB_ELF/LIBCD.A(CDC_DRV.O)
 .bss           0x060bf640        0x0 D:/joengine-master/Compiler/COMMON/SGL_302j/LIB_ELF/LIBCD.A(CDC_CFS.O)
 .bss           0x060bf640        0x2 D:/joengine-master/Compiler/COMMON/SGL_302j/LIB_ELF/LIBCD.A(CDC_REG.O)
 *fill*         0x060bf642        0xe 
 .bss           0x060bf650        0xc D:/joengine-master/Compiler/COMMON/SGL_302j/LIB_ELF/LIBCD.A(CDC_SUB.O)
 *fill*         0x060bf65c        0x4 
 .bss           0x060bf660        0x0 D:/joengine-master/Compiler/COMMON/SGL_302j/LIB_ELF/LIBCD.A(GFS.O)
 .bss           0x060bf660        0x0 D:/joengine-master/Compiler/COMMON/SGL_302j/LIB_ELF/LIBCD.A(GFS_BUF.O)
 .bss           0x060bf660        0x0 D:/joengine-master/Compiler/COMMON/SGL_302j/LIB_ELF/LIBCD.A(GFS_CDB.O)
 .bss           0x060bf660        0x0 D:/joengine-master/Compiler/COMMON/SGL_302j/LIB_ELF/LIBCD.A(GFS_CDC.O)
 .bss           0x060bf660        0x0 D:/joengine-master/Compiler/COMMON/SGL_302j/LIB_ELF/LIBCD.A(GFS_CDF.O)
 .bss           0x060bf660        0x0 D:/joengine-master/Compiler/COMMON/SGL_302j/LIB_ELF/LIBCD.A(GFS_DIR.O)
 .bss           0x060bf660        0xc D:/joengine-master/Compiler/COMMON/SGL_302j/LIB_ELF/LIBCD.A(GFS_TRN.O)
 *fill*         0x060bf66c        0x4 
 .bss           0x060bf670        0x0 D:/joengine-master/Compiler/COMMON/SGL_302j/LIB_ELF/LIBCD.A(CDC_DEV.O)
 .bss           0x060bf670        0x0 D:/joengine-master/Compiler/COMMON/SGL_302j/LIB_ELF/LIBCD.A(CDC_SEL.O)
 .bss           0x060bf670        0x0 D:/joengine-master/Compiler/COMMON/SGL_302j/LIB_ELF/LIBCD.A(CDC_BIF.O)
 .bss           0x060bf670        0x0 D:/joengine-master/Compiler/COMMON/SGL_302j/LIB_ELF/LIBCD.A(CDC_BIO.O)
 .bss           0x060bf670        0x0 D:/joengine-master/Compiler/COMMON/SGL_302j/LIB_ELF/LIBSGL.A(sglA01.o)
 .bss           0x060bf670        0x0 D:/joengine-master/Compiler/COMMON/SGL_302j/LIB_ELF/LIBSGL.A(sglA15.o)
 .bss           0x060bf670        0x0 D:/joengine-master/Compiler/COMMON/SGL_302j/LIB_ELF/LIBSGL.A(sglA16.o)
 .bss           0x060bf670        0x0 D:/joengine-master/Compiler/COMMON/SGL_302j/LIB_ELF/LIBSGL.A(sglA17.o)
 .bss           0x060bf670        0x0 D:/joengine-master/Compiler/COMMON/SGL_302j/LIB_ELF/LIBSGL.A(sglA18.o)
 .bss           0x060bf670        0x0 D:/joengine-master/Compiler/COMMON/SGL_302j/LIB_ELF/LIBSGL.A(sglA19.o)
 .bss           0x060bf670        0x0 D:/joengine-master/Compiler/COMMON/SGL_302j/LIB_ELF/LIBSGL.A(sglA20.o)
 .bss           0x060bf670        0x0 D:/joengine-master/Compiler/COMMON/SGL_302j/LIB_ELF/LIBSGL.A(sglA21.o)
 .bss           0x060bf670        0x0 D:/joengine-master/Compiler/COMMON/SGL_302j/LIB_ELF/LIBSGL.A(sglA27.o)
 .bss           0x060bf670        0x0 D:/joengine-master/Compiler/COMMON/SGL_302j/LIB_ELF/LIBSGL.A(sglA28.o)
 .bss           0x060bf670        0x0 D:/joengine-master/Compiler/COMMON/SGL_302j/LIB_ELF/LIBSGL.A(sglA40.o)
 .bss           0x060bf670        0x0 D:/joengine-master/Compiler/COMMON/SGL_302j/LIB_ELF/LIBSGL.A(sglB001.o)
 .bss           0x060bf670        0x0 D:/joengine-master/Compiler/COMMON/SGL_302j/LIB_ELF/LIBSGL.A(sglB011.o)
 .bss           0x060bf670        0x0 D:/joengine-master/Compiler/COMMON/SGL_302j/LIB_ELF/LIBSGL.A(sglB014.o)
 .bss           0x060bf670        0x0 D:/joengine-master/Compiler/COMMON/SGL_302j/LIB_ELF/LIBSGL.A(sglB015.o)
 .bss           0x060bf670        0x0 D:/joengine-master/Compiler/COMMON/SGL_302j/LIB_ELF/LIBSGL.A(sglB016.o)
 .bss           0x060bf670        0x0 D:/joengine-master/Compiler/COMMON/SGL_302j/LIB_ELF/LIBSGL.A(sglB020.o)
 .bss           0x060bf670        0x0 D:/joengine-master/Compiler/COMMON/SGL_302j/LIB_ELF/LIBSGL.A(sglB021.o)
 .bss           0x060bf670        0x0 D:/joengine-master/Compiler/COMMON/SGL_302j/LIB_ELF/LIBSGL.A(sglB023.o)
 .bss           0x060bf670        0x0 D:/joengine-master/Compiler/COMMON/SGL_302j/LIB_ELF/LIBSGL.A(sglB031.o)
 .bss           0x060bf670        0x0 D:/joengine-master/Compiler/COMMON/SGL_302j/LIB_ELF/LIBSGL.A(sglB032.o)
 .bss           0x060bf670        0x0 D:/joengine-master/Compiler/COMMON/SGL_302j/LIB_ELF/LIBSGL.A(sglB033.o)
 .bss           0x060bf670        0x0 D:/joengine-master/Compiler/COMMON/SGL_302j/LIB_ELF/LIBSGL.A(sglB034.o)
 .bss           0x060bf670        0x0 D:/joengine-master/Compiler/COMMON/SGL_302j/LIB_ELF/LIBSGL.A(sglB035.o)
 .bss           0x060bf670        0x0 D:/joengine-master/Compiler/COMMON/SGL_302j/LIB_ELF/LIBSGL.A(sglB036.o)
 .bss           0x060bf670        0x0 D:/joengine-master/Compiler/COMMON/SGL_302j/LIB_ELF/LIBSGL.A(sglB038.o)
 .bss           0x060bf670        0x0 D:/joengine-master/Compiler/COMMON/SGL_302j/LIB_ELF/LIBSGL.A(sglB039.o)
 .bss           0x060bf670        0x0 D:/joengine-master/Compiler/COMMON/SGL_302j/LIB_ELF/LIBSGL.A(sglB040.o)
 .bss           0x060bf670        0x0 D:/joengine-master/Compiler/COMMON/SGL_302j/LIB_ELF/LIBSGL.A(sglB041.o)
 .bss           0x060bf670        0x0 D:/joengine-master/Compiler/COMMON/SGL_302j/LIB_ELF/LIBSGL.A(sglB042.o)
 .bss           0x060bf670        0x0 D:/joengine-master/Compiler/COMMON/SGL_302j/LIB_ELF/LIBSGL.A(sglB043.o)
 .bss           0x060bf670        0x0 D:/joengine-master/Compiler/COMMON/SGL_302j/LIB_ELF/LIBSGL.A(sglB044.o)
 .bss           0x060bf670        0x0 D:/joengine-master/Compiler/COMMON/SGL_302j/LIB_ELF/LIBSGL.A(sglB045.o)
 .bss           0x060bf670        0x0 D:/joengine-master/Compiler/COMMON/SGL_302j/LIB_ELF/LIBSGL.A(sglB047.o)
 .bss           0x060bf670        0x0 D:/joengine-master/Compiler/COMMON/SGL_302j/LIB_ELF/LIBSGL.A(sglB048.o)
 .bss           0x060bf670        0x0 D:/joengine-master/Compiler/COMMON/SGL_302j/LIB_ELF/LIBSGL.A(sglB055.o)
 .bss           0x060bf670        0x0 D:/joengine-master/Compiler/COMMON/SGL_302j/LIB_ELF/LIBSGL.A(sglB056.o)
 .bss           0x060bf670        0x0 D:/joengine-master/Compiler/COMMON/SGL_302j/LIB_ELF/LIBSGL.A(sglB057.o)
 .bss           0x060bf670        0x0 D:/joengine-master/Compiler/COMMON/SGL_302j/LIB_ELF/LIBSGL.A(sglB058.o)
 .bss           0x060bf670        0x0 D:/joengine-master/Compiler/COMMON/SGL_302j/LIB_ELF/LIBSGL.A(sglB059.o)
 .bss           0x060bf670        0x0 D:/joengine-master/Compiler/COMMON/SGL_302j/LIB_ELF/LIBSGL.A(sglB060.o)
 .bss           0x060bf670        0x0 D:/joengine-master/Compiler/COMMON/SGL_302j/LIB_ELF/LIBSGL.A(sglB063.o)
 .bss           0x060bf670        0x0 D:/joengine-master/Compiler/COMMON/SGL_302j/LIB_ELF/LIBSGL.A(sglB087.o)
 .bss           0x060bf670        0x0 D:/joengine-master/Compiler/COMMON/SGL_302j/LIB_ELF/LIBSGL.A(sglB088.o)
 .bss           0x060bf670        0x0 D:/joengine-master/Compiler/COMMON/SGL_302j/LIB_ELF/LIBSGL.A(sglB090.o)
 .bss           0x060bf670        0x0 D:/joengine-master/Compiler/COMMON/SGL_302j/LIB_ELF/LIBSGL.A(sglB200.o)
 .bss           0x060bf670        0x0 D:/joengine-master/Compiler/COMMON/SGL_302j/LIB_ELF/LIBSGL.A(sglC01.o)
 .bss           0x060bf670        0x0 D:/joengine-master/Compiler/COMMON/SGL_302j/LIB_ELF/LIBSGL.A(sglC03.o)
 .bss           0x060bf670        0x0 D:/joengine-master/Compiler/COMMON/SGL_302j/LIB_ELF/LIBSGL.A(sglC04.o)
 .bss           0x060bf670        0x0 D:/joengine-master/Compiler/COMMON/SGL_302j/LIB_ELF/LIBSGL.A(sglC05.o)
 .bss           0x060bf670        0x0 D:/joengine-master/Compiler/COMMON/SGL_302j/LIB_ELF/LIBSGL.A(sglC06.o)
 .bss           0x060bf670        0x0 D:/joengine-master/Compiler/COMMON/SGL_302j/LIB_ELF/LIBSGL.A(sglC07.o)
 .bss           0x060bf670        0x0 D:/joengine-master/Compiler/COMMON/SGL_302j/LIB_ELF/LIBSGL.A(sglC08.o)
 .bss           0x060bf670        0x0 D:/joengine-master/Compiler/COMMON/SGL_302j/LIB_ELF/LIBSGL.A(sglC14.o)
 .bss           0x060bf670        0x0 D:/joengine-master/Compiler/COMMON/SGL_302j/LIB_ELF/LIBSGL.A(sglC16.o)
 .bss           0x060bf670        0x0 D:/joengine-master/Compiler/COMMON/SGL_302j/LIB_ELF/LIBSGL.A(sglC17.o)
 .bss           0x060bf670        0x0 D:/joengine-master/Compiler/COMMON/SGL_302j/LIB_ELF/LIBSGL.A(sglC19.o)
 .bss           0x060bf670        0x0 D:/joengine-master/Compiler/COMMON/SGL_302j/LIB_ELF/LIBSGL.A(sglC20.o)
 .bss           0x060bf670        0x0 D:/joengine-master/Compiler/COMMON/SGL_302j/LIB_ELF/LIBSGL.A(sglC21.o)
 .bss           0x060bf670        0x0 D:/joengine-master/Compiler/COMMON/SGL_302j/LIB_ELF/LIBSGL.A(sglD00.o)
 .bss           0x060bf670        0x0 D:/joengine-master/Compiler/COMMON/SGL_302j/LIB_ELF/LIBSGL.A(sglD01.o)
 .bss           0x060bf670        0x0 D:/joengine-master/Compiler/COMMON/SGL_302j/LIB_ELF/LIBSGL.A(sglD02.o)
 .bss           0x060bf670        0x0 D:/joengine-master/Compiler/COMMON/SGL_302j/LIB_ELF/LIBSGL.A(sglD03.o)
 .bss           0x060bf670        0x0 D:/joengine-master/Compiler/COMMON/SGL_302j/LIB_ELF/LIBSGL.A(sglD15.o)
 .bss           0x060bf670        0x0 D:/joengine-master/Compiler/COMMON/SGL_302j/LIB_ELF/LIBSGL.A(sglD16.o)
 .bss           0x060bf670        0x0 D:/joengine-master/Compiler/COMMON/SGL_302j/LIB_ELF/LIBSGL.A(sglD17.o)
 .bss           0x060bf670        0x0 D:/joengine-master/Compiler/COMMON/SGL_302j/LIB_ELF/LIBSGL.A(sglD18.o)
 .bss           0x060bf670        0x0 D:/joengine-master/Compiler/COMMON/SGL_302j/LIB_ELF/LIBSGL.A(sglF08.o)
 .bss           0x060bf670        0x0 D:/joengine-master/Compiler/COMMON/SGL_302j/LIB_ELF/LIBSGL.A(sglH00.o)
 .bss           0x060bf670        0x0 D:/joengine-master/Compiler/COMMON/SGL_302j/LIB_ELF/LIBSGL.A(sglH01.o)
 .bss           0x060bf670        0x0 D:/joengine-master/Compiler/COMMON/SGL_302j/LIB_ELF/LIBSGL.A(sglH02.o)
 .bss           0x060bf670        0x0 D:/joengine-master/Compiler/COMMON/SGL_302j/LIB_ELF/LIBSGL.A(sglH04.o)
 .bss           0x060bf670        0x0 D:/joengine-master/Compiler/COMMON/SGL_302j/LIB_ELF/LIBSGL.A(sglI01.o)
 .bss           0x060bf670        0x0 D:/joengine-master/Compiler/COMMON/SGL_302j/LIB_ELF/LIBSGL.A(sglI04.o)
 .bss           0x060bf670        0x0 D:/joengine-master/Compiler/COMMON/SGL_302j/LIB_ELF/LIBSGL.A(sglIc0.o)
 .bss           0x060bf670        0x0 D:/joengine-master/Compiler/COMMON/SGL_302j/LIB_ELF/LIBSGL.A(sglJ00.o)
 .bss           0x060bf670        0x0 D:/joengine-master/Compiler/COMMON/SGL_302j/LIB_ELF/LIBSGL.A(sglJ01.o)
 .bss           0x060bf670        0x0 D:/joengine-master/Compiler/COMMON/SGL_302j/LIB_ELF/LIBSGL.A(sglJ02.o)
 .bss           0x060bf670        0x0 D:/joengine-master/Compiler/COMMON/SGL_302j/LIB_ELF/LIBSGL.A(sglJ03.o)
 .bss           0x060bf670        0x0 D:/joengine-master/Compiler/COMMON/SGL_302j/LIB_ELF/LIBSGL.A(sglJ04.o)
 .bss           0x060bf670        0x0 D:/joengine-master/Compiler/COMMON/SGL_302j/LIB_ELF/LIBSGL.A(sglJ05.o)
 .bss           0x060bf670        0x0 D:/joengine-master/Compiler/COMMON/SGL_302j/LIB_ELF/LIBSGL.A(sglK01.o)
 .bss           0x060bf670        0x0 D:/joengine-master/Compiler/COMMON/SGL_302j/LIB_ELF/LIBSGL.A(sglM00.o)
 .bss           0x060bf670        0x0 D:/joengine-master/Compiler/COMMON/SGL_302j/LIB_ELF/LIBSGL.A(sglM01.o)
 .bss           0x060bf670        0x0 D:/joengine-master/Compiler/COMMON/SGL_302j/LIB_ELF/LIBSGL.A(sglA00.o)
 .bss           0x060bf670        0x0 D:/joengine-master/Compiler/COMMON/SGL_302j/LIB_ELF/LIBSGL.A(sglA03.o)
 .bss           0x060bf670        0x0 D:/joengine-master/Compiler/COMMON/SGL_302j/LIB_ELF/LIBSGL.A(sglA10.o)
 .bss           0x060bf670        0x0 D:/joengine-master/Compiler/COMMON/SGL_302j/LIB_ELF/LIBSGL.A(sglA24.o)
 .bss           0x060bf670        0x0 D:/joengine-master/Compiler/COMMON/SGL_302j/LIB_ELF/LIBSGL.A(sglA25.o)
 .bss           0x060bf670        0x0 D:/joengine-master/Compiler/COMMON/SGL_302j/LIB_ELF/LIBSGL.A(sglB000.o)
 .bss           0x060bf670        0x0 D:/joengine-master/Compiler/COMMON/SGL_302j/LIB_ELF/LIBSGL.A(sglC00.o)
 .bss           0x060bf670        0x0 D:/joengine-master/Compiler/COMMON/SGL_302j/LIB_ELF/LIBSGL.A(sglC13.o)
 .bss           0x060bf670        0x0 D:/joengine-master/Compiler/COMMON/SGL_302j/LIB_ELF/LIBSGL.A(sglD19.o)
 .bss           0x060bf670        0x0 D:/joengine-master/Compiler/COMMON/SGL_302j/LIB_ELF/LIBSGL.A(sglI00.o)
 .bss           0x060bf670        0x0 D:/joengine-master/Compiler/COMMON/SGL_302j/LIB_ELF/LIBSGL.A(sglH03.o)
 .bss           0x060bf670        0x0 d:/joengine-master/compiler/windows/bin/../lib/gcc/sh-elf/9.3.0\libgcc.a(_ashiftrt.o)
 .bss           0x060bf670        0x0 d:/joengine-master/compiler/windows/bin/../lib/gcc/sh-elf/9.3.0\libgcc.a(_ashiftrt_n.o)
 .bss           0x060bf670        0x0 d:/joengine-master/compiler/windows/bin/../lib/gcc/sh-elf/9.3.0\libgcc.a(_ashiftlt.o)
 .bss           0x060bf670        0x0 d:/joengine-master/compiler/windows/bin/../lib/gcc/sh-elf/9.3.0\libgcc.a(_lshiftrt.o)
 .bss           0x060bf670        0x0 d:/joengine-master/compiler/windows/bin/../lib/gcc/sh-elf/9.3.0\libgcc.a(_movmem.o)
 .bss           0x060bf670        0x0 d:/joengine-master/compiler/windows/bin/../lib/gcc/sh-elf/9.3.0\libgcc.a(_sdivsi3.o)
 .bss           0x060bf670        0x0 d:/joengine-master/compiler/windows/bin/../lib/gcc/sh-elf/9.3.0\libgcc.a(_udivsi3.o)
 .bss           0x060bf670        0x0 d:/joengine-master/compiler/windows/bin/../lib/gcc/sh-elf/9.3.0\libgcc.a(_addsub_sf.o)
 .bss           0x060bf670        0x0 d:/joengine-master/compiler/windows/bin/../lib/gcc/sh-elf/9.3.0\libgcc.a(_mul_sf.o)
 .bss           0x060bf670        0x0 d:/joengine-master/compiler/windows/bin/../lib/gcc/sh-elf/9.3.0\libgcc.a(_div_sf.o)
 .bss           0x060bf670        0x0 d:/joengine-master/compiler/windows/bin/../lib/gcc/sh-elf/9.3.0\libgcc.a(_eq_sf.o)
 .bss           0x060bf670        0x0 d:/joengine-master/compiler/windows/bin/../lib/gcc/sh-elf/9.3.0\libgcc.a(_ne_sf.o)
 .bss           0x060bf670        0x0 d:/joengine-master/compiler/windows/bin/../lib/gcc/sh-elf/9.3.0\libgcc.a(_gt_sf.o)
 .bss           0x060bf670        0x0 d:/joengine-master/compiler/windows/bin/../lib/gcc/sh-elf/9.3.0\libgcc.a(_ge_sf.o)
 .bss           0x060bf670        0x0 d:/joengine-master/compiler/windows/bin/../lib/gcc/sh-elf/9.3.0\libgcc.a(_lt_sf.o)
 .bss           0x060bf670        0x0 d:/joengine-master/compiler/windows/bin/../lib/gcc/sh-elf/9.3.0\libgcc.a(_le_sf.o)
 .bss           0x060bf670        0x0 d:/joengine-master/compiler/windows/bin/../lib/gcc/sh-elf/9.3.0\libgcc.a(_si_to_sf.o)
 .bss           0x060bf670        0x0 d:/joengine-master/compiler/windows/bin/../lib/gcc/sh-elf/9.3.0\libgcc.a(_sf_to_si.o)
 .bss           0x060bf670        0x0 d:/joengine-master/compiler/windows/bin/../lib/gcc/sh-elf/9.3.0\libgcc.a(_sf_to_df.o)
 .bss           0x060bf670        0x0 d:/joengine-master/compiler/windows/bin/../lib/gcc/sh-elf/9.3.0\libgcc.a(_thenan_sf.o)
 .bss           0x060bf670        0x0 d:/joengine-master/compiler/windows/bin/../lib/gcc/sh-elf/9.3.0\libgcc.a(_usi_to_sf.o)
 .bss           0x060bf670        0x0 d:/joengine-master/compiler/windows/bin/../lib/gcc/sh-elf/9.3.0\libgcc.a(_addsub_df.o)
 .bss           0x060bf670        0x0 d:/joengine-master/compiler/windows/bin/../lib/gcc/sh-elf/9.3.0\libgcc.a(_mul_df.o)
 .bss           0x060bf670        0x0 d:/joengine-master/compiler/windows/bin/../lib/gcc/sh-elf/9.3.0\libgcc.a(_si_to_df.o)
 .bss           0x060bf670        0x0 d:/joengine-master/compiler/windows/bin/../lib/gcc/sh-elf/9.3.0\libgcc.a(_df_to_si.o)
 .bss           0x060bf670        0x0 d:/joengine-master/compiler/windows/bin/../lib/gcc/sh-elf/9.3.0\libgcc.a(_make_df.o)
 .bss           0x060bf670        0x0 d:/joengine-master/compiler/windows/bin/../lib/gcc/sh-elf/9.3.0\libgcc.a(_df_to_sf.o)
 .bss           0x060bf670        0x0 d:/joengine-master/compiler/windows/bin/../lib/gcc/sh-elf/9.3.0\libgcc.a(_thenan_df.o)
 .bss           0x060bf670        0x0 d:/joengine-master/compiler/windows/bin/../lib/gcc/sh-elf/9.3.0\libgcc.a(_clzsi2.o)
 .bss           0x060bf670        0x0 d:/joengine-master/compiler/windows/bin/../lib/gcc/sh-elf/9.3.0\libgcc.a(_pack_sf.o)
 .bss           0x060bf670        0x0 d:/joengine-master/compiler/windows/bin/../lib/gcc/sh-elf/9.3.0\libgcc.a(_unpack_sf.o)
 .bss           0x060bf670        0x0 d:/joengine-master/compiler/windows/bin/../lib/gcc/sh-elf/9.3.0\libgcc.a(_fpcmp_parts_sf.o)
 .bss           0x060bf670        0x0 d:/joengine-master/compiler/windows/bin/../lib/gcc/sh-elf/9.3.0\libgcc.a(_make_sf.o)
 .bss           0x060bf670        0x0 d:/joengine-master/compiler/windows/bin/../lib/gcc/sh-elf/9.3.0\libgcc.a(_pack_df.o)
 .bss           0x060bf670        0x0 d:/joengine-master/compiler/windows/bin/../lib/gcc/sh-elf/9.3.0\libgcc.a(_unpack_df.o)
 .bss           0x060bf670        0x0 d:/joengine-master/compiler/windows/bin/../lib/gcc/sh-elf/9.3.0\libgcc.a(_clz.o)
 .bss           0x060bf670        0x0 d:/joengine-master/compiler/windows/bin/../lib/gcc/sh-elf/9.3.0/../../../../sh-elf/lib\libc.a(lib_a-impure.o)
 .bss           0x060bf670        0x0 d:/joengine-master/compiler/windows/bin/../lib/gcc/sh-elf/9.3.0/../../../../sh-elf/lib\libc.a(lib_a-memcmp.o)
 .bss           0x060bf670        0x0 d:/joengine-master/compiler/windows/bin/../lib/gcc/sh-elf/9.3.0/../../../../sh-elf/lib\libc.a(lib_a-memcpy.o)
 .bss           0x060bf670        0x0 d:/joengine-master/compiler/windows/bin/../lib/gcc/sh-elf/9.3.0/../../../../sh-elf/lib\libc.a(lib_a-memset.o)
 .bss           0x060bf670        0x0 d:/joengine-master/compiler/windows/bin/../lib/gcc/sh-elf/9.3.0/../../../../sh-elf/lib\libc.a(lib_a-rand.o)
 .bss           0x060bf670        0x0 d:/joengine-master/compiler/windows/bin/../lib/gcc/sh-elf/9.3.0/../../../../sh-elf/lib\libc.a(lib_a-rget.o)
 .bss           0x060bf670        0x0 d:/joengine-master/compiler/windows/bin/../lib/gcc/sh-elf/9.3.0/../../../../sh-elf/lib\libc.a(lib_a-sprintf.o)
 .bss           0x060bf670        0x0 d:/joengine-master/compiler/windows/bin/../lib/gcc/sh-elf/9.3.0/../../../../sh-elf/lib\libc.a(lib_a-strcat.o)
 .bss           0x060bf670        0x0 d:/joengine-master/compiler/windows/bin/../lib/gcc/sh-elf/9.3.0/../../../../sh-elf/lib\libc.a(lib_a-strcmp.o)
 .bss           0x060bf670        0x0 d:/joengine-master/compiler/windows/bin/../lib/gcc/sh-elf/9.3.0/../../../../sh-elf/lib\libc.a(lib_a-strcpy.o)
 .bss           0x060bf670        0x0 d:/joengine-master/compiler/windows/bin/../lib/gcc/sh-elf/9.3.0/../../../../sh-elf/lib\libc.a(lib_a-strlen.o)
 .bss           0x060bf670        0x0 d:/joengine-master/compiler/windows/bin/../lib/gcc/sh-elf/9.3.0/../../../../sh-elf/lib\libc.a(lib_a-strncmp.o)
 .bss           0x060bf670        0x0 d:/joengine-master/compiler/windows/bin/../lib/gcc/sh-elf/9.3.0/../../../../sh-elf/lib\libc.a(lib_a-strncpy.o)
 .bss           0x060bf670        0x0 d:/joengine-master/compiler/windows/bin/../lib/gcc/sh-elf/9.3.0/../../../../sh-elf/lib\libc.a(lib_a-strstr.o)
 .bss           0x060bf670        0x0 d:/joengine-master/compiler/windows/bin/../lib/gcc/sh-elf/9.3.0/../../../../sh-elf/lib\libc.a(lib_a-wbuf.o)
 .bss           0x060bf670        0x0 d:/joengine-master/compiler/windows/bin/../lib/gcc/sh-elf/9.3.0/../../../../sh-elf/lib\libc.a(lib_a-wsetup.o)
 .bss           0x060bf670        0x0 d:/joengine-master/compiler/windows/bin/../lib/gcc/sh-elf/9.3.0/../../../../sh-elf/lib\libc.a(lib_a-fflush.o)
 .bss           0x060bf670        0x0 d:/joengine-master/compiler/windows/bin/../lib/gcc/sh-elf/9.3.0/../../../../sh-elf/lib\libc.a(lib_a-findfp.o)
 .bss           0x060bf670        0x0 d:/joengine-master/compiler/windows/bin/../lib/gcc/sh-elf/9.3.0/../../../../sh-elf/lib\libc.a(lib_a-fwalk.o)
 .bss           0x060bf670        0x0 d:/joengine-master/compiler/windows/bin/../lib/gcc/sh-elf/9.3.0/../../../../sh-elf/lib\libc.a(lib_a-makebuf.o)
 .bss           0x060bf670        0x0 d:/joengine-master/compiler/windows/bin/../lib/gcc/sh-elf/9.3.0/../../../../sh-elf/lib\libc.a(lib_a-nano-svfprintf.o)
 .bss           0x060bf670        0x0 d:/joengine-master/compiler/windows/bin/../lib/gcc/sh-elf/9.3.0/../../../../sh-elf/lib\libc.a(lib_a-nano-vfprintf_i.o)
 .bss           0x060bf670        0x0 d:/joengine-master/compiler/windows/bin/../lib/gcc/sh-elf/9.3.0/../../../../sh-elf/lib\libc.a(lib_a-refill.o)
 .bss           0x060bf670        0x0 d:/joengine-master/compiler/windows/bin/../lib/gcc/sh-elf/9.3.0/../../../../sh-elf/lib\libc.a(lib_a-stdio.o)
 .bss           0x060bf670        0x0 d:/joengine-master/compiler/windows/bin/../lib/gcc/sh-elf/9.3.0/../../../../sh-elf/lib\libc.a(lib_a-writer.o)
 .bss           0x060bf670        0x0 d:/joengine-master/compiler/windows/bin/../lib/gcc/sh-elf/9.3.0/../../../../sh-elf/lib\libc.a(lib_a-closer.o)
 .bss           0x060bf670        0x0 d:/joengine-master/compiler/windows/bin/../lib/gcc/sh-elf/9.3.0/../../../../sh-elf/lib\libc.a(lib_a-fstatr.o)
 .bss           0x060bf670        0x0 d:/joengine-master/compiler/windows/bin/../lib/gcc/sh-elf/9.3.0/../../../../sh-elf/lib\libc.a(lib_a-isattyr.o)
 .bss           0x060bf670        0x0 d:/joengine-master/compiler/windows/bin/../lib/gcc/sh-elf/9.3.0/../../../../sh-elf/lib\libc.a(lib_a-lseekr.o)
 .bss           0x060bf670        0x0 d:/joengine-master/compiler/windows/bin/../lib/gcc/sh-elf/9.3.0/../../../../sh-elf/lib\libc.a(lib_a-memchr.o)
 .bss           0x060bf670        0x0 d:/joengine-master/compiler/windows/bin/../lib/gcc/sh-elf/9.3.0/../../../../sh-elf/lib\libc.a(lib_a-memmove.o)
 .bss           0x060bf670        0x0 d:/joengine-master/compiler/windows/bin/../lib/gcc/sh-elf/9.3.0/../../../../sh-elf/lib\libc.a(lib_a-readr.o)
 .bss           0x060bf670        0x0 d:/joengine-master/compiler/windows/bin/../lib/gcc/sh-elf/9.3.0/../../../../sh-elf/lib\libc.a(lib_a-reent.o)
 *(COMMON)
 COMMON         0x060bf670        0xc D:/joengine-master/Compiler/COMMON/SGL_302j/LIB_ELF/LIBCD.A(GFS.O)
                0x060bf670                GFMC_base
                0x060bf674                gfs_mng_ptr
                0x060bf678                gfs_use_scudma
 COMMON         0x060bf67c        0xc D:/joengine-master/Compiler/COMMON/SGL_302j/LIB_ELF/LIBCD.A(GFS_CDC.O)
                0x060bf67c                gfcd_fatal_err
                0x060bf680                gfcd_work
                0x060bf684                gfcd_playflag
 COMMON         0x060bf688        0x8 D:/joengine-master/Compiler/COMMON/SGL_302j/LIB_ELF/LIBCD.A(GFS_CDF.O)
                0x060bf688                gfcf_fad
                0x060bf68c                gfcf_stat
 COMMON         0x060bf690        0x4 d:/joengine-master/compiler/windows/bin/../lib/gcc/sh-elf/9.3.0/../../../../sh-elf/lib\libc.a(lib_a-reent.o)
                0x060bf690                errno
                0x060bf694                __bend = .
                0x060bf694                _end = .
LOAD D:/joengine-master/Compiler/COMMON/SGL_302j/LIB_ELF/SGLAREA.O
LOAD main.o
LOAD collision.o
LOAD pcmsys.o
LOAD name_entry.o
LOAD connecting.o
LOAD lobby.o
LOAD net/mmm_net.o
LOAD libc_stubs.o
LOAD D:/joengine-master/jo_engine/backup.o
LOAD D:/joengine-master/jo_engine/tga.o
LOAD D:/joengine-master/jo_engine/3d.o
LOAD D:/joengine-master/jo_engine/fs.o
LOAD D:/joengine-master/jo_engine/slave.o
LOAD D:/joengine-master/jo_engine/font.o
LOAD D:/joengine-master/jo_engine/input.o
LOAD D:/joengine-master/jo_engine/physics.o
LOAD D:/joengine-master/jo_engine/core.o
LOAD D:/joengine-master/jo_engine/math.o
LOAD D:/joengine-master/jo_engine/malloc.o
LOAD D:/joengine-master/jo_engine/tools.o
LOAD D:/joengine-master/jo_engine/palette.o
LOAD D:/joengine-master/jo_engine/sprites.o
LOAD D:/joengine-master/jo_engine/map.o
LOAD D:/joengine-master/jo_engine/list.o
LOAD D:/joengine-master/jo_engine/sprite_animator.o
LOAD D:/joengine-master/jo_engine/image.o
LOAD D:/joengine-master/jo_engine/vdp2.o
LOAD D:/joengine-master/jo_engine/time.o
LOAD D:/joengine-master/jo_engine/vdp1_command_pipeline.o
LOAD D:/joengine-master/jo_engine/vdp2_malloc.o
LOAD D:/joengine-master/Compiler/COMMON/SGL_302j/LIB_ELF/SEGA_SYS.A
LOAD D:/joengine-master/Compiler/COMMON/SGL_302j/LIB_ELF/LIBCD.A
LOAD D:/joengine-master/Compiler/COMMON/SGL_302j/LIB_ELF/LIBSGL.A
LOAD d:/joengine-master/compiler/windows/bin/../lib/gcc/sh-elf/9.3.0\libgcc.a
LOAD d:/joengine-master/compiler/windows/bin/../lib/gcc/sh-elf/9.3.0\libgcc-Os-4-200.a
LOAD d:/joengine-master/compiler/windows/bin/../lib/gcc/sh-elf/9.3.0/../../../../sh-elf/lib\libc.a
LOAD d:/joengine-master/compiler/windows/bin/../lib/gcc/sh-elf/9.3.0\libgcc.a
LOAD d:/joengine-master/compiler/windows/bin/../lib/gcc/sh-elf/9.3.0\libgcc-Os-4-200.a
OUTPUT(game.elf coff-sh)

.debug_info     0x00000000    0x1dac0
 .debug_info    0x00000000      0x72d d:/joengine-master/compiler/windows/bin/../lib/gcc/sh-elf/9.3.0\libgcc.a(_addsub_sf.o)
 .debug_info    0x0000072d      0x610 d:/joengine-master/compiler/windows/bin/../lib/gcc/sh-elf/9.3.0\libgcc.a(_mul_sf.o)
 .debug_info    0x00000d3d      0x5d8 d:/joengine-master/compiler/windows/bin/../lib/gcc/sh-elf/9.3.0\libgcc.a(_div_sf.o)
 .debug_info    0x00001315      0x4e7 d:/joengine-master/compiler/windows/bin/../lib/gcc/sh-elf/9.3.0\libgcc.a(_eq_sf.o)
 .debug_info    0x000017fc      0x4e7 d:/joengine-master/compiler/windows/bin/../lib/gcc/sh-elf/9.3.0\libgcc.a(_ne_sf.o)
 .debug_info    0x00001ce3      0x4e7 d:/joengine-master/compiler/windows/bin/../lib/gcc/sh-elf/9.3.0\libgcc.a(_gt_sf.o)
 .debug_info    0x000021ca      0x4e7 d:/joengine-master/compiler/windows/bin/../lib/gcc/sh-elf/9.3.0\libgcc.a(_ge_sf.o)
 .debug_info    0x000026b1      0x4e7 d:/joengine-master/compiler/windows/bin/../lib/gcc/sh-elf/9.3.0\libgcc.a(_lt_sf.o)
 .debug_info    0x00002b98      0x4e7 d:/joengine-master/compiler/windows/bin/../lib/gcc/sh-elf/9.3.0\libgcc.a(_le_sf.o)
 .debug_info    0x0000307f      0x494 d:/joengine-master/compiler/windows/bin/../lib/gcc/sh-elf/9.3.0\libgcc.a(_si_to_sf.o)
 .debug_info    0x00003513      0x4c1 d:/joengine-master/compiler/windows/bin/../lib/gcc/sh-elf/9.3.0\libgcc.a(_sf_to_si.o)
 .debug_info    0x000039d4      0x47d d:/joengine-master/compiler/windows/bin/../lib/gcc/sh-elf/9.3.0\libgcc.a(_sf_to_df.o)
 .debug_info    0x00003e51      0x391 d:/joengine-master/compiler/windows/bin/../lib/gcc/sh-elf/9.3.0\libgcc.a(_thenan_sf.o)
 .debug_info    0x000041e2      0x4cd d:/joengine-master/compiler/windows/bin/../lib/gcc/sh-elf/9.3.0\libgcc.a(_usi_to_sf.o)
 .debug_info    0x000046af      0x740 d:/joengine-master/compiler/windows/bin/../lib/gcc/sh-elf/9.3.0\libgcc.a(_addsub_df.o)
 .debug_info    0x00004def      0x6e9 d:/joengine-master/compiler/windows/bin/../lib/gcc/sh-elf/9.3.0\libgcc.a(_mul_df.o)
 .debug_info    0x000054d8      0x494 d:/joengine-master/compiler/windows/bin/../lib/gcc/sh-elf/9.3.0\libgcc.a(_si_to_df.o)
 .debug_info    0x0000596c      0x4ce d:/joengine-master/compiler/windows/bin/../lib/gcc/sh-elf/9.3.0\libgcc.a(_df_to_si.o)
 .debug_info    0x00005e3a      0x429 d:/joengine-master/compiler/windows/bin/../lib/gcc/sh-elf/9.3.0\libgcc.a(_make_df.o)
 .debug_info    0x00006263      0x48f d:/joengine-master/compiler/windows/bin/../lib/gcc/sh-elf/9.3.0\libgcc.a(_df_to_sf.o)
 .debug_info    0x000066f2      0x391 d:/joengine-master/compiler/windows/bin/../lib/gcc/sh-elf/9.3.0\libgcc.a(_thenan_df.o)
 .debug_info    0x00006a83      0x3de d:/joengine-master/compiler/windows/bin/../lib/gcc/sh-elf/9.3.0\libgcc.a(_clzsi2.o)
 .debug_info    0x00006e61      0x4c7 d:/joengine-master/compiler/windows/bin/../lib/gcc/sh-elf/9.3.0\libgcc.a(_pack_sf.o)
 .debug_info    0x00007328      0x452 d:/joengine-master/compiler/windows/bin/../lib/gcc/sh-elf/9.3.0\libgcc.a(_unpack_sf.o)
 .debug_info    0x0000777a      0x425 d:/joengine-master/compiler/windows/bin/../lib/gcc/sh-elf/9.3.0\libgcc.a(_fpcmp_parts_sf.o)
 .debug_info    0x00007b9f      0x42a d:/joengine-master/compiler/windows/bin/../lib/gcc/sh-elf/9.3.0\libgcc.a(_make_sf.o)
 .debug_info    0x00007fc9      0x4d4 d:/joengine-master/compiler/windows/bin/../lib/gcc/sh-elf/9.3.0\libgcc.a(_pack_df.o)
 .debug_info    0x0000849d      0x45d d:/joengine-master/compiler/windows/bin/../lib/gcc/sh-elf/9.3.0\libgcc.a(_unpack_df.o)
 .debug_info    0x000088fa      0x371 d:/joengine-master/compiler/windows/bin/../lib/gcc/sh-elf/9.3.0\libgcc.a(_clz.o)
 .debug_info    0x00008c6b      0x905 d:/joengine-master/compiler/windows/bin/../lib/gcc/sh-elf/9.3.0/../../../../sh-elf/lib\libc.a(lib_a-impure.o)
 .debug_info    0x00009570      0x95d d:/joengine-master/compiler/windows/bin/../lib/gcc/sh-elf/9.3.0/../../../../sh-elf/lib\libc.a(lib_a-memcmp.o)
 .debug_info    0x00009ecd      0x94d d:/joengine-master/compiler/windows/bin/../lib/gcc/sh-elf/9.3.0/../../../../sh-elf/lib\libc.a(lib_a-rand.o)
 .debug_info    0x0000a81a      0xbe4 d:/joengine-master/compiler/windows/bin/../lib/gcc/sh-elf/9.3.0/../../../../sh-elf/lib\libc.a(lib_a-rget.o)
 .debug_info    0x0000b3fe      0xc42 d:/joengine-master/compiler/windows/bin/../lib/gcc/sh-elf/9.3.0/../../../../sh-elf/lib\libc.a(lib_a-sprintf.o)
 .debug_info    0x0000c040      0x930 d:/joengine-master/compiler/windows/bin/../lib/gcc/sh-elf/9.3.0/../../../../sh-elf/lib\libc.a(lib_a-strcat.o)
 .debug_info    0x0000c970      0x934 d:/joengine-master/compiler/windows/bin/../lib/gcc/sh-elf/9.3.0/../../../../sh-elf/lib\libc.a(lib_a-strncmp.o)
 .debug_info    0x0000d2a4      0x960 d:/joengine-master/compiler/windows/bin/../lib/gcc/sh-elf/9.3.0/../../../../sh-elf/lib\libc.a(lib_a-strncpy.o)
 .debug_info    0x0000dc04      0x940 d:/joengine-master/compiler/windows/bin/../lib/gcc/sh-elf/9.3.0/../../../../sh-elf/lib\libc.a(lib_a-strstr.o)
 .debug_info    0x0000e544      0xc56 d:/joengine-master/compiler/windows/bin/../lib/gcc/sh-elf/9.3.0/../../../../sh-elf/lib\libc.a(lib_a-wbuf.o)
 .debug_info    0x0000f19a      0xbc2 d:/joengine-master/compiler/windows/bin/../lib/gcc/sh-elf/9.3.0/../../../../sh-elf/lib\libc.a(lib_a-wsetup.o)
 .debug_info    0x0000fd5c      0xd1b d:/joengine-master/compiler/windows/bin/../lib/gcc/sh-elf/9.3.0/../../../../sh-elf/lib\libc.a(lib_a-fflush.o)
 .debug_info    0x00010a77      0xed4 d:/joengine-master/compiler/windows/bin/../lib/gcc/sh-elf/9.3.0/../../../../sh-elf/lib\libc.a(lib_a-findfp.o)
 .debug_info    0x0001194b      0xc4f d:/joengine-master/compiler/windows/bin/../lib/gcc/sh-elf/9.3.0/../../../../sh-elf/lib\libc.a(lib_a-fwalk.o)
 .debug_info    0x0001259a      0xef9 d:/joengine-master/compiler/windows/bin/../lib/gcc/sh-elf/9.3.0/../../../../sh-elf/lib\libc.a(lib_a-makebuf.o)
 .debug_info    0x00013493     0x16b8 d:/joengine-master/compiler/windows/bin/../lib/gcc/sh-elf/9.3.0/../../../../sh-elf/lib\libc.a(lib_a-nano-svfprintf.o)
 .debug_info    0x00014b4b     0x14c8 d:/joengine-master/compiler/windows/bin/../lib/gcc/sh-elf/9.3.0/../../../../sh-elf/lib\libc.a(lib_a-nano-vfprintf_i.o)
 .debug_info    0x00016013      0xcaa d:/joengine-master/compiler/windows/bin/../lib/gcc/sh-elf/9.3.0/../../../../sh-elf/lib\libc.a(lib_a-refill.o)
 .debug_info    0x00016cbd      0xdf2 d:/joengine-master/compiler/windows/bin/../lib/gcc/sh-elf/9.3.0/../../../../sh-elf/lib\libc.a(lib_a-stdio.o)
 .debug_info    0x00017aaf      0xa09 d:/joengine-master/compiler/windows/bin/../lib/gcc/sh-elf/9.3.0/../../../../sh-elf/lib\libc.a(lib_a-writer.o)
 .debug_info    0x000184b8      0x9bc d:/joengine-master/compiler/windows/bin/../lib/gcc/sh-elf/9.3.0/../../../../sh-elf/lib\libc.a(lib_a-closer.o)
 .debug_info    0x00018e74      0xc05 d:/joengine-master/compiler/windows/bin/../lib/gcc/sh-elf/9.3.0/../../../../sh-elf/lib\libc.a(lib_a-fstatr.o)
 .debug_info    0x00019a79      0x9bc d:/joengine-master/compiler/windows/bin/../lib/gcc/sh-elf/9.3.0/../../../../sh-elf/lib\libc.a(lib_a-isattyr.o)
 .debug_info    0x0001a435      0x9ea d:/joengine-master/compiler/windows/bin/../lib/gcc/sh-elf/9.3.0/../../../../sh-elf/lib\libc.a(lib_a-lseekr.o)
 .debug_info    0x0001ae1f      0x968 d:/joengine-master/compiler/windows/bin/../lib/gcc/sh-elf/9.3.0/../../../../sh-elf/lib\libc.a(lib_a-memchr.o)
 .debug_info    0x0001b787      0xeb9 d:/joengine-master/compiler/windows/bin/../lib/gcc/sh-elf/9.3.0/../../../../sh-elf/lib\libc.a(lib_a-memmove.o)
 .debug_info    0x0001c640      0xa02 d:/joengine-master/compiler/windows/bin/../lib/gcc/sh-elf/9.3.0/../../../../sh-elf/lib\libc.a(lib_a-readr.o)
 .debug_info    0x0001d042      0xa7c d:/joengine-master/compiler/windows/bin/../lib/gcc/sh-elf/9.3.0/../../../../sh-elf/lib\libc.a(lib_a-reent.o)

.debug_abbrev   0x00000000     0x75b0
 .debug_abbrev  0x00000000      0x244 d:/joengine-master/compiler/windows/bin/../lib/gcc/sh-elf/9.3.0\libgcc.a(_addsub_sf.o)
 .debug_abbrev  0x00000244      0x275 d:/joengine-master/compiler/windows/bin/../lib/gcc/sh-elf/9.3.0\libgcc.a(_mul_sf.o)
 .debug_abbrev  0x000004b9      0x25c d:/joengine-master/compiler/windows/bin/../lib/gcc/sh-elf/9.3.0\libgcc.a(_div_sf.o)
 .debug_abbrev  0x00000715      0x1b7 d:/joengine-master/compiler/windows/bin/../lib/gcc/sh-elf/9.3.0\libgcc.a(_eq_sf.o)
 .debug_abbrev  0x000008cc      0x1b7 d:/joengine-master/compiler/windows/bin/../lib/gcc/sh-elf/9.3.0\libgcc.a(_ne_sf.o)
 .debug_abbrev  0x00000a83      0x1b7 d:/joengine-master/compiler/windows/bin/../lib/gcc/sh-elf/9.3.0\libgcc.a(_gt_sf.o)
 .debug_abbrev  0x00000c3a      0x1b7 d:/joengine-master/compiler/windows/bin/../lib/gcc/sh-elf/9.3.0\libgcc.a(_ge_sf.o)
 .debug_abbrev  0x00000df1      0x1b7 d:/joengine-master/compiler/windows/bin/../lib/gcc/sh-elf/9.3.0\libgcc.a(_lt_sf.o)
 .debug_abbrev  0x00000fa8      0x1b7 d:/joengine-master/compiler/windows/bin/../lib/gcc/sh-elf/9.3.0\libgcc.a(_le_sf.o)
 .debug_abbrev  0x0000115f      0x1fb d:/joengine-master/compiler/windows/bin/../lib/gcc/sh-elf/9.3.0\libgcc.a(_si_to_sf.o)
 .debug_abbrev  0x0000135a      0x1bb d:/joengine-master/compiler/windows/bin/../lib/gcc/sh-elf/9.3.0\libgcc.a(_sf_to_si.o)
 .debug_abbrev  0x00001515      0x193 d:/joengine-master/compiler/windows/bin/../lib/gcc/sh-elf/9.3.0\libgcc.a(_sf_to_df.o)
 .debug_abbrev  0x000016a8      0x11c d:/joengine-master/compiler/windows/bin/../lib/gcc/sh-elf/9.3.0\libgcc.a(_thenan_sf.o)
 .debug_abbrev  0x000017c4      0x213 d:/joengine-master/compiler/windows/bin/../lib/gcc/sh-elf/9.3.0\libgcc.a(_usi_to_sf.o)
 .debug_abbrev  0x000019d7      0x244 d:/joengine-master/compiler/windows/bin/../lib/gcc/sh-elf/9.3.0\libgcc.a(_addsub_df.o)
 .debug_abbrev  0x00001c1b      0x27c d:/joengine-master/compiler/windows/bin/../lib/gcc/sh-elf/9.3.0\libgcc.a(_mul_df.o)
 .debug_abbrev  0x00001e97      0x1fb d:/joengine-master/compiler/windows/bin/../lib/gcc/sh-elf/9.3.0\libgcc.a(_si_to_df.o)
 .debug_abbrev  0x00002092      0x1bb d:/joengine-master/compiler/windows/bin/../lib/gcc/sh-elf/9.3.0\libgcc.a(_df_to_si.o)
 .debug_abbrev  0x0000224d      0x199 d:/joengine-master/compiler/windows/bin/../lib/gcc/sh-elf/9.3.0\libgcc.a(_make_df.o)
 .debug_abbrev  0x000023e6      0x1a4 d:/joengine-master/compiler/windows/bin/../lib/gcc/sh-elf/9.3.0\libgcc.a(_df_to_sf.o)
 .debug_abbrev  0x0000258a      0x11c d:/joengine-master/compiler/windows/bin/../lib/gcc/sh-elf/9.3.0\libgcc.a(_thenan_df.o)
 .debug_abbrev  0x000026a6      0x129 d:/joengine-master/compiler/windows/bin/../lib/gcc/sh-elf/9.3.0\libgcc.a(_clzsi2.o)
 .debug_abbrev  0x000027cf      0x1cb d:/joengine-master/compiler/windows/bin/../lib/gcc/sh-elf/9.3.0\libgcc.a(_pack_sf.o)
 .debug_abbrev  0x0000299a      0x16b d:/joengine-master/compiler/windows/bin/../lib/gcc/sh-elf/9.3.0\libgcc.a(_unpack_sf.o)
 .debug_abbrev  0x00002b05      0x173 d:/joengine-master/compiler/windows/bin/../lib/gcc/sh-elf/9.3.0\libgcc.a(_fpcmp_parts_sf.o)
 .debug_abbrev  0x00002c78      0x188 d:/joengine-master/compiler/windows/bin/../lib/gcc/sh-elf/9.3.0\libgcc.a(_make_sf.o)
 .debug_abbrev  0x00002e00      0x1cb d:/joengine-master/compiler/windows/bin/../lib/gcc/sh-elf/9.3.0\libgcc.a(_pack_df.o)
 .debug_abbrev  0x00002fcb      0x18b d:/joengine-master/compiler/windows/bin/../lib/gcc/sh-elf/9.3.0\libgcc.a(_unpack_df.o)
 .debug_abbrev  0x00003156       0xcf d:/joengine-master/compiler/windows/bin/../lib/gcc/sh-elf/9.3.0\libgcc.a(_clz.o)
 .debug_abbrev  0x00003225      0x1b8 d:/joengine-master/compiler/windows/bin/../lib/gcc/sh-elf/9.3.0/../../../../sh-elf/lib\libc.a(lib_a-impure.o)
 .debug_abbrev  0x000033dd      0x1e7 d:/joengine-master/compiler/windows/bin/../lib/gcc/sh-elf/9.3.0/../../../../sh-elf/lib\libc.a(lib_a-memcmp.o)
 .debug_abbrev  0x000035c4      0x20f d:/joengine-master/compiler/windows/bin/../lib/gcc/sh-elf/9.3.0/../../../../sh-elf/lib\libc.a(lib_a-rand.o)
 .debug_abbrev  0x000037d3      0x27e d:/joengine-master/compiler/windows/bin/../lib/gcc/sh-elf/9.3.0/../../../../sh-elf/lib\libc.a(lib_a-rget.o)
 .debug_abbrev  0x00003a51      0x277 d:/joengine-master/compiler/windows/bin/../lib/gcc/sh-elf/9.3.0/../../../../sh-elf/lib\libc.a(lib_a-sprintf.o)
 .debug_abbrev  0x00003cc8      0x1e7 d:/joengine-master/compiler/windows/bin/../lib/gcc/sh-elf/9.3.0/../../../../sh-elf/lib\libc.a(lib_a-strcat.o)
 .debug_abbrev  0x00003eaf      0x1cf d:/joengine-master/compiler/windows/bin/../lib/gcc/sh-elf/9.3.0/../../../../sh-elf/lib\libc.a(lib_a-strncmp.o)
 .debug_abbrev  0x0000407e      0x1f8 d:/joengine-master/compiler/windows/bin/../lib/gcc/sh-elf/9.3.0/../../../../sh-elf/lib\libc.a(lib_a-strncpy.o)
 .debug_abbrev  0x00004276      0x200 d:/joengine-master/compiler/windows/bin/../lib/gcc/sh-elf/9.3.0/../../../../sh-elf/lib\libc.a(lib_a-strstr.o)
 .debug_abbrev  0x00004476      0x2af d:/joengine-master/compiler/windows/bin/../lib/gcc/sh-elf/9.3.0/../../../../sh-elf/lib\libc.a(lib_a-wbuf.o)
 .debug_abbrev  0x00004725      0x27d d:/joengine-master/compiler/windows/bin/../lib/gcc/sh-elf/9.3.0/../../../../sh-elf/lib\libc.a(lib_a-wsetup.o)
 .debug_abbrev  0x000049a2      0x323 d:/joengine-master/compiler/windows/bin/../lib/gcc/sh-elf/9.3.0/../../../../sh-elf/lib\libc.a(lib_a-fflush.o)
 .debug_abbrev  0x00004cc5      0x384 d:/joengine-master/compiler/windows/bin/../lib/gcc/sh-elf/9.3.0/../../../../sh-elf/lib\libc.a(lib_a-findfp.o)
 .debug_abbrev  0x00005049      0x245 d:/joengine-master/compiler/windows/bin/../lib/gcc/sh-elf/9.3.0/../../../../sh-elf/lib\libc.a(lib_a-fwalk.o)
 .debug_abbrev  0x0000528e      0x31e d:/joengine-master/compiler/windows/bin/../lib/gcc/sh-elf/9.3.0/../../../../sh-elf/lib\libc.a(lib_a-makebuf.o)
 .debug_abbrev  0x000055ac      0x355 d:/joengine-master/compiler/windows/bin/../lib/gcc/sh-elf/9.3.0/../../../../sh-elf/lib\libc.a(lib_a-nano-svfprintf.o)
 .debug_abbrev  0x00005901      0x2e4 d:/joengine-master/compiler/windows/bin/../lib/gcc/sh-elf/9.3.0/../../../../sh-elf/lib\libc.a(lib_a-nano-vfprintf_i.o)
 .debug_abbrev  0x00005be5      0x2b2 d:/joengine-master/compiler/windows/bin/../lib/gcc/sh-elf/9.3.0/../../../../sh-elf/lib\libc.a(lib_a-refill.o)
 .debug_abbrev  0x00005e97      0x2a1 d:/joengine-master/compiler/windows/bin/../lib/gcc/sh-elf/9.3.0/../../../../sh-elf/lib\libc.a(lib_a-stdio.o)
 .debug_abbrev  0x00006138      0x245 d:/joengine-master/compiler/windows/bin/../lib/gcc/sh-elf/9.3.0/../../../../sh-elf/lib\libc.a(lib_a-writer.o)
 .debug_abbrev  0x0000637d      0x240 d:/joengine-master/compiler/windows/bin/../lib/gcc/sh-elf/9.3.0/../../../../sh-elf/lib\libc.a(lib_a-closer.o)
 .debug_abbrev  0x000065bd      0x251 d:/joengine-master/compiler/windows/bin/../lib/gcc/sh-elf/9.3.0/../../../../sh-elf/lib\libc.a(lib_a-fstatr.o)
 .debug_abbrev  0x0000680e      0x240 d:/joengine-master/compiler/windows/bin/../lib/gcc/sh-elf/9.3.0/../../../../sh-elf/lib\libc.a(lib_a-isattyr.o)
 .debug_abbrev  0x00006a4e      0x251 d:/joengine-master/compiler/windows/bin/../lib/gcc/sh-elf/9.3.0/../../../../sh-elf/lib\libc.a(lib_a-lseekr.o)
 .debug_abbrev  0x00006c9f      0x209 d:/joengine-master/compiler/windows/bin/../lib/gcc/sh-elf/9.3.0/../../../../sh-elf/lib\libc.a(lib_a-memchr.o)
 .debug_abbrev  0x00006ea8      0x200 d:/joengine-master/compiler/windows/bin/../lib/gcc/sh-elf/9.3.0/../../../../sh-elf/lib\libc.a(lib_a-memmove.o)
 .debug_abbrev  0x000070a8      0x240 d:/joengine-master/compiler/windows/bin/../lib/gcc/sh-elf/9.3.0/../../../../sh-elf/lib\libc.a(lib_a-readr.o)
 .debug_abbrev  0x000072e8      0x2c7 d:/joengine-master/compiler/windows/bin/../lib/gcc/sh-elf/9.3.0/../../../../sh-elf/lib\libc.a(lib_a-reent.o)

.debug_loc      0x00000000     0x4900
 .debug_loc     0x00000000      0x495 d:/joengine-master/compiler/windows/bin/../lib/gcc/sh-elf/9.3.0\libgcc.a(_addsub_sf.o)
 .debug_loc     0x00000495      0x272 d:/joengine-master/compiler/windows/bin/../lib/gcc/sh-elf/9.3.0\libgcc.a(_mul_sf.o)
 .debug_loc     0x00000707      0x15d d:/joengine-master/compiler/windows/bin/../lib/gcc/sh-elf/9.3.0\libgcc.a(_div_sf.o)
 .debug_loc     0x00000864       0x5e d:/joengine-master/compiler/windows/bin/../lib/gcc/sh-elf/9.3.0\libgcc.a(_eq_sf.o)
 .debug_loc     0x000008c2       0x5e d:/joengine-master/compiler/windows/bin/../lib/gcc/sh-elf/9.3.0\libgcc.a(_ne_sf.o)
 .debug_loc     0x00000920       0x5e d:/joengine-master/compiler/windows/bin/../lib/gcc/sh-elf/9.3.0\libgcc.a(_gt_sf.o)
 .debug_loc     0x0000097e       0x5e d:/joengine-master/compiler/windows/bin/../lib/gcc/sh-elf/9.3.0\libgcc.a(_ge_sf.o)
 .debug_loc     0x000009dc       0x5e d:/joengine-master/compiler/windows/bin/../lib/gcc/sh-elf/9.3.0\libgcc.a(_lt_sf.o)
 .debug_loc     0x00000a3a       0x5e d:/joengine-master/compiler/windows/bin/../lib/gcc/sh-elf/9.3.0\libgcc.a(_le_sf.o)
 .debug_loc     0x00000a98       0xeb d:/joengine-master/compiler/windows/bin/../lib/gcc/sh-elf/9.3.0\libgcc.a(_si_to_sf.o)
 .debug_loc     0x00000b83       0x50 d:/joengine-master/compiler/windows/bin/../lib/gcc/sh-elf/9.3.0\libgcc.a(_sf_to_si.o)
 .debug_loc     0x00000bd3       0x2f d:/joengine-master/compiler/windows/bin/../lib/gcc/sh-elf/9.3.0\libgcc.a(_sf_to_df.o)
 .debug_loc     0x00000c02      0x127 d:/joengine-master/compiler/windows/bin/../lib/gcc/sh-elf/9.3.0\libgcc.a(_usi_to_sf.o)
 .debug_loc     0x00000d29      0x711 d:/joengine-master/compiler/windows/bin/../lib/gcc/sh-elf/9.3.0\libgcc.a(_addsub_df.o)
 .debug_loc     0x0000143a      0x4d5 d:/joengine-master/compiler/windows/bin/../lib/gcc/sh-elf/9.3.0\libgcc.a(_mul_df.o)
 .debug_loc     0x0000190f       0xd1 d:/joengine-master/compiler/windows/bin/../lib/gcc/sh-elf/9.3.0\libgcc.a(_si_to_df.o)
 .debug_loc     0x000019e0       0x46 d:/joengine-master/compiler/windows/bin/../lib/gcc/sh-elf/9.3.0\libgcc.a(_df_to_si.o)
 .debug_loc     0x00001a26       0x6f d:/joengine-master/compiler/windows/bin/../lib/gcc/sh-elf/9.3.0\libgcc.a(_make_df.o)
 .debug_loc     0x00001a95       0x3b d:/joengine-master/compiler/windows/bin/../lib/gcc/sh-elf/9.3.0\libgcc.a(_df_to_sf.o)
 .debug_loc     0x00001ad0       0x5a d:/joengine-master/compiler/windows/bin/../lib/gcc/sh-elf/9.3.0\libgcc.a(_clzsi2.o)
 .debug_loc     0x00001b2a      0x206 d:/joengine-master/compiler/windows/bin/../lib/gcc/sh-elf/9.3.0\libgcc.a(_pack_sf.o)
 .debug_loc     0x00001d30      0x173 d:/joengine-master/compiler/windows/bin/../lib/gcc/sh-elf/9.3.0\libgcc.a(_unpack_sf.o)
 .debug_loc     0x00001ea3       0x90 d:/joengine-master/compiler/windows/bin/../lib/gcc/sh-elf/9.3.0\libgcc.a(_make_sf.o)
 .debug_loc     0x00001f33      0x33e d:/joengine-master/compiler/windows/bin/../lib/gcc/sh-elf/9.3.0\libgcc.a(_pack_df.o)
 .debug_loc     0x00002271       0xb5 d:/joengine-master/compiler/windows/bin/../lib/gcc/sh-elf/9.3.0\libgcc.a(_unpack_df.o)
 .debug_loc     0x00002326       0xde d:/joengine-master/compiler/windows/bin/../lib/gcc/sh-elf/9.3.0/../../../../sh-elf/lib\libc.a(lib_a-memcmp.o)
 .debug_loc     0x00002404       0x32 d:/joengine-master/compiler/windows/bin/../lib/gcc/sh-elf/9.3.0/../../../../sh-elf/lib\libc.a(lib_a-rand.o)
 .debug_loc     0x00002436       0xb0 d:/joengine-master/compiler/windows/bin/../lib/gcc/sh-elf/9.3.0/../../../../sh-elf/lib\libc.a(lib_a-rget.o)
 .debug_loc     0x000024e6       0xca d:/joengine-master/compiler/windows/bin/../lib/gcc/sh-elf/9.3.0/../../../../sh-elf/lib\libc.a(lib_a-sprintf.o)
 .debug_loc     0x000025b0       0x47 d:/joengine-master/compiler/windows/bin/../lib/gcc/sh-elf/9.3.0/../../../../sh-elf/lib\libc.a(lib_a-strcat.o)
 .debug_loc     0x000025f7       0x7c d:/joengine-master/compiler/windows/bin/../lib/gcc/sh-elf/9.3.0/../../../../sh-elf/lib\libc.a(lib_a-strncmp.o)
 .debug_loc     0x00002673       0xa2 d:/joengine-master/compiler/windows/bin/../lib/gcc/sh-elf/9.3.0/../../../../sh-elf/lib\libc.a(lib_a-strncpy.o)
 .debug_loc     0x00002715       0x36 d:/joengine-master/compiler/windows/bin/../lib/gcc/sh-elf/9.3.0/../../../../sh-elf/lib\libc.a(lib_a-strstr.o)
 .debug_loc     0x0000274b      0x192 d:/joengine-master/compiler/windows/bin/../lib/gcc/sh-elf/9.3.0/../../../../sh-elf/lib\libc.a(lib_a-wbuf.o)
 .debug_loc     0x000028dd       0x81 d:/joengine-master/compiler/windows/bin/../lib/gcc/sh-elf/9.3.0/../../../../sh-elf/lib\libc.a(lib_a-wsetup.o)
 .debug_loc     0x0000295e      0x309 d:/joengine-master/compiler/windows/bin/../lib/gcc/sh-elf/9.3.0/../../../../sh-elf/lib\libc.a(lib_a-fflush.o)
 .debug_loc     0x00002c67      0x232 d:/joengine-master/compiler/windows/bin/../lib/gcc/sh-elf/9.3.0/../../../../sh-elf/lib\libc.a(lib_a-findfp.o)
 .debug_loc     0x00002e99      0x1e4 d:/joengine-master/compiler/windows/bin/../lib/gcc/sh-elf/9.3.0/../../../../sh-elf/lib\libc.a(lib_a-fwalk.o)
 .debug_loc     0x0000307d      0x21a d:/joengine-master/compiler/windows/bin/../lib/gcc/sh-elf/9.3.0/../../../../sh-elf/lib\libc.a(lib_a-makebuf.o)
 .debug_loc     0x00003297      0x6ac d:/joengine-master/compiler/windows/bin/../lib/gcc/sh-elf/9.3.0/../../../../sh-elf/lib\libc.a(lib_a-nano-svfprintf.o)
 .debug_loc     0x00003943      0x535 d:/joengine-master/compiler/windows/bin/../lib/gcc/sh-elf/9.3.0/../../../../sh-elf/lib\libc.a(lib_a-nano-vfprintf_i.o)
 .debug_loc     0x00003e78       0xcf d:/joengine-master/compiler/windows/bin/../lib/gcc/sh-elf/9.3.0/../../../../sh-elf/lib\libc.a(lib_a-refill.o)
 .debug_loc     0x00003f47      0x388 d:/joengine-master/compiler/windows/bin/../lib/gcc/sh-elf/9.3.0/../../../../sh-elf/lib\libc.a(lib_a-stdio.o)
 .debug_loc     0x000042cf       0xa5 d:/joengine-master/compiler/windows/bin/../lib/gcc/sh-elf/9.3.0/../../../../sh-elf/lib\libc.a(lib_a-writer.o)
 .debug_loc     0x00004374       0x4d d:/joengine-master/compiler/windows/bin/../lib/gcc/sh-elf/9.3.0/../../../../sh-elf/lib\libc.a(lib_a-closer.o)
 .debug_loc     0x000043c1       0x79 d:/joengine-master/compiler/windows/bin/../lib/gcc/sh-elf/9.3.0/../../../../sh-elf/lib\libc.a(lib_a-fstatr.o)
 .debug_loc     0x0000443a       0x4d d:/joengine-master/compiler/windows/bin/../lib/gcc/sh-elf/9.3.0/../../../../sh-elf/lib\libc.a(lib_a-isattyr.o)
 .debug_loc     0x00004487       0xa5 d:/joengine-master/compiler/windows/bin/../lib/gcc/sh-elf/9.3.0/../../../../sh-elf/lib\libc.a(lib_a-lseekr.o)
 .debug_loc     0x0000452c       0xcb d:/joengine-master/compiler/windows/bin/../lib/gcc/sh-elf/9.3.0/../../../../sh-elf/lib\libc.a(lib_a-memchr.o)
 .debug_loc     0x000045f7      0x137 d:/joengine-master/compiler/windows/bin/../lib/gcc/sh-elf/9.3.0/../../../../sh-elf/lib\libc.a(lib_a-memmove.o)
 .debug_loc     0x0000472e       0xa5 d:/joengine-master/compiler/windows/bin/../lib/gcc/sh-elf/9.3.0/../../../../sh-elf/lib\libc.a(lib_a-readr.o)
 .debug_loc     0x000047d3      0x12b d:/joengine-master/compiler/windows/bin/../lib/gcc/sh-elf/9.3.0/../../../../sh-elf/lib\libc.a(lib_a-reent.o)

.debug_aranges  0x00000000      0x700
 .debug_aranges
                0x00000000       0x20 d:/joengine-master/compiler/windows/bin/../lib/gcc/sh-elf/9.3.0\libgcc.a(_addsub_sf.o)
 .debug_aranges
                0x00000020       0x20 d:/joengine-master/compiler/windows/bin/../lib/gcc/sh-elf/9.3.0\libgcc.a(_mul_sf.o)
 .debug_aranges
                0x00000040       0x20 d:/joengine-master/compiler/windows/bin/../lib/gcc/sh-elf/9.3.0\libgcc.a(_div_sf.o)
 .debug_aranges
                0x00000060       0x20 d:/joengine-master/compiler/windows/bin/../lib/gcc/sh-elf/9.3.0\libgcc.a(_eq_sf.o)
 .debug_aranges
                0x00000080       0x20 d:/joengine-master/compiler/windows/bin/../lib/gcc/sh-elf/9.3.0\libgcc.a(_ne_sf.o)
 .debug_aranges
                0x000000a0       0x20 d:/joengine-master/compiler/windows/bin/../lib/gcc/sh-elf/9.3.0\libgcc.a(_gt_sf.o)
 .debug_aranges
                0x000000c0       0x20 d:/joengine-master/compiler/windows/bin/../lib/gcc/sh-elf/9.3.0\libgcc.a(_ge_sf.o)
 .debug_aranges
                0x000000e0       0x20 d:/joengine-master/compiler/windows/bin/../lib/gcc/sh-elf/9.3.0\libgcc.a(_lt_sf.o)
 .debug_aranges
                0x00000100       0x20 d:/joengine-master/compiler/windows/bin/../lib/gcc/sh-elf/9.3.0\libgcc.a(_le_sf.o)
 .debug_aranges
                0x00000120       0x20 d:/joengine-master/compiler/windows/bin/../lib/gcc/sh-elf/9.3.0\libgcc.a(_si_to_sf.o)
 .debug_aranges
                0x00000140       0x20 d:/joengine-master/compiler/windows/bin/../lib/gcc/sh-elf/9.3.0\libgcc.a(_sf_to_si.o)
 .debug_aranges
                0x00000160       0x20 d:/joengine-master/compiler/windows/bin/../lib/gcc/sh-elf/9.3.0\libgcc.a(_sf_to_df.o)
 .debug_aranges
                0x00000180       0x18 d:/joengine-master/compiler/windows/bin/../lib/gcc/sh-elf/9.3.0\libgcc.a(_thenan_sf.o)
 .debug_aranges
                0x00000198       0x20 d:/joengine-master/compiler/windows/bin/../lib/gcc/sh-elf/9.3.0\libgcc.a(_usi_to_sf.o)
 .debug_aranges
                0x000001b8       0x20 d:/joengine-master/compiler/windows/bin/../lib/gcc/sh-elf/9.3.0\libgcc.a(_addsub_df.o)
 .debug_aranges
                0x000001d8       0x20 d:/joengine-master/compiler/windows/bin/../lib/gcc/sh-elf/9.3.0\libgcc.a(_mul_df.o)
 .debug_aranges
                0x000001f8       0x20 d:/joengine-master/compiler/windows/bin/../lib/gcc/sh-elf/9.3.0\libgcc.a(_si_to_df.o)
 .debug_aranges
                0x00000218       0x20 d:/joengine-master/compiler/windows/bin/../lib/gcc/sh-elf/9.3.0\libgcc.a(_df_to_si.o)
 .debug_aranges
                0x00000238       0x20 d:/joengine-master/compiler/windows/bin/../lib/gcc/sh-elf/9.3.0\libgcc.a(_make_df.o)
 .debug_aranges
                0x00000258       0x20 d:/joengine-master/compiler/windows/bin/../lib/gcc/sh-elf/9.3.0\libgcc.a(_df_to_sf.o)
 .debug_aranges
                0x00000278       0x18 d:/joengine-master/compiler/windows/bin/../lib/gcc/sh-elf/9.3.0\libgcc.a(_thenan_df.o)
 .debug_aranges
                0x00000290       0x20 d:/joengine-master/compiler/windows/bin/../lib/gcc/sh-elf/9.3.0\libgcc.a(_clzsi2.o)
 .debug_aranges
                0x000002b0       0x20 d:/joengine-master/compiler/windows/bin/../lib/gcc/sh-elf/9.3.0\libgcc.a(_pack_sf.o)
 .debug_aranges
                0x000002d0       0x20 d:/joengine-master/compiler/windows/bin/../lib/gcc/sh-elf/9.3.0\libgcc.a(_unpack_sf.o)
 .debug_aranges
                0x000002f0       0x20 d:/joengine-master/compiler/windows/bin/../lib/gcc/sh-elf/9.3.0\libgcc.a(_fpcmp_parts_sf.o)
 .debug_aranges
                0x00000310       0x20 d:/joengine-master/compiler/windows/bin/../lib/gcc/sh-elf/9.3.0\libgcc.a(_make_sf.o)
 .debug_aranges
                0x00000330       0x20 d:/joengine-master/compiler/windows/bin/../lib/gcc/sh-elf/9.3.0\libgcc.a(_pack_df.o)
 .debug_aranges
                0x00000350       0x20 d:/joengine-master/compiler/windows/bin/../lib/gcc/sh-elf/9.3.0\libgcc.a(_unpack_df.o)
 .debug_aranges
                0x00000370       0x18 d:/joengine-master/compiler/windows/bin/../lib/gcc/sh-elf/9.3.0\libgcc.a(_clz.o)
 .debug_aranges
                0x00000388       0x18 d:/joengine-master/compiler/windows/bin/../lib/gcc/sh-elf/9.3.0/../../../../sh-elf/lib\libc.a(lib_a-impure.o)
 .debug_aranges
                0x000003a0       0x20 d:/joengine-master/compiler/windows/bin/../lib/gcc/sh-elf/9.3.0/../../../../sh-elf/lib\libc.a(lib_a-memcmp.o)
 .debug_aranges
                0x000003c0       0x20 d:/joengine-master/compiler/windows/bin/../lib/gcc/sh-elf/9.3.0/../../../../sh-elf/lib\libc.a(lib_a-rand.o)
 .debug_aranges
                0x000003e0       0x20 d:/joengine-master/compiler/windows/bin/../lib/gcc/sh-elf/9.3.0/../../../../sh-elf/lib\libc.a(lib_a-rget.o)
 .debug_aranges
                0x00000400       0x20 d:/joengine-master/compiler/windows/bin/../lib/gcc/sh-elf/9.3.0/../../../../sh-elf/lib\libc.a(lib_a-sprintf.o)
 .debug_aranges
                0x00000420       0x20 d:/joengine-master/compiler/windows/bin/../lib/gcc/sh-elf/9.3.0/../../../../sh-elf/lib\libc.a(lib_a-strcat.o)
 .debug_aranges
                0x00000440       0x20 d:/joengine-master/compiler/windows/bin/../lib/gcc/sh-elf/9.3.0/../../../../sh-elf/lib\libc.a(lib_a-strncmp.o)
 .debug_aranges
                0x00000460       0x20 d:/joengine-master/compiler/windows/bin/../lib/gcc/sh-elf/9.3.0/../../../../sh-elf/lib\libc.a(lib_a-strncpy.o)
 .debug_aranges
                0x00000480       0x20 d:/joengine-master/compiler/windows/bin/../lib/gcc/sh-elf/9.3.0/../../../../sh-elf/lib\libc.a(lib_a-strstr.o)
 .debug_aranges
                0x000004a0       0x20 d:/joengine-master/compiler/windows/bin/../lib/gcc/sh-elf/9.3.0/../../../../sh-elf/lib\libc.a(lib_a-wbuf.o)
 .debug_aranges
                0x000004c0       0x20 d:/joengine-master/compiler/windows/bin/../lib/gcc/sh-elf/9.3.0/../../../../sh-elf/lib\libc.a(lib_a-wsetup.o)
 .debug_aranges
                0x000004e0       0x20 d:/joengine-master/compiler/windows/bin/../lib/gcc/sh-elf/9.3.0/../../../../sh-elf/lib\libc.a(lib_a-fflush.o)
 .debug_aranges
                0x00000500       0x20 d:/joengine-master/compiler/windows/bin/../lib/gcc/sh-elf/9.3.0/../../../../sh-elf/lib\libc.a(lib_a-findfp.o)
 .debug_aranges
                0x00000520       0x20 d:/joengine-master/compiler/windows/bin/../lib/gcc/sh-elf/9.3.0/../../../../sh-elf/lib\libc.a(lib_a-fwalk.o)
 .debug_aranges
                0x00000540       0x20 d:/joengine-master/compiler/windows/bin/../lib/gcc/sh-elf/9.3.0/../../../../sh-elf/lib\libc.a(lib_a-makebuf.o)
 .debug_aranges
                0x00000560       0x20 d:/joengine-master/compiler/windows/bin/../lib/gcc/sh-elf/9.3.0/../../../../sh-elf/lib\libc.a(lib_a-nano-svfprintf.o)
 .debug_aranges
                0x00000580       0x20 d:/joengine-master/compiler/windows/bin/../lib/gcc/sh-elf/9.3.0/../../../../sh-elf/lib\libc.a(lib_a-nano-vfprintf_i.o)
 .debug_aranges
                0x000005a0       0x20 d:/joengine-master/compiler/windows/bin/../lib/gcc/sh-elf/9.3.0/../../../../sh-elf/lib\libc.a(lib_a-refill.o)
 .debug_aranges
                0x000005c0       0x20 d:/joengine-master/compiler/windows/bin/../lib/gcc/sh-elf/9.3.0/../../../../sh-elf/lib\libc.a(lib_a-stdio.o)
 .debug_aranges
                0x000005e0       0x20 d:/joengine-master/compiler/windows/bin/../lib/gcc/sh-elf/9.3.0/../../../../sh-elf/lib\libc.a(lib_a-writer.o)
 .debug_aranges
                0x00000600       0x20 d:/joengine-master/compiler/windows/bin/../lib/gcc/sh-elf/9.3.0/../../../../sh-elf/lib\libc.a(lib_a-closer.o)
 .debug_aranges
                0x00000620       0x20 d:/joengine-master/compiler/windows/bin/../lib/gcc/sh-elf/9.3.0/../../../../sh-elf/lib\libc.a(lib_a-fstatr.o)
 .debug_aranges
                0x00000640       0x20 d:/joengine-master/compiler/windows/bin/../lib/gcc/sh-elf/9.3.0/../../../../sh-elf/lib\libc.a(lib_a-isattyr.o)
 .debug_aranges
                0x00000660       0x20 d:/joengine-master/compiler/windows/bin/../lib/gcc/sh-elf/9.3.0/../../../../sh-elf/lib\libc.a(lib_a-lseekr.o)
 .debug_aranges
                0x00000680       0x20 d:/joengine-master/compiler/windows/bin/../lib/gcc/sh-elf/9.3.0/../../../../sh-elf/lib\libc.a(lib_a-memchr.o)
 .debug_aranges
                0x000006a0       0x20 d:/joengine-master/compiler/windows/bin/../lib/gcc/sh-elf/9.3.0/../../../../sh-elf/lib\libc.a(lib_a-memmove.o)
 .debug_aranges
                0x000006c0       0x20 d:/joengine-master/compiler/windows/bin/../lib/gcc/sh-elf/9.3.0/../../../../sh-elf/lib\libc.a(lib_a-readr.o)
 .debug_aranges
                0x000006e0       0x20 d:/joengine-master/compiler/windows/bin/../lib/gcc/sh-elf/9.3.0/../../../../sh-elf/lib\libc.a(lib_a-reent.o)

.debug_ranges   0x00000000      0x6b0
 .debug_ranges  0x00000000       0x28 d:/joengine-master/compiler/windows/bin/../lib/gcc/sh-elf/9.3.0\libgcc.a(_addsub_sf.o)
 .debug_ranges  0x00000028       0x90 d:/joengine-master/compiler/windows/bin/../lib/gcc/sh-elf/9.3.0\libgcc.a(_mul_sf.o)
 .debug_ranges  0x000000b8       0x48 d:/joengine-master/compiler/windows/bin/../lib/gcc/sh-elf/9.3.0\libgcc.a(_div_sf.o)
 .debug_ranges  0x00000100       0x48 d:/joengine-master/compiler/windows/bin/../lib/gcc/sh-elf/9.3.0\libgcc.a(_si_to_sf.o)
 .debug_ranges  0x00000148       0x38 d:/joengine-master/compiler/windows/bin/../lib/gcc/sh-elf/9.3.0\libgcc.a(_usi_to_sf.o)
 .debug_ranges  0x00000180       0x60 d:/joengine-master/compiler/windows/bin/../lib/gcc/sh-elf/9.3.0\libgcc.a(_addsub_df.o)
 .debug_ranges  0x000001e0       0xa8 d:/joengine-master/compiler/windows/bin/../lib/gcc/sh-elf/9.3.0\libgcc.a(_mul_df.o)
 .debug_ranges  0x00000288       0x48 d:/joengine-master/compiler/windows/bin/../lib/gcc/sh-elf/9.3.0\libgcc.a(_si_to_df.o)
 .debug_ranges  0x000002d0       0x38 d:/joengine-master/compiler/windows/bin/../lib/gcc/sh-elf/9.3.0\libgcc.a(_clzsi2.o)
 .debug_ranges  0x00000308       0x38 d:/joengine-master/compiler/windows/bin/../lib/gcc/sh-elf/9.3.0\libgcc.a(_pack_sf.o)
 .debug_ranges  0x00000340       0x90 d:/joengine-master/compiler/windows/bin/../lib/gcc/sh-elf/9.3.0\libgcc.a(_pack_df.o)
 .debug_ranges  0x000003d0       0x20 d:/joengine-master/compiler/windows/bin/../lib/gcc/sh-elf/9.3.0/../../../../sh-elf/lib\libc.a(lib_a-rget.o)
 .debug_ranges  0x000003f0       0x20 d:/joengine-master/compiler/windows/bin/../lib/gcc/sh-elf/9.3.0/../../../../sh-elf/lib\libc.a(lib_a-wbuf.o)
 .debug_ranges  0x00000410       0x20 d:/joengine-master/compiler/windows/bin/../lib/gcc/sh-elf/9.3.0/../../../../sh-elf/lib\libc.a(lib_a-wsetup.o)
 .debug_ranges  0x00000430       0x58 d:/joengine-master/compiler/windows/bin/../lib/gcc/sh-elf/9.3.0/../../../../sh-elf/lib\libc.a(lib_a-fflush.o)
 .debug_ranges  0x00000488       0x18 d:/joengine-master/compiler/windows/bin/../lib/gcc/sh-elf/9.3.0/../../../../sh-elf/lib\libc.a(lib_a-findfp.o)
 .debug_ranges  0x000004a0       0x58 d:/joengine-master/compiler/windows/bin/../lib/gcc/sh-elf/9.3.0/../../../../sh-elf/lib\libc.a(lib_a-nano-svfprintf.o)
 .debug_ranges  0x000004f8       0xa8 d:/joengine-master/compiler/windows/bin/../lib/gcc/sh-elf/9.3.0/../../../../sh-elf/lib\libc.a(lib_a-nano-vfprintf_i.o)
 .debug_ranges  0x000005a0       0x20 d:/joengine-master/compiler/windows/bin/../lib/gcc/sh-elf/9.3.0/../../../../sh-elf/lib\libc.a(lib_a-refill.o)
 .debug_ranges  0x000005c0       0x20 d:/joengine-master/compiler/windows/bin/../lib/gcc/sh-elf/9.3.0/../../../../sh-elf/lib\libc.a(lib_a-writer.o)
 .debug_ranges  0x000005e0       0x18 d:/joengine-master/compiler/windows/bin/../lib/gcc/sh-elf/9.3.0/../../../../sh-elf/lib\libc.a(lib_a-closer.o)
 .debug_ranges  0x000005f8       0x18 d:/joengine-master/compiler/windows/bin/../lib/gcc/sh-elf/9.3.0/../../../../sh-elf/lib\libc.a(lib_a-fstatr.o)
 .debug_ranges  0x00000610       0x18 d:/joengine-master/compiler/windows/bin/../lib/gcc/sh-elf/9.3.0/../../../../sh-elf/lib\libc.a(lib_a-isattyr.o)
 .debug_ranges  0x00000628       0x20 d:/joengine-master/compiler/windows/bin/../lib/gcc/sh-elf/9.3.0/../../../../sh-elf/lib\libc.a(lib_a-lseekr.o)
 .debug_ranges  0x00000648       0x20 d:/joengine-master/compiler/windows/bin/../lib/gcc/sh-elf/9.3.0/../../../../sh-elf/lib\libc.a(lib_a-readr.o)
 .debug_ranges  0x00000668       0x40 d:/joengine-master/compiler/windows/bin/../lib/gcc/sh-elf/9.3.0/../../../../sh-elf/lib\libc.a(lib_a-reent.o)

.debug_line     0x00000000     0x7b20
 .debug_line    0x00000000      0x37e d:/joengine-master/compiler/windows/bin/../lib/gcc/sh-elf/9.3.0\libgcc.a(_addsub_sf.o)
 .debug_line    0x0000037e      0x2e9 d:/joengine-master/compiler/windows/bin/../lib/gcc/sh-elf/9.3.0\libgcc.a(_mul_sf.o)
 .debug_line    0x00000667      0x250 d:/joengine-master/compiler/windows/bin/../lib/gcc/sh-elf/9.3.0\libgcc.a(_div_sf.o)
 .debug_line    0x000008b7      0x11c d:/joengine-master/compiler/windows/bin/../lib/gcc/sh-elf/9.3.0\libgcc.a(_eq_sf.o)
 .debug_line    0x000009d3      0x11c d:/joengine-master/compiler/windows/bin/../lib/gcc/sh-elf/9.3.0\libgcc.a(_ne_sf.o)
 .debug_line    0x00000aef      0x11c d:/joengine-master/compiler/windows/bin/../lib/gcc/sh-elf/9.3.0\libgcc.a(_gt_sf.o)
 .debug_line    0x00000c0b      0x11c d:/joengine-master/compiler/windows/bin/../lib/gcc/sh-elf/9.3.0\libgcc.a(_ge_sf.o)
 .debug_line    0x00000d27      0x11c d:/joengine-master/compiler/windows/bin/../lib/gcc/sh-elf/9.3.0\libgcc.a(_lt_sf.o)
 .debug_line    0x00000e43      0x11c d:/joengine-master/compiler/windows/bin/../lib/gcc/sh-elf/9.3.0\libgcc.a(_le_sf.o)
 .debug_line    0x00000f5f      0x190 d:/joengine-master/compiler/windows/bin/../lib/gcc/sh-elf/9.3.0\libgcc.a(_si_to_sf.o)
 .debug_line    0x000010ef      0x162 d:/joengine-master/compiler/windows/bin/../lib/gcc/sh-elf/9.3.0\libgcc.a(_sf_to_si.o)
 .debug_line    0x00001251       0xe9 d:/joengine-master/compiler/windows/bin/../lib/gcc/sh-elf/9.3.0\libgcc.a(_sf_to_df.o)
 .debug_line    0x0000133a       0xb6 d:/joengine-master/compiler/windows/bin/../lib/gcc/sh-elf/9.3.0\libgcc.a(_thenan_sf.o)
 .debug_line    0x000013f0      0x19f d:/joengine-master/compiler/windows/bin/../lib/gcc/sh-elf/9.3.0\libgcc.a(_usi_to_sf.o)
 .debug_line    0x0000158f      0x409 d:/joengine-master/compiler/windows/bin/../lib/gcc/sh-elf/9.3.0\libgcc.a(_addsub_df.o)
 .debug_line    0x00001998      0x358 d:/joengine-master/compiler/windows/bin/../lib/gcc/sh-elf/9.3.0\libgcc.a(_mul_df.o)
 .debug_line    0x00001cf0      0x1a3 d:/joengine-master/compiler/windows/bin/../lib/gcc/sh-elf/9.3.0\libgcc.a(_si_to_df.o)
 .debug_line    0x00001e93      0x16a d:/joengine-master/compiler/windows/bin/../lib/gcc/sh-elf/9.3.0\libgcc.a(_df_to_si.o)
 .debug_line    0x00001ffd      0x100 d:/joengine-master/compiler/windows/bin/../lib/gcc/sh-elf/9.3.0\libgcc.a(_make_df.o)
 .debug_line    0x000020fd      0x115 d:/joengine-master/compiler/windows/bin/../lib/gcc/sh-elf/9.3.0\libgcc.a(_df_to_sf.o)
 .debug_line    0x00002212       0xb6 d:/joengine-master/compiler/windows/bin/../lib/gcc/sh-elf/9.3.0\libgcc.a(_thenan_df.o)
 .debug_line    0x000022c8      0x14e d:/joengine-master/compiler/windows/bin/../lib/gcc/sh-elf/9.3.0\libgcc.a(_clzsi2.o)
 .debug_line    0x00002416      0x289 d:/joengine-master/compiler/windows/bin/../lib/gcc/sh-elf/9.3.0\libgcc.a(_pack_sf.o)
 .debug_line    0x0000269f      0x1a4 d:/joengine-master/compiler/windows/bin/../lib/gcc/sh-elf/9.3.0\libgcc.a(_unpack_sf.o)
 .debug_line    0x00002843      0x1f1 d:/joengine-master/compiler/windows/bin/../lib/gcc/sh-elf/9.3.0\libgcc.a(_fpcmp_parts_sf.o)
 .debug_line    0x00002a34       0xfa d:/joengine-master/compiler/windows/bin/../lib/gcc/sh-elf/9.3.0\libgcc.a(_make_sf.o)
 .debug_line    0x00002b2e      0x2d6 d:/joengine-master/compiler/windows/bin/../lib/gcc/sh-elf/9.3.0\libgcc.a(_pack_df.o)
 .debug_line    0x00002e04      0x1ad d:/joengine-master/compiler/windows/bin/../lib/gcc/sh-elf/9.3.0\libgcc.a(_unpack_df.o)
 .debug_line    0x00002fb1       0xf4 d:/joengine-master/compiler/windows/bin/../lib/gcc/sh-elf/9.3.0\libgcc.a(_clz.o)
 .debug_line    0x000030a5      0x156 d:/joengine-master/compiler/windows/bin/../lib/gcc/sh-elf/9.3.0/../../../../sh-elf/lib\libc.a(lib_a-impure.o)
 .debug_line    0x000031fb      0x1a0 d:/joengine-master/compiler/windows/bin/../lib/gcc/sh-elf/9.3.0/../../../../sh-elf/lib\libc.a(lib_a-memcmp.o)
 .debug_line    0x0000339b      0x1be d:/joengine-master/compiler/windows/bin/../lib/gcc/sh-elf/9.3.0/../../../../sh-elf/lib\libc.a(lib_a-rand.o)
 .debug_line    0x00003559      0x1fc d:/joengine-master/compiler/windows/bin/../lib/gcc/sh-elf/9.3.0/../../../../sh-elf/lib\libc.a(lib_a-rget.o)
 .debug_line    0x00003755      0x252 d:/joengine-master/compiler/windows/bin/../lib/gcc/sh-elf/9.3.0/../../../../sh-elf/lib\libc.a(lib_a-sprintf.o)
 .debug_line    0x000039a7      0x1bb d:/joengine-master/compiler/windows/bin/../lib/gcc/sh-elf/9.3.0/../../../../sh-elf/lib\libc.a(lib_a-strcat.o)
 .debug_line    0x00003b62      0x1ae d:/joengine-master/compiler/windows/bin/../lib/gcc/sh-elf/9.3.0/../../../../sh-elf/lib\libc.a(lib_a-strncmp.o)
 .debug_line    0x00003d10      0x1b8 d:/joengine-master/compiler/windows/bin/../lib/gcc/sh-elf/9.3.0/../../../../sh-elf/lib\libc.a(lib_a-strncpy.o)
 .debug_line    0x00003ec8      0x1d5 d:/joengine-master/compiler/windows/bin/../lib/gcc/sh-elf/9.3.0/../../../../sh-elf/lib\libc.a(lib_a-strstr.o)
 .debug_line    0x0000409d      0x2b7 d:/joengine-master/compiler/windows/bin/../lib/gcc/sh-elf/9.3.0/../../../../sh-elf/lib\libc.a(lib_a-wbuf.o)
 .debug_line    0x00004354      0x2ba d:/joengine-master/compiler/windows/bin/../lib/gcc/sh-elf/9.3.0/../../../../sh-elf/lib\libc.a(lib_a-wsetup.o)
 .debug_line    0x0000460e      0x3df d:/joengine-master/compiler/windows/bin/../lib/gcc/sh-elf/9.3.0/../../../../sh-elf/lib\libc.a(lib_a-fflush.o)
 .debug_line    0x000049ed      0x44c d:/joengine-master/compiler/windows/bin/../lib/gcc/sh-elf/9.3.0/../../../../sh-elf/lib\libc.a(lib_a-findfp.o)
 .debug_line    0x00004e39      0x2df d:/joengine-master/compiler/windows/bin/../lib/gcc/sh-elf/9.3.0/../../../../sh-elf/lib\libc.a(lib_a-fwalk.o)
 .debug_line    0x00005118      0x374 d:/joengine-master/compiler/windows/bin/../lib/gcc/sh-elf/9.3.0/../../../../sh-elf/lib\libc.a(lib_a-makebuf.o)
 .debug_line    0x0000548c      0x866 d:/joengine-master/compiler/windows/bin/../lib/gcc/sh-elf/9.3.0/../../../../sh-elf/lib\libc.a(lib_a-nano-svfprintf.o)
 .debug_line    0x00005cf2      0x6c6 d:/joengine-master/compiler/windows/bin/../lib/gcc/sh-elf/9.3.0/../../../../sh-elf/lib\libc.a(lib_a-nano-vfprintf_i.o)
 .debug_line    0x000063b8      0x347 d:/joengine-master/compiler/windows/bin/../lib/gcc/sh-elf/9.3.0/../../../../sh-elf/lib\libc.a(lib_a-refill.o)
 .debug_line    0x000066ff      0x27d d:/joengine-master/compiler/windows/bin/../lib/gcc/sh-elf/9.3.0/../../../../sh-elf/lib\libc.a(lib_a-stdio.o)
 .debug_line    0x0000697c      0x1c4 d:/joengine-master/compiler/windows/bin/../lib/gcc/sh-elf/9.3.0/../../../../sh-elf/lib\libc.a(lib_a-writer.o)
 .debug_line    0x00006b40      0x1be d:/joengine-master/compiler/windows/bin/../lib/gcc/sh-elf/9.3.0/../../../../sh-elf/lib\libc.a(lib_a-closer.o)
 .debug_line    0x00006cfe      0x280 d:/joengine-master/compiler/windows/bin/../lib/gcc/sh-elf/9.3.0/../../../../sh-elf/lib\libc.a(lib_a-fstatr.o)
 .debug_line    0x00006f7e      0x1bf d:/joengine-master/compiler/windows/bin/../lib/gcc/sh-elf/9.3.0/../../../../sh-elf/lib\libc.a(lib_a-isattyr.o)
 .debug_line    0x0000713d      0x1c4 d:/joengine-master/compiler/windows/bin/../lib/gcc/sh-elf/9.3.0/../../../../sh-elf/lib\libc.a(lib_a-lseekr.o)
 .debug_line    0x00007301      0x198 d:/joengine-master/compiler/windows/bin/../lib/gcc/sh-elf/9.3.0/../../../../sh-elf/lib\libc.a(lib_a-memchr.o)
 .debug_line    0x00007499      0x23b d:/joengine-master/compiler/windows/bin/../lib/gcc/sh-elf/9.3.0/../../../../sh-elf/lib\libc.a(lib_a-memmove.o)
 .debug_line    0x000076d4      0x1c3 d:/joengine-master/compiler/windows/bin/../lib/gcc/sh-elf/9.3.0/../../../../sh-elf/lib\libc.a(lib_a-readr.o)
 .debug_line    0x00007897      0x27b d:/joengine-master/compiler/windows/bin/../lib/gcc/sh-elf/9.3.0/../../../../sh-elf/lib\libc.a(lib_a-reent.o)

.debug_str      0x00000000    0x158a0
 .debug_str     0x00000000      0x622 d:/joengine-master/compiler/windows/bin/../lib/gcc/sh-elf/9.3.0\libgcc.a(_addsub_sf.o)
 .debug_str     0x00000622      0x5d9 d:/joengine-master/compiler/windows/bin/../lib/gcc/sh-elf/9.3.0\libgcc.a(_mul_sf.o)
 .debug_str     0x00000bfb      0x5e4 d:/joengine-master/compiler/windows/bin/../lib/gcc/sh-elf/9.3.0\libgcc.a(_div_sf.o)
 .debug_str     0x000011df      0x5b1 d:/joengine-master/compiler/windows/bin/../lib/gcc/sh-elf/9.3.0\libgcc.a(_eq_sf.o)
 .debug_str     0x00001790      0x5b1 d:/joengine-master/compiler/windows/bin/../lib/gcc/sh-elf/9.3.0\libgcc.a(_ne_sf.o)
 .debug_str     0x00001d41      0x5b1 d:/joengine-master/compiler/windows/bin/../lib/gcc/sh-elf/9.3.0\libgcc.a(_gt_sf.o)
 .debug_str     0x000022f2      0x5b1 d:/joengine-master/compiler/windows/bin/../lib/gcc/sh-elf/9.3.0\libgcc.a(_ge_sf.o)
 .debug_str     0x000028a3      0x5b1 d:/joengine-master/compiler/windows/bin/../lib/gcc/sh-elf/9.3.0\libgcc.a(_lt_sf.o)
 .debug_str     0x00002e54      0x5b1 d:/joengine-master/compiler/windows/bin/../lib/gcc/sh-elf/9.3.0\libgcc.a(_le_sf.o)
 .debug_str     0x00003405      0x592 d:/joengine-master/compiler/windows/bin/../lib/gcc/sh-elf/9.3.0\libgcc.a(_si_to_sf.o)
 .debug_str     0x00003997      0x5a9 d:/joengine-master/compiler/windows/bin/../lib/gcc/sh-elf/9.3.0\libgcc.a(_sf_to_si.o)
 .debug_str     0x00003f40      0x5ac d:/joengine-master/compiler/windows/bin/../lib/gcc/sh-elf/9.3.0\libgcc.a(_sf_to_df.o)
 .debug_str     0x000044ec      0x545 d:/joengine-master/compiler/windows/bin/../lib/gcc/sh-elf/9.3.0\libgcc.a(_thenan_sf.o)
 .debug_str     0x00004a31      0x58e d:/joengine-master/compiler/windows/bin/../lib/gcc/sh-elf/9.3.0\libgcc.a(_usi_to_sf.o)
 .debug_str     0x00004fbf      0x628 d:/joengine-master/compiler/windows/bin/../lib/gcc/sh-elf/9.3.0\libgcc.a(_addsub_df.o)
 .debug_str     0x000055e7      0x5fa d:/joengine-master/compiler/windows/bin/../lib/gcc/sh-elf/9.3.0\libgcc.a(_mul_df.o)
 .debug_str     0x00005be1      0x592 d:/joengine-master/compiler/windows/bin/../lib/gcc/sh-elf/9.3.0\libgcc.a(_si_to_df.o)
 .debug_str     0x00006173      0x5af d:/joengine-master/compiler/windows/bin/../lib/gcc/sh-elf/9.3.0\libgcc.a(_df_to_si.o)
 .debug_str     0x00006722      0x564 d:/joengine-master/compiler/windows/bin/../lib/gcc/sh-elf/9.3.0\libgcc.a(_make_df.o)
 .debug_str     0x00006c86      0x5b0 d:/joengine-master/compiler/windows/bin/../lib/gcc/sh-elf/9.3.0\libgcc.a(_df_to_sf.o)
 .debug_str     0x00007236      0x545 d:/joengine-master/compiler/windows/bin/../lib/gcc/sh-elf/9.3.0\libgcc.a(_thenan_df.o)
 .debug_str     0x0000777b      0x555 d:/joengine-master/compiler/windows/bin/../lib/gcc/sh-elf/9.3.0\libgcc.a(_clzsi2.o)
 .debug_str     0x00007cd0      0x59d d:/joengine-master/compiler/windows/bin/../lib/gcc/sh-elf/9.3.0\libgcc.a(_pack_sf.o)
 .debug_str     0x0000826d      0x57f d:/joengine-master/compiler/windows/bin/../lib/gcc/sh-elf/9.3.0\libgcc.a(_unpack_sf.o)
 .debug_str     0x000087ec      0x568 d:/joengine-master/compiler/windows/bin/../lib/gcc/sh-elf/9.3.0\libgcc.a(_fpcmp_parts_sf.o)
 .debug_str     0x00008d54      0x564 d:/joengine-master/compiler/windows/bin/../lib/gcc/sh-elf/9.3.0\libgcc.a(_make_sf.o)
 .debug_str     0x000092b8      0x5a3 d:/joengine-master/compiler/windows/bin/../lib/gcc/sh-elf/9.3.0\libgcc.a(_pack_df.o)
 .debug_str     0x0000985b      0x585 d:/joengine-master/compiler/windows/bin/../lib/gcc/sh-elf/9.3.0\libgcc.a(_unpack_df.o)
 .debug_str     0x00009de0      0x538 d:/joengine-master/compiler/windows/bin/../lib/gcc/sh-elf/9.3.0\libgcc.a(_clz.o)
 .debug_str     0x0000a318      0x532 d:/joengine-master/compiler/windows/bin/../lib/gcc/sh-elf/9.3.0/../../../../sh-elf/lib\libc.a(lib_a-impure.o)
 .debug_str     0x0000a84a      0x536 d:/joengine-master/compiler/windows/bin/../lib/gcc/sh-elf/9.3.0/../../../../sh-elf/lib\libc.a(lib_a-memcmp.o)
 .debug_str     0x0000ad80      0x546 d:/joengine-master/compiler/windows/bin/../lib/gcc/sh-elf/9.3.0/../../../../sh-elf/lib\libc.a(lib_a-rand.o)
 .debug_str     0x0000b2c6      0x6b1 d:/joengine-master/compiler/windows/bin/../lib/gcc/sh-elf/9.3.0/../../../../sh-elf/lib\libc.a(lib_a-rget.o)
 .debug_str     0x0000b977      0x6b0 d:/joengine-master/compiler/windows/bin/../lib/gcc/sh-elf/9.3.0/../../../../sh-elf/lib\libc.a(lib_a-sprintf.o)
 .debug_str     0x0000c027      0x52f d:/joengine-master/compiler/windows/bin/../lib/gcc/sh-elf/9.3.0/../../../../sh-elf/lib\libc.a(lib_a-strcat.o)
 .debug_str     0x0000c556      0x538 d:/joengine-master/compiler/windows/bin/../lib/gcc/sh-elf/9.3.0/../../../../sh-elf/lib\libc.a(lib_a-strncmp.o)
 .debug_str     0x0000ca8e      0x554 d:/joengine-master/compiler/windows/bin/../lib/gcc/sh-elf/9.3.0/../../../../sh-elf/lib\libc.a(lib_a-strncpy.o)
 .debug_str     0x0000cfe2      0x536 d:/joengine-master/compiler/windows/bin/../lib/gcc/sh-elf/9.3.0/../../../../sh-elf/lib\libc.a(lib_a-strstr.o)
 .debug_str     0x0000d518      0x6bb d:/joengine-master/compiler/windows/bin/../lib/gcc/sh-elf/9.3.0/../../../../sh-elf/lib\libc.a(lib_a-wbuf.o)
 .debug_str     0x0000dbd3      0x6b6 d:/joengine-master/compiler/windows/bin/../lib/gcc/sh-elf/9.3.0/../../../../sh-elf/lib\libc.a(lib_a-wsetup.o)
 .debug_str     0x0000e289      0x6e4 d:/joengine-master/compiler/windows/bin/../lib/gcc/sh-elf/9.3.0/../../../../sh-elf/lib\libc.a(lib_a-fflush.o)
 .debug_str     0x0000e96d      0x73b d:/joengine-master/compiler/windows/bin/../lib/gcc/sh-elf/9.3.0/../../../../sh-elf/lib\libc.a(lib_a-findfp.o)
 .debug_str     0x0000f0a8      0x6a8 d:/joengine-master/compiler/windows/bin/../lib/gcc/sh-elf/9.3.0/../../../../sh-elf/lib\libc.a(lib_a-fwalk.o)
 .debug_str     0x0000f750      0x829 d:/joengine-master/compiler/windows/bin/../lib/gcc/sh-elf/9.3.0/../../../../sh-elf/lib\libc.a(lib_a-makebuf.o)
 .debug_str     0x0000ff79      0xb45 d:/joengine-master/compiler/windows/bin/../lib/gcc/sh-elf/9.3.0/../../../../sh-elf/lib\libc.a(lib_a-nano-svfprintf.o)
 .debug_str     0x00010abe      0xaea d:/joengine-master/compiler/windows/bin/../lib/gcc/sh-elf/9.3.0/../../../../sh-elf/lib\libc.a(lib_a-nano-vfprintf_i.o)
 .debug_str     0x000115a8      0x6eb d:/joengine-master/compiler/windows/bin/../lib/gcc/sh-elf/9.3.0/../../../../sh-elf/lib\libc.a(lib_a-refill.o)
 .debug_str     0x00011c93      0x6fc d:/joengine-master/compiler/windows/bin/../lib/gcc/sh-elf/9.3.0/../../../../sh-elf/lib\libc.a(lib_a-stdio.o)
 .debug_str     0x0001238f      0x572 d:/joengine-master/compiler/windows/bin/../lib/gcc/sh-elf/9.3.0/../../../../sh-elf/lib\libc.a(lib_a-writer.o)
 .debug_str     0x00012901      0x562 d:/joengine-master/compiler/windows/bin/../lib/gcc/sh-elf/9.3.0/../../../../sh-elf/lib\libc.a(lib_a-closer.o)
 .debug_str     0x00012e63      0x6d0 d:/joengine-master/compiler/windows/bin/../lib/gcc/sh-elf/9.3.0/../../../../sh-elf/lib\libc.a(lib_a-fstatr.o)
 .debug_str     0x00013533      0x56c d:/joengine-master/compiler/windows/bin/../lib/gcc/sh-elf/9.3.0/../../../../sh-elf/lib\libc.a(lib_a-isattyr.o)
 .debug_str     0x00013a9f      0x570 d:/joengine-master/compiler/windows/bin/../lib/gcc/sh-elf/9.3.0/../../../../sh-elf/lib\libc.a(lib_a-lseekr.o)
 .debug_str     0x0001400f      0x546 d:/joengine-master/compiler/windows/bin/../lib/gcc/sh-elf/9.3.0/../../../../sh-elf/lib\libc.a(lib_a-memchr.o)
 .debug_str     0x00014555      0x866 d:/joengine-master/compiler/windows/bin/../lib/gcc/sh-elf/9.3.0/../../../../sh-elf/lib\libc.a(lib_a-memmove.o)
 .debug_str     0x00014dbb      0x570 d:/joengine-master/compiler/windows/bin/../lib/gcc/sh-elf/9.3.0/../../../../sh-elf/lib\libc.a(lib_a-readr.o)
 .debug_str     0x0001532b      0x56e d:/joengine-master/compiler/windows/bin/../lib/gcc/sh-elf/9.3.0/../../../../sh-elf/lib\libc.a(lib_a-reent.o)

.comment        0x00000000      0x410
 .comment       0x00000000       0x12 d:/joengine-master/compiler/windows/bin/../lib/gcc/sh-elf/9.3.0\libgcc.a(_addsub_sf.o)
 .comment       0x00000012       0x12 d:/joengine-master/compiler/windows/bin/../lib/gcc/sh-elf/9.3.0\libgcc.a(_mul_sf.o)
 .comment       0x00000024       0x12 d:/joengine-master/compiler/windows/bin/../lib/gcc/sh-elf/9.3.0\libgcc.a(_div_sf.o)
 .comment       0x00000036       0x12 d:/joengine-master/compiler/windows/bin/../lib/gcc/sh-elf/9.3.0\libgcc.a(_eq_sf.o)
 .comment       0x00000048       0x12 d:/joengine-master/compiler/windows/bin/../lib/gcc/sh-elf/9.3.0\libgcc.a(_ne_sf.o)
 .comment       0x0000005a       0x12 d:/joengine-master/compiler/windows/bin/../lib/gcc/sh-elf/9.3.0\libgcc.a(_gt_sf.o)
 .comment       0x0000006c       0x12 d:/joengine-master/compiler/windows/bin/../lib/gcc/sh-elf/9.3.0\libgcc.a(_ge_sf.o)
 .comment       0x0000007e       0x12 d:/joengine-master/compiler/windows/bin/../lib/gcc/sh-elf/9.3.0\libgcc.a(_lt_sf.o)
 .comment       0x00000090       0x12 d:/joengine-master/compiler/windows/bin/../lib/gcc/sh-elf/9.3.0\libgcc.a(_le_sf.o)
 .comment       0x000000a2       0x12 d:/joengine-master/compiler/windows/bin/../lib/gcc/sh-elf/9.3.0\libgcc.a(_si_to_sf.o)
 .comment       0x000000b4       0x12 d:/joengine-master/compiler/windows/bin/../lib/gcc/sh-elf/9.3.0\libgcc.a(_sf_to_si.o)
 .comment       0x000000c6       0x12 d:/joengine-master/compiler/windows/bin/../lib/gcc/sh-elf/9.3.0\libgcc.a(_sf_to_df.o)
 .comment       0x000000d8       0x12 d:/joengine-master/compiler/windows/bin/../lib/gcc/sh-elf/9.3.0\libgcc.a(_thenan_sf.o)
 .comment       0x000000ea       0x12 d:/joengine-master/compiler/windows/bin/../lib/gcc/sh-elf/9.3.0\libgcc.a(_usi_to_sf.o)
 .comment       0x000000fc       0x12 d:/joengine-master/compiler/windows/bin/../lib/gcc/sh-elf/9.3.0\libgcc.a(_addsub_df.o)
 .comment       0x0000010e       0x12 d:/joengine-master/compiler/windows/bin/../lib/gcc/sh-elf/9.3.0\libgcc.a(_mul_df.o)
 .comment       0x00000120       0x12 d:/joengine-master/compiler/windows/bin/../lib/gcc/sh-elf/9.3.0\libgcc.a(_si_to_df.o)
 .comment       0x00000132       0x12 d:/joengine-master/compiler/windows/bin/../lib/gcc/sh-elf/9.3.0\libgcc.a(_df_to_si.o)
 .comment       0x00000144       0x12 d:/joengine-master/compiler/windows/bin/../lib/gcc/sh-elf/9.3.0\libgcc.a(_make_df.o)
 .comment       0x00000156       0x12 d:/joengine-master/compiler/windows/bin/../lib/gcc/sh-elf/9.3.0\libgcc.a(_df_to_sf.o)
 .comment       0x00000168       0x12 d:/joengine-master/compiler/windows/bin/../lib/gcc/sh-elf/9.3.0\libgcc.a(_thenan_df.o)
 .comment       0x0000017a       0x12 d:/joengine-master/compiler/windows/bin/../lib/gcc/sh-elf/9.3.0\libgcc.a(_clzsi2.o)
 .comment       0x0000018c       0x12 d:/joengine-master/compiler/windows/bin/../lib/gcc/sh-elf/9.3.0\libgcc.a(_pack_sf.o)
 .comment       0x0000019e       0x12 d:/joengine-master/compiler/windows/bin/../lib/gcc/sh-elf/9.3.0\libgcc.a(_unpack_sf.o)
 .comment       0x000001b0       0x12 d:/joengine-master/compiler/windows/bin/../lib/gcc/sh-elf/9.3.0\libgcc.a(_fpcmp_parts_sf.o)
 .comment       0x000001c2       0x12 d:/joengine-master/compiler/windows/bin/../lib/gcc/sh-elf/9.3.0\libgcc.a(_make_sf.o)
 .comment       0x000001d4       0x12 d:/joengine-master/compiler/windows/bin/../lib/gcc/sh-elf/9.3.0\libgcc.a(_pack_df.o)
 .comment       0x000001e6       0x12 d:/joengine-master/compiler/windows/bin/../lib/gcc/sh-elf/9.3.0\libgcc.a(_unpack_df.o)
 .comment       0x000001f8       0x12 d:/joengine-master/compiler/windows/bin/../lib/gcc/sh-elf/9.3.0\libgcc.a(_clz.o)
 .comment       0x0000020a       0x12 d:/joengine-master/compiler/windows/bin/../lib/gcc/sh-elf/9.3.0/../../../../sh-elf/lib\libc.a(lib_a-impure.o)
 .comment       0x0000021c       0x12 d:/joengine-master/compiler/windows/bin/../lib/gcc/sh-elf/9.3.0/../../../../sh-elf/lib\libc.a(lib_a-memcmp.o)
 .comment       0x0000022e       0x12 d:/joengine-master/compiler/windows/bin/../lib/gcc/sh-elf/9.3.0/../../../../sh-elf/lib\libc.a(lib_a-rand.o)
 .comment       0x00000240       0x12 d:/joengine-master/compiler/windows/bin/../lib/gcc/sh-elf/9.3.0/../../../../sh-elf/lib\libc.a(lib_a-rget.o)
 .comment       0x00000252       0x12 d:/joengine-master/compiler/windows/bin/../lib/gcc/sh-elf/9.3.0/../../../../sh-elf/lib\libc.a(lib_a-sprintf.o)
 .comment       0x00000264       0x12 d:/joengine-master/compiler/windows/bin/../lib/gcc/sh-elf/9.3.0/../../../../sh-elf/lib\libc.a(lib_a-strcat.o)
 .comment       0x00000276       0x12 d:/joengine-master/compiler/windows/bin/../lib/gcc/sh-elf/9.3.0/../../../../sh-elf/lib\libc.a(lib_a-strncmp.o)
 .comment       0x00000288       0x12 d:/joengine-master/compiler/windows/bin/../lib/gcc/sh-elf/9.3.0/../../../../sh-elf/lib\libc.a(lib_a-strncpy.o)
 .comment       0x0000029a       0x12 d:/joengine-master/compiler/windows/bin/../lib/gcc/sh-elf/9.3.0/../../../../sh-elf/lib\libc.a(lib_a-strstr.o)
 .comment       0x000002ac       0x12 d:/joengine-master/compiler/windows/bin/../lib/gcc/sh-elf/9.3.0/../../../../sh-elf/lib\libc.a(lib_a-wbuf.o)
 .comment       0x000002be       0x12 d:/joengine-master/compiler/windows/bin/../lib/gcc/sh-elf/9.3.0/../../../../sh-elf/lib\libc.a(lib_a-wsetup.o)
 .comment       0x000002d0       0x12 d:/joengine-master/compiler/windows/bin/../lib/gcc/sh-elf/9.3.0/../../../../sh-elf/lib\libc.a(lib_a-fflush.o)
 .comment       0x000002e2       0x12 d:/joengine-master/compiler/windows/bin/../lib/gcc/sh-elf/9.3.0/../../../../sh-elf/lib\libc.a(lib_a-findfp.o)
 .comment       0x000002f4       0x12 d:/joengine-master/compiler/windows/bin/../lib/gcc/sh-elf/9.3.0/../../../../sh-elf/lib\libc.a(lib_a-fwalk.o)
 .comment       0x00000306       0x12 d:/joengine-master/compiler/windows/bin/../lib/gcc/sh-elf/9.3.0/../../../../sh-elf/lib\libc.a(lib_a-makebuf.o)
 .comment       0x00000318       0x12 d:/joengine-master/compiler/windows/bin/../lib/gcc/sh-elf/9.3.0/../../../../sh-elf/lib\libc.a(lib_a-nano-svfprintf.o)
 .comment       0x0000032a       0x12 d:/joengine-master/compiler/windows/bin/../lib/gcc/sh-elf/9.3.0/../../../../sh-elf/lib\libc.a(lib_a-nano-vfprintf_i.o)
 .comment       0x0000033c       0x12 d:/joengine-master/compiler/windows/bin/../lib/gcc/sh-elf/9.3.0/../../../../sh-elf/lib\libc.a(lib_a-refill.o)
 .comment       0x0000034e       0x12 d:/joengine-master/compiler/windows/bin/../lib/gcc/sh-elf/9.3.0/../../../../sh-elf/lib\libc.a(lib_a-stdio.o)
 .comment       0x00000360       0x12 d:/joengine-master/compiler/windows/bin/../lib/gcc/sh-elf/9.3.0/../../../../sh-elf/lib\libc.a(lib_a-writer.o)
 .comment       0x00000372       0x12 d:/joengine-master/compiler/windows/bin/../lib/gcc/sh-elf/9.3.0/../../../../sh-elf/lib\libc.a(lib_a-closer.o)
 .comment       0x00000384       0x12 d:/joengine-master/compiler/windows/bin/../lib/gcc/sh-elf/9.3.0/../../../../sh-elf/lib\libc.a(lib_a-fstatr.o)
 .comment       0x00000396       0x12 d:/joengine-master/compiler/windows/bin/../lib/gcc/sh-elf/9.3.0/../../../../sh-elf/lib\libc.a(lib_a-isattyr.o)
 .comment       0x000003a8       0x12 d:/joengine-master/compiler/windows/bin/../lib/gcc/sh-elf/9.3.0/../../../../sh-elf/lib\libc.a(lib_a-lseekr.o)
 .comment       0x000003ba       0x12 d:/joengine-master/compiler/windows/bin/../lib/gcc/sh-elf/9.3.0/../../../../sh-elf/lib\libc.a(lib_a-memchr.o)
 .comment       0x000003cc       0x12 d:/joengine-master/compiler/windows/bin/../lib/gcc/sh-elf/9.3.0/../../../../sh-elf/lib\libc.a(lib_a-memmove.o)
 .comment       0x000003de       0x12 d:/joengine-master/compiler/windows/bin/../lib/gcc/sh-elf/9.3.0/../../../../sh-elf/lib\libc.a(lib_a-readr.o)
 .comment       0x000003f0       0x12 d:/joengine-master/compiler/windows/bin/../lib/gcc/sh-elf/9.3.0/../../../../sh-elf/lib\libc.a(lib_a-reent.o)

.debug_frame    0x00000000     0x1280
 .debug_frame   0x00000000       0xd0 d:/joengine-master/compiler/windows/bin/../lib/gcc/sh-elf/9.3.0\libgcc.a(_addsub_sf.o)
 .debug_frame   0x000000d0       0x48 d:/joengine-master/compiler/windows/bin/../lib/gcc/sh-elf/9.3.0\libgcc.a(_mul_sf.o)
 .debug_frame   0x00000118       0x3c d:/joengine-master/compiler/windows/bin/../lib/gcc/sh-elf/9.3.0\libgcc.a(_div_sf.o)
 .debug_frame   0x00000154       0x48 d:/joengine-master/compiler/windows/bin/../lib/gcc/sh-elf/9.3.0\libgcc.a(_eq_sf.o)
 .debug_frame   0x0000019c       0x48 d:/joengine-master/compiler/windows/bin/../lib/gcc/sh-elf/9.3.0\libgcc.a(_ne_sf.o)
 .debug_frame   0x000001e4       0x48 d:/joengine-master/compiler/windows/bin/../lib/gcc/sh-elf/9.3.0\libgcc.a(_gt_sf.o)
 .debug_frame   0x0000022c       0x48 d:/joengine-master/compiler/windows/bin/../lib/gcc/sh-elf/9.3.0\libgcc.a(_ge_sf.o)
 .debug_frame   0x00000274       0x48 d:/joengine-master/compiler/windows/bin/../lib/gcc/sh-elf/9.3.0\libgcc.a(_lt_sf.o)
 .debug_frame   0x000002bc       0x48 d:/joengine-master/compiler/windows/bin/../lib/gcc/sh-elf/9.3.0\libgcc.a(_le_sf.o)
 .debug_frame   0x00000304       0x3c d:/joengine-master/compiler/windows/bin/../lib/gcc/sh-elf/9.3.0\libgcc.a(_si_to_sf.o)
 .debug_frame   0x00000340       0x48 d:/joengine-master/compiler/windows/bin/../lib/gcc/sh-elf/9.3.0\libgcc.a(_sf_to_si.o)
 .debug_frame   0x00000388       0x30 d:/joengine-master/compiler/windows/bin/../lib/gcc/sh-elf/9.3.0\libgcc.a(_sf_to_df.o)
 .debug_frame   0x000003b8       0x60 d:/joengine-master/compiler/windows/bin/../lib/gcc/sh-elf/9.3.0\libgcc.a(_usi_to_sf.o)
 .debug_frame   0x00000418      0x134 d:/joengine-master/compiler/windows/bin/../lib/gcc/sh-elf/9.3.0\libgcc.a(_addsub_df.o)
 .debug_frame   0x0000054c       0x98 d:/joengine-master/compiler/windows/bin/../lib/gcc/sh-elf/9.3.0\libgcc.a(_mul_df.o)
 .debug_frame   0x000005e4       0x3c d:/joengine-master/compiler/windows/bin/../lib/gcc/sh-elf/9.3.0\libgcc.a(_si_to_df.o)
 .debug_frame   0x00000620       0x48 d:/joengine-master/compiler/windows/bin/../lib/gcc/sh-elf/9.3.0\libgcc.a(_df_to_si.o)
 .debug_frame   0x00000668       0x38 d:/joengine-master/compiler/windows/bin/../lib/gcc/sh-elf/9.3.0\libgcc.a(_make_df.o)
 .debug_frame   0x000006a0       0x30 d:/joengine-master/compiler/windows/bin/../lib/gcc/sh-elf/9.3.0\libgcc.a(_df_to_sf.o)
 .debug_frame   0x000006d0       0x20 d:/joengine-master/compiler/windows/bin/../lib/gcc/sh-elf/9.3.0\libgcc.a(_clzsi2.o)
 .debug_frame   0x000006f0       0x30 d:/joengine-master/compiler/windows/bin/../lib/gcc/sh-elf/9.3.0\libgcc.a(_pack_sf.o)
 .debug_frame   0x00000720       0x20 d:/joengine-master/compiler/windows/bin/../lib/gcc/sh-elf/9.3.0\libgcc.a(_unpack_sf.o)
 .debug_frame   0x00000740       0x20 d:/joengine-master/compiler/windows/bin/../lib/gcc/sh-elf/9.3.0\libgcc.a(_fpcmp_parts_sf.o)
 .debug_frame   0x00000760       0x30 d:/joengine-master/compiler/windows/bin/../lib/gcc/sh-elf/9.3.0\libgcc.a(_make_sf.o)
 .debug_frame   0x00000790       0x6c d:/joengine-master/compiler/windows/bin/../lib/gcc/sh-elf/9.3.0\libgcc.a(_pack_df.o)
 .debug_frame   0x000007fc       0x20 d:/joengine-master/compiler/windows/bin/../lib/gcc/sh-elf/9.3.0\libgcc.a(_unpack_df.o)
 .debug_frame   0x0000081c       0x20 d:/joengine-master/compiler/windows/bin/../lib/gcc/sh-elf/9.3.0/../../../../sh-elf/lib\libc.a(lib_a-memcmp.o)
 .debug_frame   0x0000083c       0x30 d:/joengine-master/compiler/windows/bin/../lib/gcc/sh-elf/9.3.0/../../../../sh-elf/lib\libc.a(lib_a-rand.o)
 .debug_frame   0x0000086c       0x4c d:/joengine-master/compiler/windows/bin/../lib/gcc/sh-elf/9.3.0/../../../../sh-elf/lib\libc.a(lib_a-rget.o)
 .debug_frame   0x000008b8       0x64 d:/joengine-master/compiler/windows/bin/../lib/gcc/sh-elf/9.3.0/../../../../sh-elf/lib\libc.a(lib_a-sprintf.o)
 .debug_frame   0x0000091c       0x20 d:/joengine-master/compiler/windows/bin/../lib/gcc/sh-elf/9.3.0/../../../../sh-elf/lib\libc.a(lib_a-strcat.o)
 .debug_frame   0x0000093c       0x20 d:/joengine-master/compiler/windows/bin/../lib/gcc/sh-elf/9.3.0/../../../../sh-elf/lib\libc.a(lib_a-strncmp.o)
 .debug_frame   0x0000095c       0x20 d:/joengine-master/compiler/windows/bin/../lib/gcc/sh-elf/9.3.0/../../../../sh-elf/lib\libc.a(lib_a-strncpy.o)
 .debug_frame   0x0000097c       0x20 d:/joengine-master/compiler/windows/bin/../lib/gcc/sh-elf/9.3.0/../../../../sh-elf/lib\libc.a(lib_a-strstr.o)
 .debug_frame   0x0000099c       0x60 d:/joengine-master/compiler/windows/bin/../lib/gcc/sh-elf/9.3.0/../../../../sh-elf/lib\libc.a(lib_a-wbuf.o)
 .debug_frame   0x000009fc       0x40 d:/joengine-master/compiler/windows/bin/../lib/gcc/sh-elf/9.3.0/../../../../sh-elf/lib\libc.a(lib_a-wsetup.o)
 .debug_frame   0x00000a3c       0x9c d:/joengine-master/compiler/windows/bin/../lib/gcc/sh-elf/9.3.0/../../../../sh-elf/lib\libc.a(lib_a-fflush.o)
 .debug_frame   0x00000ad8       0xfc d:/joengine-master/compiler/windows/bin/../lib/gcc/sh-elf/9.3.0/../../../../sh-elf/lib\libc.a(lib_a-findfp.o)
 .debug_frame   0x00000bd4       0xc0 d:/joengine-master/compiler/windows/bin/../lib/gcc/sh-elf/9.3.0/../../../../sh-elf/lib\libc.a(lib_a-fwalk.o)
 .debug_frame   0x00000c94       0x88 d:/joengine-master/compiler/windows/bin/../lib/gcc/sh-elf/9.3.0/../../../../sh-elf/lib\libc.a(lib_a-makebuf.o)
 .debug_frame   0x00000d1c      0x130 d:/joengine-master/compiler/windows/bin/../lib/gcc/sh-elf/9.3.0/../../../../sh-elf/lib\libc.a(lib_a-nano-svfprintf.o)
 .debug_frame   0x00000e4c       0xd8 d:/joengine-master/compiler/windows/bin/../lib/gcc/sh-elf/9.3.0/../../../../sh-elf/lib\libc.a(lib_a-nano-vfprintf_i.o)
 .debug_frame   0x00000f24       0x58 d:/joengine-master/compiler/windows/bin/../lib/gcc/sh-elf/9.3.0/../../../../sh-elf/lib\libc.a(lib_a-refill.o)
 .debug_frame   0x00000f7c       0xb8 d:/joengine-master/compiler/windows/bin/../lib/gcc/sh-elf/9.3.0/../../../../sh-elf/lib\libc.a(lib_a-stdio.o)
 .debug_frame   0x00001034       0x3c d:/joengine-master/compiler/windows/bin/../lib/gcc/sh-elf/9.3.0/../../../../sh-elf/lib\libc.a(lib_a-writer.o)
 .debug_frame   0x00001070       0x3c d:/joengine-master/compiler/windows/bin/../lib/gcc/sh-elf/9.3.0/../../../../sh-elf/lib\libc.a(lib_a-closer.o)
 .debug_frame   0x000010ac       0x3c d:/joengine-master/compiler/windows/bin/../lib/gcc/sh-elf/9.3.0/../../../../sh-elf/lib\libc.a(lib_a-fstatr.o)
 .debug_frame   0x000010e8       0x3c d:/joengine-master/compiler/windows/bin/../lib/gcc/sh-elf/9.3.0/../../../../sh-elf/lib\libc.a(lib_a-isattyr.o)
 .debug_frame   0x00001124       0x3c d:/joengine-master/compiler/windows/bin/../lib/gcc/sh-elf/9.3.0/../../../../sh-elf/lib\libc.a(lib_a-lseekr.o)
 .debug_frame   0x00001160       0x20 d:/joengine-master/compiler/windows/bin/../lib/gcc/sh-elf/9.3.0/../../../../sh-elf/lib\libc.a(lib_a-memchr.o)
 .debug_frame   0x00001180       0x20 d:/joengine-master/compiler/windows/bin/../lib/gcc/sh-elf/9.3.0/../../../../sh-elf/lib\libc.a(lib_a-memmove.o)
 .debug_frame   0x000011a0       0x3c d:/joengine-master/compiler/windows/bin/../lib/gcc/sh-elf/9.3.0/../../../../sh-elf/lib\libc.a(lib_a-readr.o)
 .debug_frame   0x000011dc       0x9c d:/joengine-master/compiler/windows/bin/../lib/gcc/sh-elf/9.3.0/../../../../sh-elf/lib\libc.a(lib_a-reent.o)
